
sensor.elf:     file format elf32-avr

Sections:
Idx Name          Size      VMA       LMA       File off  Algn
  0 .data         0000009e  00800100  000066ee  000067a2  2**0
                  CONTENTS, ALLOC, LOAD, DATA
  1 .text         000066ee  00000000  00000000  000000b4  2**1
                  CONTENTS, ALLOC, LOAD, READONLY, CODE
  2 .bss          00000318  0080019e  0080019e  00006840  2**0
                  ALLOC
  3 .eeprom       000001f5  00810000  00810000  00006840  2**0
                  CONTENTS, ALLOC, LOAD, DATA
  4 .comment      0000005c  00000000  00000000  00006a35  2**0
                  CONTENTS, READONLY
  5 .note.gnu.avr.deviceinfo 00000040  00000000  00000000  00006a94  2**2
                  CONTENTS, READONLY
  6 .debug_aranges 000000c0  00000000  00000000  00006ad8  2**3
                  CONTENTS, READONLY, DEBUGGING
  7 .debug_info   00000995  00000000  00000000  00006b98  2**0
                  CONTENTS, READONLY, DEBUGGING
  8 .debug_abbrev 0000061a  00000000  00000000  0000752d  2**0
                  CONTENTS, READONLY, DEBUGGING
  9 .debug_line   0000047c  00000000  00000000  00007b47  2**0
                  CONTENTS, READONLY, DEBUGGING
 10 .debug_str    00000208  00000000  00000000  00007fc3  2**0
                  CONTENTS, READONLY, DEBUGGING

Disassembly of section .text:

00000000 <__vectors>:
       0:	0c 94 52 05 	jmp	0xaa4	; 0xaa4 <__ctors_end>
       4:	0c 94 6f 05 	jmp	0xade	; 0xade <__bad_interrupt>
       8:	0c 94 6f 05 	jmp	0xade	; 0xade <__bad_interrupt>
       c:	0c 94 6f 05 	jmp	0xade	; 0xade <__bad_interrupt>
      10:	0c 94 6f 05 	jmp	0xade	; 0xade <__bad_interrupt>
      14:	0c 94 6f 05 	jmp	0xade	; 0xade <__bad_interrupt>
      18:	0c 94 6f 05 	jmp	0xade	; 0xade <__bad_interrupt>
      1c:	0c 94 6f 05 	jmp	0xade	; 0xade <__bad_interrupt>
      20:	0c 94 6f 05 	jmp	0xade	; 0xade <__bad_interrupt>
      24:	0c 94 6f 05 	jmp	0xade	; 0xade <__bad_interrupt>
      28:	0c 94 6f 05 	jmp	0xade	; 0xade <__bad_interrupt>
      2c:	0c 94 6f 05 	jmp	0xade	; 0xade <__bad_interrupt>
      30:	0c 94 6f 05 	jmp	0xade	; 0xade <__bad_interrupt>
      34:	0c 94 6f 05 	jmp	0xade	; 0xade <__bad_interrupt>
      38:	0c 94 6f 05 	jmp	0xade	; 0xade <__bad_interrupt>
      3c:	0c 94 6f 05 	jmp	0xade	; 0xade <__bad_interrupt>
      40:	0c 94 12 06 	jmp	0xc24	; 0xc24 <__vector_16>
      44:	0c 94 6f 05 	jmp	0xade	; 0xade <__bad_interrupt>
      48:	0c 94 46 21 	jmp	0x428c	; 0x428c <__vector_18>
      4c:	0c 94 6f 05 	jmp	0xade	; 0xade <__bad_interrupt>
      50:	0c 94 6f 05 	jmp	0xade	; 0xade <__bad_interrupt>
      54:	0c 94 6f 05 	jmp	0xade	; 0xade <__bad_interrupt>
      58:	0c 94 6f 05 	jmp	0xade	; 0xade <__bad_interrupt>
      5c:	0c 94 6f 05 	jmp	0xade	; 0xade <__bad_interrupt>
      60:	0c 94 6f 05 	jmp	0xade	; 0xade <__bad_interrupt>
      64:	0c 94 6f 05 	jmp	0xade	; 0xade <__bad_interrupt>
      68:	ee 17       	cp	r30, r30
      6a:	ea 17       	cp	r30, r26
      6c:	e6 17       	cp	r30, r22
      6e:	e2 17       	cp	r30, r18
      70:	de 17       	cp	r29, r30
      72:	da 17       	cp	r29, r26
      74:	d6 17       	cp	r29, r22
      76:	f4 17       	cp	r31, r20
      78:	ee 17       	cp	r30, r30
      7a:	ea 17       	cp	r30, r26
      7c:	e6 17       	cp	r30, r22
      7e:	e2 17       	cp	r30, r18
      80:	de 17       	cp	r29, r30
      82:	da 17       	cp	r29, r26
      84:	d6 17       	cp	r29, r22
      86:	47 1a       	sub	r4, r23
      88:	64 1a       	sub	r6, r20
      8a:	7f 1a       	sub	r7, r31
      8c:	7f 1a       	sub	r7, r31
      8e:	7f 1a       	sub	r7, r31
      90:	7f 1a       	sub	r7, r31
      92:	7f 1a       	sub	r7, r31
      94:	7f 1a       	sub	r7, r31
      96:	47 1a       	sub	r4, r23
      98:	64 1a       	sub	r6, r20
      9a:	7f 1a       	sub	r7, r31
      9c:	7f 1a       	sub	r7, r31
      9e:	7f 1a       	sub	r7, r31
      a0:	7f 1a       	sub	r7, r31
      a2:	7f 1a       	sub	r7, r31
      a4:	7f 1a       	sub	r7, r31
      a6:	e4 1a       	sub	r14, r20
      a8:	e4 1a       	sub	r14, r20
      aa:	e4 1a       	sub	r14, r20
      ac:	e4 1a       	sub	r14, r20
      ae:	d0 1a       	sub	r13, r16
      b0:	e4 1a       	sub	r14, r20
      b2:	29 1a       	sub	r2, r25
      b4:	3a 1a       	sub	r3, r26
      b6:	1e 1d       	adc	r17, r14
      b8:	3e 1d       	adc	r19, r14
      ba:	68 1d       	adc	r22, r8
      bc:	87 1d       	adc	r24, r7
      be:	b2 1d       	adc	r27, r2
      c0:	eb 1d       	adc	r30, r11
      c2:	33 1e       	adc	r3, r19
      c4:	c7 1e       	adc	r12, r23
      c6:	ee 1e       	adc	r14, r30
      c8:	0a 1f       	adc	r16, r26
      ca:	2e 1f       	adc	r18, r30
      cc:	5c 1f       	adc	r21, r28
      ce:	9c 1f       	adc	r25, r28
      d0:	ec 1f       	adc	r30, r28
      d2:	08 00       	.word	0x0008	; ????
      d4:	00 00       	nop
      d6:	be 92       	st	-X, r11
      d8:	24 49       	sbci	r18, 0x94	; 148
      da:	12 3e       	cpi	r17, 0xE2	; 226
      dc:	ab aa       	std	Y+51, r10	; 0x33
      de:	aa 2a       	or	r10, r26
      e0:	be cd       	rjmp	.-1156   	; 0xfffffc5e <__eeprom_end+0xff7efa69>
      e2:	cc cc       	rjmp	.-1640   	; 0xfffffa7c <__eeprom_end+0xff7ef887>
      e4:	4c 3e       	cpi	r20, 0xEC	; 236
      e6:	00 00       	nop
      e8:	00 80       	ld	r0, Z
      ea:	be ab       	std	Y+54, r27	; 0x36
      ec:	aa aa       	std	Y+50, r10	; 0x32
      ee:	aa 3e       	cpi	r26, 0xEA	; 234
      f0:	00 00       	nop
      f2:	00 00       	nop
      f4:	bf 00       	.word	0x00bf	; ????
      f6:	00 00       	nop
      f8:	80 3f       	cpi	r24, 0xF0	; 240
      fa:	00 00       	nop
      fc:	00 00       	nop
      fe:	00 08       	sbc	r0, r0
     100:	41 78       	andi	r20, 0x81	; 129
     102:	d3 bb       	out	0x13, r29	; 19
     104:	43 87       	std	Z+11, r20	; 0x0b
     106:	d1 13       	cpse	r29, r17
     108:	3d 19       	sub	r19, r13
     10a:	0e 3c       	cpi	r16, 0xCE	; 206
     10c:	c3 bd       	out	0x23, r28	; 35
     10e:	42 82       	std	Z+2, r4	; 0x02
     110:	ad 2b       	or	r26, r29
     112:	3e 68       	ori	r19, 0x8E	; 142
     114:	ec 82       	std	Y+4, r14	; 0x04
     116:	76 be       	out	0x36, r7	; 54
     118:	d9 8f       	std	Y+25, r29	; 0x19
     11a:	e1 a9       	ldd	r30, Z+49	; 0x31
     11c:	3e 4c       	sbci	r19, 0xCE	; 206
     11e:	80 ef       	ldi	r24, 0xF0	; 240
     120:	ff be       	out	0x3f, r15	; 63
     122:	01 c4       	rjmp	.+2050   	; 0x926 <Menu_Network_Password_Text+0x7>
     124:	ff 7f       	andi	r31, 0xFF	; 255
     126:	3f 00       	.word	0x003f	; ????
     128:	00 00       	nop
     12a:	00 00       	nop
     12c:	07 63       	ori	r16, 0x37	; 55
     12e:	42 36       	cpi	r20, 0x62	; 98
     130:	b7 9b       	sbis	0x16, 7	; 22
     132:	d8 a7       	std	Y+40, r29	; 0x28
     134:	1a 39       	cpi	r17, 0x9A	; 154
     136:	68 56       	subi	r22, 0x68	; 104
     138:	18 ae       	std	Y+56, r1	; 0x38
     13a:	ba ab       	std	Y+50, r27	; 0x32
     13c:	55 8c       	ldd	r5, Z+29	; 0x1d
     13e:	1d 3c       	cpi	r17, 0xCD	; 205
     140:	b7 cc       	rjmp	.-1682   	; 0xfffffab0 <__eeprom_end+0xff7ef8bb>
     142:	57 63       	ori	r21, 0x37	; 55
     144:	bd 6d       	ori	r27, 0xDD	; 221
     146:	ed fd       	.word	0xfded	; ????
     148:	75 3e       	cpi	r23, 0xE5	; 229
     14a:	f6 17       	cp	r31, r22
     14c:	72 31       	cpi	r23, 0x12	; 18
     14e:	bf 00       	.word	0x00bf	; ????
     150:	00 00       	nop
     152:	80 3f       	cpi	r24, 0xF0	; 240

00000154 <__trampolines_end>:
     154:	4e 41       	sbci	r20, 0x1E	; 30
     156:	4e 49       	Address 0x00000156 is out of bounds.
.word	0xffff	; ????

00000157 <pstr_inity>:
     157:	49 4e 49 54 59                                      INITY

0000015c <pstr_inf>:
     15c:	49 4e 46                                            INF

0000015f <pwr_m10>:
     15f:	cd cc cc 3d 0a d7 23 3c 17 b7 d1 38 77 cc 2b 32     ...=..#<...8w.+2
     16f:	95 95 e6 24 1f b1 4f 0a                             ...$..O.

00000177 <pwr_p10>:
     177:	00 00 20 41 00 00 c8 42 00 40 1c 46 20 bc be 4c     .. A...B.@.F ..L
     187:	ca 1b 0e 5a ae c5 9d 74 00 40 7a 10 f3 5a 00 a0     ...Z...t.@z..Z..
     197:	72 4e 18 09 00 10 a5 d4 e8 00 00 e8 76 48 17 00     rN..........vH..
     1a7:	00 e4 0b 54 02 00 00 ca 9a 3b 00 00 00 e1 f5 05     ...T.....;......
     1b7:	00 00 80 96 98 00 00 00 40 42 0f 00 00 00 a0 86     ........@B......
     1c7:	01 00 00 00 10 27 00 00 00 00 e8 03 00 00 00 00     .....'..........
     1d7:	64 00 00 00 00 00 0a 00 00 00 00 00 01 00 00 00     d...............
     1e7:	00 00 2c 76 d8 88 dc 67 4f 08 23 df c1 df ae 59     ..,v...gO.#....Y
     1f7:	e1 b1 b7 96 e5 e3 e4 53 c6 3a e6 51 99 76 96 e8     .......S.:.Q.v..
     207:	e6 c2 84 26 eb 89 8c 9b 62 ed 40 7c 6f fc ef bc     ...&....b.@|o...
     217:	9c 9f 40 f2 ba a5 6f a5 f4 90 05 5a 2a f7 5c 93     ..@...o....Z*.\.
     227:	6b 6c f9 67 6d c1 1b fc e0 e4 0d 47 fe f5 20 e6     kl.gm......G.. .
     237:	b5 00 d0 ed 90 2e 03 00 94 35 77 05 00 80 84 1e     .........5w.....
     247:	08 00 00 20 4e 0a 00 00 00 c8 0c 33 33 33 33 0f     ... N......3333.
     257:	98 6e 12 83 11 41 ef 8d 21 14 89 3b e6 55 16 cf     .n...A..!..;.U..
     267:	fe e6 db 18 d1 84 4b 38 1b f7 7c 1d 90 1d a4 bb     ......K8..|.....
     277:	e4 24 20 32 84 72 5e 22 81 00 c9 f1 24 ec a1 e5     .$ 2.r^"....$...
     287:	3d 27                                               ='

00000289 <KbLayoutShift>:
     289:	7e 21 40 23 24 25 5e 26 2a 28 29 5f 2b 01 20 51     ~!@#$%^&*()_+. Q
     299:	57 45 52 54 59 55 49 4f 50 7b 7d 04 02 20 41 53     WERTYUIOP{}.. AS
     2a9:	44 46 47 48 4a 4b 4c 3a 22 7c 03 20 5a 58 43 56     DFGHJKL:"|. ZXCV
     2b9:	42 4e 4d 3c 3e 3f 05 06                             BNM<>?..

000002c1 <KbLayout>:
     2c1:	60 31 32 33 34 35 36 37 38 39 30 2d 3d 01 20 71     `1234567890-=. q
     2d1:	77 65 72 74 79 75 69 6f 70 5b 5d 04 02 20 61 73     wertyuiop[].. as
     2e1:	64 66 67 68 6a 6b 6c 3b 27 5c 03 20 7a 78 63 76     dfghjkl;'\. zxcv
     2f1:	62 6e 6d 2c 2e 2f 05 06                             bnm,./..

000002f9 <FontEx>:
     2f9:	ff ff ff ff ff ff 08 1c 3e 08 08 00 0c 06 3f 06     ........>.....?.
     309:	0c 00 0c 02 39 02 0c 00 10 20 10 08 04 00 00 00     ....9.... ......
     319:	10 38 7c 00 00 00 7c 38 10 00                       .8|...|8..

00000323 <Font>:
	...
     32b:	5f 00 00 00 00 07 00 07 00 00 14 7f 14 7f 14 00     _...............
     33b:	24 2a 7f 2a 12 00 23 13 08 64 62 00 36 49 55 22     $*.*..#..db.6IU"
     34b:	50 00 00 00 03 00 00 00 00 1c 22 41 00 00 00 41     P........."A...A
     35b:	22 1c 00 00 14 08 3e 08 14 00 08 08 3e 08 08 00     ".....>.....>...
     36b:	00 50 30 00 00 00 08 08 08 08 08 00 00 60 60 00     .P0..........``.
     37b:	00 00 20 10 08 04 02 00 3e 51 49 45 3e 00 00 42     .. .....>QIE>..B
     38b:	7f 40 00 00 42 61 51 49 46 00 21 41 45 4b 31 00     .@..BaQIF.!AEK1.
     39b:	18 14 12 7f 10 00 27 45 45 45 39 00 3c 4a 49 49     ......'EEE9.<JII
     3ab:	30 00 03 71 09 05 03 00 36 49 49 49 36 00 06 49     0..q....6III6..I
     3bb:	49 29 1e 00 00 36 36 00 00 00 00 56 36 00 00 00     I)...66....V6...
     3cb:	08 14 22 41 00 00 14 14 14 14 14 00 00 41 22 14     .."A.........A".
     3db:	08 00 02 01 51 09 06 00 32 49 79 41 3e 00 7e 11     ....Q...2IyA>.~.
     3eb:	11 11 7e 00 7f 49 49 49 36 00 3e 41 41 41 22 00     ..~..III6.>AAA".
     3fb:	7f 41 41 41 3e 00 7f 49 49 49 41 00 7f 09 09 09     .AAA>..IIIA.....
     40b:	01 00 3e 41 41 49 7a 00 7f 08 08 08 7f 00 00 41     ..>AAIz........A
     41b:	7f 41 00 00 20 40 41 3f 01 00 7f 08 14 22 41 00     .A.. @A?....."A.
     42b:	7f 40 40 40 40 00 7f 02 0c 02 7f 00 7f 04 08 10     .@@@@...........
     43b:	7f 00 3e 41 41 41 3e 00 7f 09 09 09 06 00 3e 41     ..>AAA>.......>A
     44b:	51 21 5e 00 7f 09 19 29 46 00 46 49 49 49 31 00     Q!^....)F.FIII1.
     45b:	01 01 7f 01 01 00 3f 40 40 40 3f 00 1f 20 40 20     ......?@@@?.. @ 
     46b:	1f 00 3f 40 38 40 3f 00 63 14 08 14 63 00 07 08     ..?@8@?.c...c...
     47b:	70 08 07 00 61 51 49 45 43 00 00 7f 41 41 00 00     p...aQIEC...AA..
     48b:	02 04 08 10 20 00 00 41 41 7f 00 00 04 02 01 02     .... ..AA.......
     49b:	04 00 40 40 40 40 40 00 00 01 02 04 00 00 20 54     ..@@@@@....... T
     4ab:	54 54 78 00 7f 48 44 44 38 00 38 44 44 44 20 00     TTx..HDD8.8DDD .
     4bb:	38 44 44 48 7f 00 38 54 54 54 18 00 08 7e 09 01     8DDH..8TTT...~..
     4cb:	02 00 18 a4 a4 a4 7c 00 7f 08 04 04 78 00 00 48     ......|.....x..H
     4db:	7d 40 00 00 00 00 84 7d 00 00 7f 10 28 44 00 00     }@.....}....(D..
     4eb:	00 41 7f 40 00 00 7c 04 78 04 78 00 7c 08 04 04     .A.@..|.x.x.|...
     4fb:	78 00 38 44 44 44 38 00 fc 24 24 24 18 00 18 24     x.8DDD8..$$$...$
     50b:	24 28 fc 00 7c 08 04 04 08 00 48 54 54 54 20 00     $(..|.....HTTT .
     51b:	04 3f 44 40 20 00 3c 40 40 20 7c 00 1c 20 40 20     .?D@ .<@@ |.. @ 
     52b:	1c 00 3c 40 30 40 3c 00 44 28 10 28 44 00 1c a0     ..<@0@<.D(.(D...
     53b:	a0 a0 7c 00 44 64 54 4c 44 00 00 08 36 41 00 00     ..|.DdTLD...6A..
     54b:	00 00 7f 00 00 00 00 41 36 08 00 00 10 08 08 10     .......A6.......
     55b:	08 00 00 00 00 00 00 00 20 54 54 d4 78 00 38 44     ........ TT.x.8D
     56b:	46 45 20 00 38 54 54 d4 18 00 00 49 7f 44 00 00     FE .8TT....I.D..
     57b:	7c 08 06 05 78 00 38 44 46 45 38 00 48 54 56 55     |...x.8DFE8.HTVU
     58b:	20 00 44 64 56 4d 44 00 44 64 55 4c 44 00 7e 11      .DdVMD.DdULD.~.
     59b:	11 91 7e 00 3c 42 46 43 24 00 7f 49 49 c9 41 00     ..~.<BFC$..II.A.
     5ab:	7f 50 48 44 40 00 7e 04 0b 10 7e 00 3c 42 46 43     .PHD@.~...~.<BFC
     5bb:	3c 00 4c 52 56 53 22 00 42 66 53 4a 46 00 42 62     <.LRVS".BfSJF.Bb
     5cb:	53 4a 46 00 00 00 00 00 00 00 00 00 00 00 00 00     SJF.............
	...

00000623 <__c.2879>:
     623:	50 6c 65 61 73 65 20 77 61 69 74 2e 2e 2e 00        Please wait....

00000632 <__c.2877>:
     632:	58 00                                               X.

00000634 <__c.2875>:
     634:	4f 4b 00                                            OK.

00000637 <__c.2873>:
     637:	42 52 3a 00                                         BR:.

0000063b <__c.2871>:
     63b:	58 00                                               X.

0000063d <__c.2869>:
     63d:	4f 4b 00                                            OK.

00000640 <__c.2867>:
     640:	41 50 3a 00                                         AP:.

00000644 <__c.2862>:
     644:	44 41 54 41 20 25 73 20 25 73 0a 00                 DATA %s %s..

00000650 <__c.2860>:
     650:	25 73 3a 20 25 73 00                                %s: %s.

00000657 <__c.2858>:
     657:	25 73 3d 25 73 00                                   %s=%s.

0000065d <__c.2851>:
     65d:	72 65 73 74 61 72 74 20 69 6e 20 25 64 73 00        restart in %ds.

0000066c <__c.2845>:
     66c:	75 50 72 6f 62 65 00                                uProbe.

00000673 <__c.2826>:
     673:	41 50 20 63 6f 6e 6e 2e 20 66 61 69 6c 00           AP conn. fail.

00000681 <__c.2824>:
     681:	42 72 6f 6b 65 72 20 66 61 69 6c 00                 Broker fail.

0000068d <__c.2822>:
     68d:	42 72 6f 6b 65 72 20 74 69 6d 65 6f 75 74 00        Broker timeout.

0000069c <__c.2820>:
     69c:	4f 4b 00                                            OK.

0000069f <__c.2818>:
     69f:	42 72 6f 6b 65 72 20 63 6f 6e 6e 2e 00              Broker conn..

000006ac <__c.2816>:
     6ac:	52 45 47 49 53 54 45 52 20 25 73 0a 00              REGISTER %s..

000006b9 <__c.2813>:
     6b9:	41 50 20 63 6f 6e 6e 65 63 74 65 64 00              AP connected.

000006c6 <__c.2810>:
     6c6:	63 68 69 70 20 72 65 61 64 79 00                    chip ready.

000006d1 <__c.2807>:
     6d1:	65 72 72 3a 20 70 72 6f 74 6f 63 6f 6c 00           err: protocol.

000006df <__c.2803>:
     6df:	65 72 72 3a 20 6e 6f 20 61 6e 73 77 65 72 00        err: no answer.

000006ee <__c.2800>:
     6ee:	57 4c 41 4e 20 73 74 61 72 74 75 70 00              WLAN startup.

000006fb <__c.2794>:
     6fb:	0a 00                                               ..

000006fd <__c.2792>:
     6fd:	52 45 47 49 53 54 45 52 20 4f 4b 00                 REGISTER OK.

00000709 <__c.2790>:
     709:	51 55 45 52 59 00                                   QUERY.

0000070f <__c.2788>:
     70f:	0a 00                                               ..

00000711 <__c.2595>:
     711:	42 61 63 6b 6c 69 67 68 74 00                       Backlight.

0000071b <__c.2587>:
     71b:	42 72 69 67 68 74 6e 65 73 73 00                    Brightness.

00000726 <__c.2579>:
     726:	45 6e 74 65 72 20 6e 61 6d 65 00                    Enter name.

00000731 <__c.2541>:
     731:	45 78 70 72 65 73 73 69 6f 6e 00                    Expression.

0000073c <__c.2533>:
     73c:	45 6e 74 65 72 20 6e 61 6d 65 00                    Enter name.

00000747 <__c.2526>:
     747:	44 49 53 41 42 4c 45 44 0d 45 4e 41 42 4c 45 44     DISABLED.ENABLED
	...

00000758 <__c.2511>:
     758:	44 49 53 41 42 4c 45 44 0d 45 4e 41 42 4c 45 44     DISABLED.ENABLED
	...

00000769 <__c.2501>:
     769:	3a 00                                               :.

0000076b <__c.2499>:
     76b:	3a 00                                               :.

0000076d <__c.2496>:
     76d:	45 6e 74 65 72 20 61 64 64 72 65 73 73 00           Enter address.

0000077b <__c.2488>:
     77b:	45 6e 74 65 72 20 70 61 73 73 77 6f 72 64 00        Enter password.

0000078a <__c.2480>:
     78a:	45 6e 74 65 72 20 53 53 49 44 00                    Enter SSID.

00000795 <__c.2466>:
     795:	45 6e 74 65 72 20 70 61 73 73 77 6f 72 64 00        Enter password.

000007a4 <__c.2463>:
     7a4:	43 6f 6e 66 69 72 6d 2f 72 65 74 75 72 6e 00        Confirm/return.

000007b3 <__c.2461>:
     7b3:	53 65 74 75 70 20 41 50 20 61 73 3a 00              Setup AP as:.

000007c0 <__c.2451>:
     7c0:	41 50 20 4c 69 73 74 3a 00                          AP List:.

000007c9 <__c.2447>:
     7c9:	53 63 61 6e 6e 69 6e 67 20 41 50 73 2e 2e 00        Scanning APs...

000007d8 <Menu_Main>:
     7d8:	05 31 08 2a 08 17 08 05 08 f4 07 00 00 00 00 00     .1.*............
     7e8:	00 eb 07                                            ...

000007eb <Menu_Main_Title>:
     7eb:	53 65 74 74 69 6e 67 73 00                          Settings.

000007f4 <Menu_Main_Backlight>:
     7f4:	f9 07 fb 07 80                                      .....

000007f9 <BacklightScrollbarFunction>:
     7f9:	d7 10                                               ..

000007fb <Menu_Main_Backlight_Text>:
     7fb:	42 61 63 6b 6c 69 67 68 74 00                       Backlight.

00000805 <Menu_Main_Brightness>:
     805:	0a 08 0c 08 80                                      .....

0000080a <BrightnessScrollbarFunction>:
     80a:	b0 10                                               ..

0000080c <Menu_Main_Brightness_Text>:
     80c:	42 72 69 67 68 74 6e 65 73 73 00                    Brightness.

00000817 <Menu_Main_System>:
     817:	1c 08 1e 08 80                                      .....

0000081c <SystemFunction>:
     81c:	ae 0f                                               ..

0000081e <Menu_Main_System_Text>:
     81e:	53 79 73 74 65 6d 20 6e 61 6d 65 00                 System name.

0000082a <Menu_Main_Sensors>:
     82a:	2f 08 c8 08 80                                      /....

0000082f <SensorsMenuFunction>:
     82f:	ac 10                                               ..

00000831 <Menu_Main_Network>:
     831:	36 08 e3 08 80                                      6....

00000836 <ConfigApFunction>:
     836:	a8 10                                               ..

00000838 <Menu_Sensors>:
     838:	04 7a 08 6b 08 5b 08 4b 08 00 00 00 00 00 00 00     .z.k.[.K........
     848:	00 c8 08                                            ...

0000084b <Menu_Trigger1>:
     84b:	50 08 52 08 80                                      P.R..

00000850 <Trigger1Function>:
     850:	a1 10                                               ..

00000852 <Menu_Trigger1_Text>:
     852:	4f 75 74 70 75 74 20 32 00                          Output 2.

0000085b <Menu_Trigger0>:
     85b:	60 08 62 08 80                                      `.b..

00000860 <Trigger0Function>:
     860:	9a 10                                               ..

00000862 <Menu_Trigger0_Text>:
     862:	4f 75 74 70 75 74 20 31 00                          Output 1.

0000086b <Menu_Sensor1>:
     86b:	70 08 72 08 80                                      p.r..

00000870 <Sensor1Function>:
     870:	93 10                                               ..

00000872 <Menu_Sensor1_Text>:
     872:	49 6e 70 75 74 20 32 00                             Input 2.

0000087a <Menu_Sensor0>:
     87a:	7f 08 81 08 80                                      .....

0000087f <Sensor0Function>:
     87f:	8d 10                                               ..

00000881 <Menu_Sensor0_Text>:
     881:	49 6e 70 75 74 20 31 00                             Input 1.

00000889 <Menu_SensorConfig>:
     889:	03 ba 08 ae 08 9c 08 00 00 00 00 00 00 00 00 00     ................
     899:	00 c8 08                                            ...

0000089c <Menu_Sensor_IOExpression>:
     89c:	a1 08 a3 08 80                                      .....

000008a1 <IOExpressionFunction>:
     8a1:	74 0f                                               t.

000008a3 <Menu_Sensor_IOExpression_Text>:
     8a3:	45 78 70 72 65 73 73 69 6f 6e 00                    Expression.

000008ae <Menu_Sensor_IOName>:
     8ae:	b3 08 b5 08 80                                      .....

000008b3 <IONameFunction>:
     8b3:	3c 0f                                               <.

000008b5 <Menu_Sensor_IOName_Text>:
     8b5:	4e 61 6d 65 00                                      Name.

000008ba <Menu_Sensor_IOSwitch>:
     8ba:	bf 08 c1 08 80                                      .....

000008bf <IOSwitchFunction>:
     8bf:	48 10                                               H.

000008c1 <Menu_Sensor_IOSwitch_Text>:
     8c1:	53 77 69 74 63 68 00                                Switch.

000008c8 <Menu_Sensors_Text>:
     8c8:	53 65 6e 73 6f 72 73 00                             Sensors.

000008d0 <Menu_Network>:
     8d0:	06 3b 09 28 09 18 09 07 09 f5 08 eb 08 00 00 00     .;.(............
     8e0:	00 e3 08                                            ...

000008e3 <Menu_Network_Text>:
     8e3:	4e 65 74 77 6f 72 6b 00                             Network.

000008eb <Menu_Network_Test>:
     8eb:	00 00 f0 08 80                                      .....

000008f0 <Menu_Network_Test_Text>:
     8f0:	54 65 73 74 00                                      Test.

000008f5 <Menu_Network_Connection>:
     8f5:	fa 08 fc 08 80                                      .....

000008fa <ConnectionFunction>:
     8fa:	1b 10                                               ..

000008fc <Menu_Network_Connection_Text>:
     8fc:	43 6f 6e 6e 65 63 74 69 6f 6e 00                    Connection.

00000907 <Menu_Network_Broker>:
     907:	0c 09 0e 09 80                                      .....

0000090c <BrokerFunction>:
     90c:	da 0f                                               ..

0000090e <Menu_Network_Broker_Text>:
     90e:	42 72 6f 6b 65 72 20 49 50 00                       Broker IP.

00000918 <Menu_Network_Password>:
     918:	1d 09 1f 09 80                                      .....

0000091d <PasswordFunction>:
     91d:	0e 0f                                               ..

0000091f <Menu_Network_Password_Text>:
     91f:	50 61 73 73 77 6f 72 64 00                          Password.

00000928 <Menu_Network_ManualSSID>:
     928:	2d 09 2f 09 80                                      -./..

0000092d <ManualSSIDFunction>:
     92d:	e2 0e                                               ..

0000092f <Menu_Network_ManualSSID_Text>:
     92f:	4d 61 6e 75 61 6c 20 53 53 49 44 00                 Manual SSID.

0000093b <Menu_Network_APScan>:
     93b:	40 09 42 09 80                                      @.B..

00000940 <APFunction>:
     940:	2c 11                                               ,.

00000942 <Menu_Network_AP_Text>:
     942:	53 63 61 6e 20 66 6f 72 20 41 50 73 00              Scan for APs.

0000094f <WlanSigStrong>:
     94f:	14 0a aa aa 0a 14                                   ......

00000955 <WlanSigGood>:
     955:	10 08 a8 a8 08 10                                   ......

0000095b <WlanSigWeak>:
     95b:	00 00 a0 a0 00 00                                   ......

00000961 <WlanSigVeryWeak>:
     961:	00 00 80 80 00 00                                   ......

00000967 <WlanOpen>:
     967:	f8 8e e9 a9 88 f8                                   ......

0000096d <WlanEncrypted>:
     96d:	f8 8e e9 a9 8e f8                                   ......

00000973 <__c.2433>:
     973:	43 4c 4f 53 45 44 00                                CLOSED.

0000097a <__c.2431>:
     97a:	57 49 46 49 20 44 49 53 43 4f 4e 4e 45 43 54 00     WIFI DISCONNECT.

0000098a <__c.2428>:
     98a:	2b 49 50 44 2c 00                                   +IPD,.

00000990 <__c.2425>:
     990:	3a 0d 0a 00                                         :...

00000994 <__c.2417>:
     994:	45 52 52 4f 52 00                                   ERROR.

0000099a <__c.2414>:
     99a:	46 41 49 4c 00                                      FAIL.

0000099f <__c.2412>:
     99f:	4e 4f 54 20 43 4f 4e 4e 45 43 54 45 44 00           NOT CONNECTED.

000009ad <__c.2410>:
     9ad:	57 49 46 49 20 44 49 53 43 4f 4e 4e 45 43 54 00     WIFI DISCONNECT.

000009bd <__c.2408>:
     9bd:	4f 4b 00                                            OK.

000009c0 <__c.2404>:
     9c0:	41 54 2b 43 49 50 43 4c 4f 53 45 0d 0a 00           AT+CIPCLOSE...

000009ce <__c.2398>:
     9ce:	45 52 52 4f 52 00                                   ERROR.

000009d4 <__c.2395>:
     9d4:	46 41 49 4c 00                                      FAIL.

000009d9 <__c.2393>:
     9d9:	4e 4f 54 20 43 4f 4e 4e 45 43 54 45 44 00           NOT CONNECTED.

000009e7 <__c.2391>:
     9e7:	57 49 46 49 20 44 49 53 43 4f 4e 4e 45 43 54 00     WIFI DISCONNECT.

000009f7 <__c.2389>:
     9f7:	4f 4b 00                                            OK.

000009fa <__c.2385>:
     9fa:	41 54 2b 43 57 51 41 50 0d 0a 00                    AT+CWQAP...

00000a05 <__c.2379>:
     a05:	45 52 52 4f 52 00                                   ERROR.

00000a0b <__c.2376>:
     a0b:	46 41 49 4c 00                                      FAIL.

00000a10 <__c.2374>:
     a10:	53 45 4e 44 20 4f 4b 00                             SEND OK.

00000a18 <__c.2370>:
     a18:	0d 0a 00                                            ...

00000a1b <__c.2368>:
     a1b:	0d 0a 00                                            ...

00000a1e <__c.2366>:
     a1e:	41 54 2b 43 49 50 53 45 4e 44 3d 00                 AT+CIPSEND=.

00000a2a <__c.2339>:
     a2a:	45 52 52 4f 52 00                                   ERROR.

00000a30 <__c.2336>:
     a30:	46 41 49 4c 00                                      FAIL.

00000a35 <__c.2334>:
     a35:	4f 4b 00                                            OK.

00000a38 <__c.2330>:
     a38:	0d 0a 00                                            ...

00000a3b <__c.2328>:
     a3b:	22 2c 00                                            ",.

00000a3e <__c.2326>:
     a3e:	41 54 2b 43 49 50 53 54 41 52 54 3d 22 54 43 50     AT+CIPSTART="TCP
     a4e:	22 2c 22 00                                         ",".

00000a52 <__c.2318>:
     a52:	45 52 52 4f 52 00                                   ERROR.

00000a58 <__c.2315>:
     a58:	46 41 49 4c 00                                      FAIL.

00000a5d <__c.2313>:
     a5d:	4f 4b 00                                            OK.

00000a60 <__c.2309>:
     a60:	22 0d 0a 00                                         "...

00000a64 <__c.2307>:
     a64:	22 2c 22 00                                         ",".

00000a68 <__c.2305>:
     a68:	41 54 2b 43 57 4a 41 50 3d 22 00                    AT+CWJAP=".

00000a73 <__c.2294>:
     a73:	28 29 2c 22 00                                      (),".

00000a78 <__c.2285>:
     a78:	28 29 2c 22 00                                      (),".

00000a7d <__c.2282>:
     a7d:	2b 43 57 4c 41 50 3a 00                             +CWLAP:.

00000a85 <__c.2280>:
     a85:	45 52 52 4f 52 00                                   ERROR.

00000a8b <__c.2277>:
     a8b:	4f 4b 00                                            OK.

00000a8e <__c.2273>:
     a8e:	41 54 2b 43 57 4c 41 50 0d 0a 00                    AT+CWLAP...

00000a99 <__c.2264>:
     a99:	4f 4b 00                                            OK.

00000a9c <__c.2262>:
     a9c:	41 54 45 30 0d 0a 00 00                             ATE0....

00000aa4 <__ctors_end>:
     aa4:	11 24       	eor	r1, r1
     aa6:	1f be       	out	0x3f, r1	; 63
     aa8:	cf ef       	ldi	r28, 0xFF	; 255
     aaa:	d8 e0       	ldi	r29, 0x08	; 8
     aac:	de bf       	out	0x3e, r29	; 62
     aae:	cd bf       	out	0x3d, r28	; 61

00000ab0 <__do_copy_data>:
     ab0:	11 e0       	ldi	r17, 0x01	; 1
     ab2:	a0 e0       	ldi	r26, 0x00	; 0
     ab4:	b1 e0       	ldi	r27, 0x01	; 1
     ab6:	ee ee       	ldi	r30, 0xEE	; 238
     ab8:	f6 e6       	ldi	r31, 0x66	; 102
     aba:	02 c0       	rjmp	.+4      	; 0xac0 <__do_copy_data+0x10>
     abc:	05 90       	lpm	r0, Z+
     abe:	0d 92       	st	X+, r0
     ac0:	ae 39       	cpi	r26, 0x9E	; 158
     ac2:	b1 07       	cpc	r27, r17
     ac4:	d9 f7       	brne	.-10     	; 0xabc <__do_copy_data+0xc>

00000ac6 <__do_clear_bss>:
     ac6:	24 e0       	ldi	r18, 0x04	; 4
     ac8:	ae e9       	ldi	r26, 0x9E	; 158
     aca:	b1 e0       	ldi	r27, 0x01	; 1
     acc:	01 c0       	rjmp	.+2      	; 0xad0 <.do_clear_bss_start>

00000ace <.do_clear_bss_loop>:
     ace:	1d 92       	st	X+, r1

00000ad0 <.do_clear_bss_start>:
     ad0:	a6 3b       	cpi	r26, 0xB6	; 182
     ad2:	b2 07       	cpc	r27, r18
     ad4:	e1 f7       	brne	.-8      	; 0xace <.do_clear_bss_loop>
     ad6:	0e 94 f6 13 	call	0x27ec	; 0x27ec <main>
     ada:	0c 94 75 33 	jmp	0x66ea	; 0x66ea <_exit>

00000ade <__bad_interrupt>:
     ade:	0c 94 00 00 	jmp	0	; 0x0 <__vectors>

00000ae2 <ADC_Init>:
     ae2:	10 92 7c 00 	sts	0x007C, r1	; 0x80007c <__DATA_REGION_ORIGIN__+0x1c>
     ae6:	87 e8       	ldi	r24, 0x87	; 135
     ae8:	80 93 7a 00 	sts	0x007A, r24	; 0x80007a <__DATA_REGION_ORIGIN__+0x1a>
     aec:	08 95       	ret

00000aee <ADC_Read>:
     aee:	80 93 7c 00 	sts	0x007C, r24	; 0x80007c <__DATA_REGION_ORIGIN__+0x1c>
     af2:	80 91 7a 00 	lds	r24, 0x007A	; 0x80007a <__DATA_REGION_ORIGIN__+0x1a>
     af6:	80 64       	ori	r24, 0x40	; 64
     af8:	80 93 7a 00 	sts	0x007A, r24	; 0x80007a <__DATA_REGION_ORIGIN__+0x1a>
     afc:	80 91 7a 00 	lds	r24, 0x007A	; 0x80007a <__DATA_REGION_ORIGIN__+0x1a>
     b00:	86 fd       	sbrc	r24, 6
     b02:	fc cf       	rjmp	.-8      	; 0xafc <ADC_Read+0xe>
     b04:	80 91 78 00 	lds	r24, 0x0078	; 0x800078 <__DATA_REGION_ORIGIN__+0x18>
     b08:	90 91 79 00 	lds	r25, 0x0079	; 0x800079 <__DATA_REGION_ORIGIN__+0x19>
     b0c:	08 95       	ret

00000b0e <ADC_Oversample>:
     b0e:	cf 92       	push	r12
     b10:	df 92       	push	r13
     b12:	ef 92       	push	r14
     b14:	ff 92       	push	r15
     b16:	0f 93       	push	r16
     b18:	1f 93       	push	r17
     b1a:	cf 93       	push	r28
     b1c:	df 93       	push	r29
     b1e:	08 2f       	mov	r16, r24
     b20:	16 2f       	mov	r17, r22
     b22:	86 2f       	mov	r24, r22
     b24:	d1 e0       	ldi	r29, 0x01	; 1
     b26:	88 23       	and	r24, r24
     b28:	21 f0       	breq	.+8      	; 0xb32 <ADC_Oversample+0x24>
     b2a:	dd 0f       	add	r29, r29
     b2c:	dd 0f       	add	r29, r29
     b2e:	81 50       	subi	r24, 0x01	; 1
     b30:	fa cf       	rjmp	.-12     	; 0xb26 <ADC_Oversample+0x18>
     b32:	c0 e0       	ldi	r28, 0x00	; 0
     b34:	c1 2c       	mov	r12, r1
     b36:	d1 2c       	mov	r13, r1
     b38:	76 01       	movw	r14, r12
     b3a:	dc 17       	cp	r29, r28
     b3c:	49 f0       	breq	.+18     	; 0xb50 <ADC_Oversample+0x42>
     b3e:	80 2f       	mov	r24, r16
     b40:	0e 94 77 05 	call	0xaee	; 0xaee <ADC_Read>
     b44:	c8 0e       	add	r12, r24
     b46:	d9 1e       	adc	r13, r25
     b48:	e1 1c       	adc	r14, r1
     b4a:	f1 1c       	adc	r15, r1
     b4c:	cf 5f       	subi	r28, 0xFF	; 255
     b4e:	f5 cf       	rjmp	.-22     	; 0xb3a <ADC_Oversample+0x2c>
     b50:	d7 01       	movw	r26, r14
     b52:	c6 01       	movw	r24, r12
     b54:	04 c0       	rjmp	.+8      	; 0xb5e <ADC_Oversample+0x50>
     b56:	b6 95       	lsr	r27
     b58:	a7 95       	ror	r26
     b5a:	97 95       	ror	r25
     b5c:	87 95       	ror	r24
     b5e:	1a 95       	dec	r17
     b60:	d2 f7       	brpl	.-12     	; 0xb56 <ADC_Oversample+0x48>
     b62:	df 91       	pop	r29
     b64:	cf 91       	pop	r28
     b66:	1f 91       	pop	r17
     b68:	0f 91       	pop	r16
     b6a:	ff 90       	pop	r15
     b6c:	ef 90       	pop	r14
     b6e:	df 90       	pop	r13
     b70:	cf 90       	pop	r12
     b72:	08 95       	ret

00000b74 <ADC_LinearV2U>:
     b74:	4f 92       	push	r4
     b76:	5f 92       	push	r5
     b78:	6f 92       	push	r6
     b7a:	7f 92       	push	r7
     b7c:	af 92       	push	r10
     b7e:	bf 92       	push	r11
     b80:	cf 92       	push	r12
     b82:	df 92       	push	r13
     b84:	ef 92       	push	r14
     b86:	ff 92       	push	r15
     b88:	0f 93       	push	r16
     b8a:	1f 93       	push	r17
     b8c:	cf 93       	push	r28
     b8e:	df 93       	push	r29
     b90:	cd b7       	in	r28, 0x3d	; 61
     b92:	de b7       	in	r29, 0x3e	; 62
     b94:	2a 97       	sbiw	r28, 0x0a	; 10
     b96:	0f b6       	in	r0, 0x3f	; 63
     b98:	f8 94       	cli
     b9a:	de bf       	out	0x3e, r29	; 62
     b9c:	0f be       	out	0x3f, r0	; 63
     b9e:	cd bf       	out	0x3d, r28	; 61
     ba0:	7a 87       	std	Y+10, r23	; 0x0a
     ba2:	69 87       	std	Y+9, r22	; 0x09
     ba4:	29 01       	movw	r4, r18
     ba6:	3a 01       	movw	r6, r20
     ba8:	e9 82       	std	Y+1, r14	; 0x01
     baa:	fa 82       	std	Y+2, r15	; 0x02
     bac:	0b 83       	std	Y+3, r16	; 0x03
     bae:	1c 83       	std	Y+4, r17	; 0x04
     bb0:	bc 01       	movw	r22, r24
     bb2:	80 e0       	ldi	r24, 0x00	; 0
     bb4:	90 e0       	ldi	r25, 0x00	; 0
     bb6:	0e 94 ce 26 	call	0x4d9c	; 0x4d9c <__floatunsisf>
     bba:	6d 83       	std	Y+5, r22	; 0x05
     bbc:	7e 83       	std	Y+6, r23	; 0x06
     bbe:	8f 83       	std	Y+7, r24	; 0x07
     bc0:	98 87       	std	Y+8, r25	; 0x08
     bc2:	29 85       	ldd	r18, Y+9	; 0x09
     bc4:	3a 85       	ldd	r19, Y+10	; 0x0a
     bc6:	b9 01       	movw	r22, r18
     bc8:	33 0f       	add	r19, r19
     bca:	88 0b       	sbc	r24, r24
     bcc:	99 0b       	sbc	r25, r25
     bce:	0e 94 d0 26 	call	0x4da0	; 0x4da0 <__floatsisf>
     bd2:	9b 01       	movw	r18, r22
     bd4:	ac 01       	movw	r20, r24
     bd6:	6d 81       	ldd	r22, Y+5	; 0x05
     bd8:	7e 81       	ldd	r23, Y+6	; 0x06
     bda:	8f 81       	ldd	r24, Y+7	; 0x07
     bdc:	98 85       	ldd	r25, Y+8	; 0x08
     bde:	0e 94 5c 26 	call	0x4cb8	; 0x4cb8 <__divsf3>
     be2:	a3 01       	movw	r20, r6
     be4:	92 01       	movw	r18, r4
     be6:	0e 94 37 28 	call	0x506e	; 0x506e <__mulsf3>
     bea:	a6 01       	movw	r20, r12
     bec:	95 01       	movw	r18, r10
     bee:	0e 94 ea 25 	call	0x4bd4	; 0x4bd4 <__subsf3>
     bf2:	a8 01       	movw	r20, r16
     bf4:	97 01       	movw	r18, r14
     bf6:	0e 94 5c 26 	call	0x4cb8	; 0x4cb8 <__divsf3>
     bfa:	2a 96       	adiw	r28, 0x0a	; 10
     bfc:	0f b6       	in	r0, 0x3f	; 63
     bfe:	f8 94       	cli
     c00:	de bf       	out	0x3e, r29	; 62
     c02:	0f be       	out	0x3f, r0	; 63
     c04:	cd bf       	out	0x3d, r28	; 61
     c06:	df 91       	pop	r29
     c08:	cf 91       	pop	r28
     c0a:	1f 91       	pop	r17
     c0c:	0f 91       	pop	r16
     c0e:	ff 90       	pop	r15
     c10:	ef 90       	pop	r14
     c12:	df 90       	pop	r13
     c14:	cf 90       	pop	r12
     c16:	bf 90       	pop	r11
     c18:	af 90       	pop	r10
     c1a:	7f 90       	pop	r7
     c1c:	6f 90       	pop	r6
     c1e:	5f 90       	pop	r5
     c20:	4f 90       	pop	r4
     c22:	08 95       	ret

00000c24 <__vector_16>:
     c24:	1f 92       	push	r1
     c26:	0f 92       	push	r0
     c28:	0f b6       	in	r0, 0x3f	; 63
     c2a:	0f 92       	push	r0
     c2c:	11 24       	eor	r1, r1
     c2e:	2f 93       	push	r18
     c30:	8f 93       	push	r24
     c32:	9f 93       	push	r25
     c34:	89 b1       	in	r24, 0x09	; 9
     c36:	90 91 a8 01 	lds	r25, 0x01A8	; 0x8001a8 <DbOK>
     c3a:	96 fb       	bst	r25, 6
     c3c:	99 27       	eor	r25, r25
     c3e:	90 f9       	bld	r25, 0
     c40:	80 95       	com	r24
     c42:	88 1f       	adc	r24, r24
     c44:	88 27       	eor	r24, r24
     c46:	88 1f       	adc	r24, r24
     c48:	98 17       	cp	r25, r24
     c4a:	31 f1       	breq	.+76     	; 0xc98 <__vector_16+0x74>
     c4c:	80 91 a8 01 	lds	r24, 0x01A8	; 0x8001a8 <DbOK>
     c50:	8f 5f       	subi	r24, 0xFF	; 255
     c52:	98 2f       	mov	r25, r24
     c54:	9f 73       	andi	r25, 0x3F	; 63
     c56:	80 91 a8 01 	lds	r24, 0x01A8	; 0x8001a8 <DbOK>
     c5a:	80 7c       	andi	r24, 0xC0	; 192
     c5c:	89 2b       	or	r24, r25
     c5e:	80 93 a8 01 	sts	0x01A8, r24	; 0x8001a8 <DbOK>
     c62:	80 91 a8 01 	lds	r24, 0x01A8	; 0x8001a8 <DbOK>
     c66:	8f 73       	andi	r24, 0x3F	; 63
     c68:	8f 33       	cpi	r24, 0x3F	; 63
     c6a:	d9 f4       	brne	.+54     	; 0xca2 <__vector_16+0x7e>
     c6c:	80 91 a8 01 	lds	r24, 0x01A8	; 0x8001a8 <DbOK>
     c70:	80 7c       	andi	r24, 0xC0	; 192
     c72:	80 93 a8 01 	sts	0x01A8, r24	; 0x8001a8 <DbOK>
     c76:	80 91 a8 01 	lds	r24, 0x01A8	; 0x8001a8 <DbOK>
     c7a:	80 68       	ori	r24, 0x80	; 128
     c7c:	80 93 a8 01 	sts	0x01A8, r24	; 0x8001a8 <DbOK>
     c80:	89 b1       	in	r24, 0x09	; 9
     c82:	80 95       	com	r24
     c84:	88 1f       	adc	r24, r24
     c86:	88 27       	eor	r24, r24
     c88:	88 1f       	adc	r24, r24
     c8a:	90 91 a8 01 	lds	r25, 0x01A8	; 0x8001a8 <DbOK>
     c8e:	80 fb       	bst	r24, 0
     c90:	96 f9       	bld	r25, 6
     c92:	90 93 a8 01 	sts	0x01A8, r25	; 0x8001a8 <DbOK>
     c96:	05 c0       	rjmp	.+10     	; 0xca2 <__vector_16+0x7e>
     c98:	80 91 a8 01 	lds	r24, 0x01A8	; 0x8001a8 <DbOK>
     c9c:	80 7c       	andi	r24, 0xC0	; 192
     c9e:	80 93 a8 01 	sts	0x01A8, r24	; 0x8001a8 <DbOK>
     ca2:	83 b1       	in	r24, 0x03	; 3
     ca4:	81 70       	andi	r24, 0x01	; 1
     ca6:	21 e0       	ldi	r18, 0x01	; 1
     ca8:	82 27       	eor	r24, r18
     caa:	90 91 aa 01 	lds	r25, 0x01AA	; 0x8001aa <DbReturn>
     cae:	96 fb       	bst	r25, 6
     cb0:	99 27       	eor	r25, r25
     cb2:	90 f9       	bld	r25, 0
     cb4:	98 17       	cp	r25, r24
     cb6:	11 f1       	breq	.+68     	; 0xcfc <__vector_16+0xd8>
     cb8:	80 91 aa 01 	lds	r24, 0x01AA	; 0x8001aa <DbReturn>
     cbc:	8f 5f       	subi	r24, 0xFF	; 255
     cbe:	98 2f       	mov	r25, r24
     cc0:	9f 73       	andi	r25, 0x3F	; 63
     cc2:	80 91 aa 01 	lds	r24, 0x01AA	; 0x8001aa <DbReturn>
     cc6:	80 7c       	andi	r24, 0xC0	; 192
     cc8:	89 2b       	or	r24, r25
     cca:	80 93 aa 01 	sts	0x01AA, r24	; 0x8001aa <DbReturn>
     cce:	80 91 aa 01 	lds	r24, 0x01AA	; 0x8001aa <DbReturn>
     cd2:	8f 73       	andi	r24, 0x3F	; 63
     cd4:	8f 33       	cpi	r24, 0x3F	; 63
     cd6:	b9 f4       	brne	.+46     	; 0xd06 <__vector_16+0xe2>
     cd8:	80 91 aa 01 	lds	r24, 0x01AA	; 0x8001aa <DbReturn>
     cdc:	80 7c       	andi	r24, 0xC0	; 192
     cde:	80 93 aa 01 	sts	0x01AA, r24	; 0x8001aa <DbReturn>
     ce2:	80 91 aa 01 	lds	r24, 0x01AA	; 0x8001aa <DbReturn>
     ce6:	80 68       	ori	r24, 0x80	; 128
     ce8:	80 93 aa 01 	sts	0x01AA, r24	; 0x8001aa <DbReturn>
     cec:	83 b1       	in	r24, 0x03	; 3
     cee:	81 70       	andi	r24, 0x01	; 1
     cf0:	28 27       	eor	r18, r24
     cf2:	80 91 aa 01 	lds	r24, 0x01AA	; 0x8001aa <DbReturn>
     cf6:	20 fb       	bst	r18, 0
     cf8:	86 f9       	bld	r24, 6
     cfa:	03 c0       	rjmp	.+6      	; 0xd02 <__vector_16+0xde>
     cfc:	80 91 aa 01 	lds	r24, 0x01AA	; 0x8001aa <DbReturn>
     d00:	80 7c       	andi	r24, 0xC0	; 192
     d02:	80 93 aa 01 	sts	0x01AA, r24	; 0x8001aa <DbReturn>
     d06:	89 b1       	in	r24, 0x09	; 9
     d08:	90 91 a7 01 	lds	r25, 0x01A7	; 0x8001a7 <DbRight>
     d0c:	96 fb       	bst	r25, 6
     d0e:	99 27       	eor	r25, r25
     d10:	90 f9       	bld	r25, 0
     d12:	21 e0       	ldi	r18, 0x01	; 1
     d14:	82 95       	swap	r24
     d16:	81 70       	andi	r24, 0x01	; 1
     d18:	82 27       	eor	r24, r18
     d1a:	98 17       	cp	r25, r24
     d1c:	19 f1       	breq	.+70     	; 0xd64 <__vector_16+0x140>
     d1e:	80 91 a7 01 	lds	r24, 0x01A7	; 0x8001a7 <DbRight>
     d22:	8f 5f       	subi	r24, 0xFF	; 255
     d24:	98 2f       	mov	r25, r24
     d26:	9f 73       	andi	r25, 0x3F	; 63
     d28:	80 91 a7 01 	lds	r24, 0x01A7	; 0x8001a7 <DbRight>
     d2c:	80 7c       	andi	r24, 0xC0	; 192
     d2e:	89 2b       	or	r24, r25
     d30:	80 93 a7 01 	sts	0x01A7, r24	; 0x8001a7 <DbRight>
     d34:	80 91 a7 01 	lds	r24, 0x01A7	; 0x8001a7 <DbRight>
     d38:	8f 73       	andi	r24, 0x3F	; 63
     d3a:	8f 33       	cpi	r24, 0x3F	; 63
     d3c:	c1 f4       	brne	.+48     	; 0xd6e <__vector_16+0x14a>
     d3e:	80 91 a7 01 	lds	r24, 0x01A7	; 0x8001a7 <DbRight>
     d42:	80 7c       	andi	r24, 0xC0	; 192
     d44:	80 93 a7 01 	sts	0x01A7, r24	; 0x8001a7 <DbRight>
     d48:	80 91 a7 01 	lds	r24, 0x01A7	; 0x8001a7 <DbRight>
     d4c:	80 68       	ori	r24, 0x80	; 128
     d4e:	80 93 a7 01 	sts	0x01A7, r24	; 0x8001a7 <DbRight>
     d52:	89 b1       	in	r24, 0x09	; 9
     d54:	82 95       	swap	r24
     d56:	81 70       	andi	r24, 0x01	; 1
     d58:	28 27       	eor	r18, r24
     d5a:	80 91 a7 01 	lds	r24, 0x01A7	; 0x8001a7 <DbRight>
     d5e:	20 fb       	bst	r18, 0
     d60:	86 f9       	bld	r24, 6
     d62:	03 c0       	rjmp	.+6      	; 0xd6a <__vector_16+0x146>
     d64:	80 91 a7 01 	lds	r24, 0x01A7	; 0x8001a7 <DbRight>
     d68:	80 7c       	andi	r24, 0xC0	; 192
     d6a:	80 93 a7 01 	sts	0x01A7, r24	; 0x8001a7 <DbRight>
     d6e:	89 b1       	in	r24, 0x09	; 9
     d70:	90 91 ac 01 	lds	r25, 0x01AC	; 0x8001ac <DbDown>
     d74:	96 fb       	bst	r25, 6
     d76:	99 27       	eor	r25, r25
     d78:	90 f9       	bld	r25, 0
     d7a:	21 e0       	ldi	r18, 0x01	; 1
     d7c:	86 fb       	bst	r24, 6
     d7e:	88 27       	eor	r24, r24
     d80:	80 f9       	bld	r24, 0
     d82:	82 27       	eor	r24, r18
     d84:	98 17       	cp	r25, r24
     d86:	21 f1       	breq	.+72     	; 0xdd0 <__vector_16+0x1ac>
     d88:	80 91 ac 01 	lds	r24, 0x01AC	; 0x8001ac <DbDown>
     d8c:	8f 5f       	subi	r24, 0xFF	; 255
     d8e:	98 2f       	mov	r25, r24
     d90:	9f 73       	andi	r25, 0x3F	; 63
     d92:	80 91 ac 01 	lds	r24, 0x01AC	; 0x8001ac <DbDown>
     d96:	80 7c       	andi	r24, 0xC0	; 192
     d98:	89 2b       	or	r24, r25
     d9a:	80 93 ac 01 	sts	0x01AC, r24	; 0x8001ac <DbDown>
     d9e:	80 91 ac 01 	lds	r24, 0x01AC	; 0x8001ac <DbDown>
     da2:	8f 73       	andi	r24, 0x3F	; 63
     da4:	8f 33       	cpi	r24, 0x3F	; 63
     da6:	c9 f4       	brne	.+50     	; 0xdda <__vector_16+0x1b6>
     da8:	80 91 ac 01 	lds	r24, 0x01AC	; 0x8001ac <DbDown>
     dac:	80 7c       	andi	r24, 0xC0	; 192
     dae:	80 93 ac 01 	sts	0x01AC, r24	; 0x8001ac <DbDown>
     db2:	80 91 ac 01 	lds	r24, 0x01AC	; 0x8001ac <DbDown>
     db6:	80 68       	ori	r24, 0x80	; 128
     db8:	80 93 ac 01 	sts	0x01AC, r24	; 0x8001ac <DbDown>
     dbc:	89 b1       	in	r24, 0x09	; 9
     dbe:	86 fb       	bst	r24, 6
     dc0:	88 27       	eor	r24, r24
     dc2:	80 f9       	bld	r24, 0
     dc4:	28 27       	eor	r18, r24
     dc6:	80 91 ac 01 	lds	r24, 0x01AC	; 0x8001ac <DbDown>
     dca:	20 fb       	bst	r18, 0
     dcc:	86 f9       	bld	r24, 6
     dce:	03 c0       	rjmp	.+6      	; 0xdd6 <__vector_16+0x1b2>
     dd0:	80 91 ac 01 	lds	r24, 0x01AC	; 0x8001ac <DbDown>
     dd4:	80 7c       	andi	r24, 0xC0	; 192
     dd6:	80 93 ac 01 	sts	0x01AC, r24	; 0x8001ac <DbDown>
     dda:	89 b1       	in	r24, 0x09	; 9
     ddc:	90 91 a9 01 	lds	r25, 0x01A9	; 0x8001a9 <DbUp>
     de0:	96 fb       	bst	r25, 6
     de2:	99 27       	eor	r25, r25
     de4:	90 f9       	bld	r25, 0
     de6:	21 e0       	ldi	r18, 0x01	; 1
     de8:	85 fb       	bst	r24, 5
     dea:	88 27       	eor	r24, r24
     dec:	80 f9       	bld	r24, 0
     dee:	82 27       	eor	r24, r18
     df0:	98 17       	cp	r25, r24
     df2:	21 f1       	breq	.+72     	; 0xe3c <__vector_16+0x218>
     df4:	80 91 a9 01 	lds	r24, 0x01A9	; 0x8001a9 <DbUp>
     df8:	8f 5f       	subi	r24, 0xFF	; 255
     dfa:	98 2f       	mov	r25, r24
     dfc:	9f 73       	andi	r25, 0x3F	; 63
     dfe:	80 91 a9 01 	lds	r24, 0x01A9	; 0x8001a9 <DbUp>
     e02:	80 7c       	andi	r24, 0xC0	; 192
     e04:	89 2b       	or	r24, r25
     e06:	80 93 a9 01 	sts	0x01A9, r24	; 0x8001a9 <DbUp>
     e0a:	80 91 a9 01 	lds	r24, 0x01A9	; 0x8001a9 <DbUp>
     e0e:	8f 73       	andi	r24, 0x3F	; 63
     e10:	8f 33       	cpi	r24, 0x3F	; 63
     e12:	c9 f4       	brne	.+50     	; 0xe46 <__vector_16+0x222>
     e14:	80 91 a9 01 	lds	r24, 0x01A9	; 0x8001a9 <DbUp>
     e18:	80 7c       	andi	r24, 0xC0	; 192
     e1a:	80 93 a9 01 	sts	0x01A9, r24	; 0x8001a9 <DbUp>
     e1e:	80 91 a9 01 	lds	r24, 0x01A9	; 0x8001a9 <DbUp>
     e22:	80 68       	ori	r24, 0x80	; 128
     e24:	80 93 a9 01 	sts	0x01A9, r24	; 0x8001a9 <DbUp>
     e28:	89 b1       	in	r24, 0x09	; 9
     e2a:	85 fb       	bst	r24, 5
     e2c:	88 27       	eor	r24, r24
     e2e:	80 f9       	bld	r24, 0
     e30:	28 27       	eor	r18, r24
     e32:	80 91 a9 01 	lds	r24, 0x01A9	; 0x8001a9 <DbUp>
     e36:	20 fb       	bst	r18, 0
     e38:	86 f9       	bld	r24, 6
     e3a:	03 c0       	rjmp	.+6      	; 0xe42 <__vector_16+0x21e>
     e3c:	80 91 a9 01 	lds	r24, 0x01A9	; 0x8001a9 <DbUp>
     e40:	80 7c       	andi	r24, 0xC0	; 192
     e42:	80 93 a9 01 	sts	0x01A9, r24	; 0x8001a9 <DbUp>
     e46:	89 b1       	in	r24, 0x09	; 9
     e48:	90 91 ab 01 	lds	r25, 0x01AB	; 0x8001ab <DbLeft>
     e4c:	96 fb       	bst	r25, 6
     e4e:	99 27       	eor	r25, r25
     e50:	90 f9       	bld	r25, 0
     e52:	21 e0       	ldi	r18, 0x01	; 1
     e54:	82 fb       	bst	r24, 2
     e56:	88 27       	eor	r24, r24
     e58:	80 f9       	bld	r24, 0
     e5a:	82 27       	eor	r24, r18
     e5c:	98 17       	cp	r25, r24
     e5e:	21 f1       	breq	.+72     	; 0xea8 <__vector_16+0x284>
     e60:	80 91 ab 01 	lds	r24, 0x01AB	; 0x8001ab <DbLeft>
     e64:	8f 5f       	subi	r24, 0xFF	; 255
     e66:	98 2f       	mov	r25, r24
     e68:	9f 73       	andi	r25, 0x3F	; 63
     e6a:	80 91 ab 01 	lds	r24, 0x01AB	; 0x8001ab <DbLeft>
     e6e:	80 7c       	andi	r24, 0xC0	; 192
     e70:	89 2b       	or	r24, r25
     e72:	80 93 ab 01 	sts	0x01AB, r24	; 0x8001ab <DbLeft>
     e76:	80 91 ab 01 	lds	r24, 0x01AB	; 0x8001ab <DbLeft>
     e7a:	8f 73       	andi	r24, 0x3F	; 63
     e7c:	8f 33       	cpi	r24, 0x3F	; 63
     e7e:	c9 f4       	brne	.+50     	; 0xeb2 <__vector_16+0x28e>
     e80:	80 91 ab 01 	lds	r24, 0x01AB	; 0x8001ab <DbLeft>
     e84:	80 7c       	andi	r24, 0xC0	; 192
     e86:	80 93 ab 01 	sts	0x01AB, r24	; 0x8001ab <DbLeft>
     e8a:	80 91 ab 01 	lds	r24, 0x01AB	; 0x8001ab <DbLeft>
     e8e:	80 68       	ori	r24, 0x80	; 128
     e90:	80 93 ab 01 	sts	0x01AB, r24	; 0x8001ab <DbLeft>
     e94:	89 b1       	in	r24, 0x09	; 9
     e96:	82 fb       	bst	r24, 2
     e98:	88 27       	eor	r24, r24
     e9a:	80 f9       	bld	r24, 0
     e9c:	28 27       	eor	r18, r24
     e9e:	80 91 ab 01 	lds	r24, 0x01AB	; 0x8001ab <DbLeft>
     ea2:	20 fb       	bst	r18, 0
     ea4:	86 f9       	bld	r24, 6
     ea6:	03 c0       	rjmp	.+6      	; 0xeae <__vector_16+0x28a>
     ea8:	80 91 ab 01 	lds	r24, 0x01AB	; 0x8001ab <DbLeft>
     eac:	80 7c       	andi	r24, 0xC0	; 192
     eae:	80 93 ab 01 	sts	0x01AB, r24	; 0x8001ab <DbLeft>
     eb2:	9f 91       	pop	r25
     eb4:	8f 91       	pop	r24
     eb6:	2f 91       	pop	r18
     eb8:	0f 90       	pop	r0
     eba:	0f be       	out	0x3f, r0	; 63
     ebc:	0f 90       	pop	r0
     ebe:	1f 90       	pop	r1
     ec0:	18 95       	reti

00000ec2 <SetupButtons>:
     ec2:	85 b5       	in	r24, 0x25	; 37
     ec4:	82 60       	ori	r24, 0x02	; 2
     ec6:	85 bd       	out	0x25, r24	; 37
     ec8:	ee e6       	ldi	r30, 0x6E	; 110
     eca:	f0 e0       	ldi	r31, 0x00	; 0
     ecc:	80 81       	ld	r24, Z
     ece:	81 60       	ori	r24, 0x01	; 1
     ed0:	80 83       	st	Z, r24
     ed2:	57 98       	cbi	0x0a, 7	; 10
     ed4:	5f 9a       	sbi	0x0b, 7	; 11
     ed6:	20 98       	cbi	0x04, 0	; 4
     ed8:	28 9a       	sbi	0x05, 0	; 5
     eda:	54 98       	cbi	0x0a, 4	; 10
     edc:	5c 9a       	sbi	0x0b, 4	; 11
     ede:	56 98       	cbi	0x0a, 6	; 10
     ee0:	5e 9a       	sbi	0x0b, 6	; 11
     ee2:	55 98       	cbi	0x0a, 5	; 10
     ee4:	5d 9a       	sbi	0x0b, 5	; 11
     ee6:	52 98       	cbi	0x0a, 2	; 10
     ee8:	5a 9a       	sbi	0x0b, 2	; 11
     eea:	80 91 a8 01 	lds	r24, 0x01A8	; 0x8001a8 <DbOK>
     eee:	80 7c       	andi	r24, 0xC0	; 192
     ef0:	80 93 a8 01 	sts	0x01A8, r24	; 0x8001a8 <DbOK>
     ef4:	80 91 a8 01 	lds	r24, 0x01A8	; 0x8001a8 <DbOK>
     ef8:	8f 7b       	andi	r24, 0xBF	; 191
     efa:	80 93 a8 01 	sts	0x01A8, r24	; 0x8001a8 <DbOK>
     efe:	80 91 a8 01 	lds	r24, 0x01A8	; 0x8001a8 <DbOK>
     f02:	8f 77       	andi	r24, 0x7F	; 127
     f04:	80 93 a8 01 	sts	0x01A8, r24	; 0x8001a8 <DbOK>
     f08:	80 91 aa 01 	lds	r24, 0x01AA	; 0x8001aa <DbReturn>
     f0c:	80 7c       	andi	r24, 0xC0	; 192
     f0e:	80 93 aa 01 	sts	0x01AA, r24	; 0x8001aa <DbReturn>
     f12:	80 91 aa 01 	lds	r24, 0x01AA	; 0x8001aa <DbReturn>
     f16:	8f 7b       	andi	r24, 0xBF	; 191
     f18:	80 93 aa 01 	sts	0x01AA, r24	; 0x8001aa <DbReturn>
     f1c:	80 91 aa 01 	lds	r24, 0x01AA	; 0x8001aa <DbReturn>
     f20:	8f 77       	andi	r24, 0x7F	; 127
     f22:	80 93 aa 01 	sts	0x01AA, r24	; 0x8001aa <DbReturn>
     f26:	80 91 a7 01 	lds	r24, 0x01A7	; 0x8001a7 <DbRight>
     f2a:	80 7c       	andi	r24, 0xC0	; 192
     f2c:	80 93 a7 01 	sts	0x01A7, r24	; 0x8001a7 <DbRight>
     f30:	80 91 a7 01 	lds	r24, 0x01A7	; 0x8001a7 <DbRight>
     f34:	8f 7b       	andi	r24, 0xBF	; 191
     f36:	80 93 a7 01 	sts	0x01A7, r24	; 0x8001a7 <DbRight>
     f3a:	80 91 a7 01 	lds	r24, 0x01A7	; 0x8001a7 <DbRight>
     f3e:	8f 77       	andi	r24, 0x7F	; 127
     f40:	80 93 a7 01 	sts	0x01A7, r24	; 0x8001a7 <DbRight>
     f44:	80 91 ac 01 	lds	r24, 0x01AC	; 0x8001ac <DbDown>
     f48:	80 7c       	andi	r24, 0xC0	; 192
     f4a:	80 93 ac 01 	sts	0x01AC, r24	; 0x8001ac <DbDown>
     f4e:	80 91 ac 01 	lds	r24, 0x01AC	; 0x8001ac <DbDown>
     f52:	8f 7b       	andi	r24, 0xBF	; 191
     f54:	80 93 ac 01 	sts	0x01AC, r24	; 0x8001ac <DbDown>
     f58:	80 91 ac 01 	lds	r24, 0x01AC	; 0x8001ac <DbDown>
     f5c:	8f 77       	andi	r24, 0x7F	; 127
     f5e:	80 93 ac 01 	sts	0x01AC, r24	; 0x8001ac <DbDown>
     f62:	80 91 a9 01 	lds	r24, 0x01A9	; 0x8001a9 <DbUp>
     f66:	80 7c       	andi	r24, 0xC0	; 192
     f68:	80 93 a9 01 	sts	0x01A9, r24	; 0x8001a9 <DbUp>
     f6c:	80 91 a9 01 	lds	r24, 0x01A9	; 0x8001a9 <DbUp>
     f70:	8f 7b       	andi	r24, 0xBF	; 191
     f72:	80 93 a9 01 	sts	0x01A9, r24	; 0x8001a9 <DbUp>
     f76:	80 91 a9 01 	lds	r24, 0x01A9	; 0x8001a9 <DbUp>
     f7a:	8f 77       	andi	r24, 0x7F	; 127
     f7c:	80 93 a9 01 	sts	0x01A9, r24	; 0x8001a9 <DbUp>
     f80:	80 91 ab 01 	lds	r24, 0x01AB	; 0x8001ab <DbLeft>
     f84:	80 7c       	andi	r24, 0xC0	; 192
     f86:	80 93 ab 01 	sts	0x01AB, r24	; 0x8001ab <DbLeft>
     f8a:	80 91 ab 01 	lds	r24, 0x01AB	; 0x8001ab <DbLeft>
     f8e:	8f 7b       	andi	r24, 0xBF	; 191
     f90:	80 93 ab 01 	sts	0x01AB, r24	; 0x8001ab <DbLeft>
     f94:	80 91 ab 01 	lds	r24, 0x01AB	; 0x8001ab <DbLeft>
     f98:	8f 77       	andi	r24, 0x7F	; 127
     f9a:	80 93 ab 01 	sts	0x01AB, r24	; 0x8001ab <DbLeft>
     f9e:	78 94       	sei
     fa0:	08 95       	ret

00000fa2 <Button_OK_Pressed>:
     fa2:	80 91 a8 01 	lds	r24, 0x01A8	; 0x8001a8 <DbOK>
     fa6:	87 ff       	sbrs	r24, 7
     fa8:	0b c0       	rjmp	.+22     	; 0xfc0 <Button_OK_Pressed+0x1e>
     faa:	80 91 a8 01 	lds	r24, 0x01A8	; 0x8001a8 <DbOK>
     fae:	8f 77       	andi	r24, 0x7F	; 127
     fb0:	80 93 a8 01 	sts	0x01A8, r24	; 0x8001a8 <DbOK>
     fb4:	80 91 a8 01 	lds	r24, 0x01A8	; 0x8001a8 <DbOK>
     fb8:	86 fb       	bst	r24, 6
     fba:	88 27       	eor	r24, r24
     fbc:	80 f9       	bld	r24, 0
     fbe:	08 95       	ret
     fc0:	80 e0       	ldi	r24, 0x00	; 0
     fc2:	08 95       	ret

00000fc4 <Button_Return_Pressed>:
     fc4:	80 91 aa 01 	lds	r24, 0x01AA	; 0x8001aa <DbReturn>
     fc8:	87 ff       	sbrs	r24, 7
     fca:	0b c0       	rjmp	.+22     	; 0xfe2 <Button_Return_Pressed+0x1e>
     fcc:	80 91 aa 01 	lds	r24, 0x01AA	; 0x8001aa <DbReturn>
     fd0:	8f 77       	andi	r24, 0x7F	; 127
     fd2:	80 93 aa 01 	sts	0x01AA, r24	; 0x8001aa <DbReturn>
     fd6:	80 91 aa 01 	lds	r24, 0x01AA	; 0x8001aa <DbReturn>
     fda:	86 fb       	bst	r24, 6
     fdc:	88 27       	eor	r24, r24
     fde:	80 f9       	bld	r24, 0
     fe0:	08 95       	ret
     fe2:	80 e0       	ldi	r24, 0x00	; 0
     fe4:	08 95       	ret

00000fe6 <Button_Right_Pressed>:
     fe6:	80 91 a7 01 	lds	r24, 0x01A7	; 0x8001a7 <DbRight>
     fea:	87 ff       	sbrs	r24, 7
     fec:	0b c0       	rjmp	.+22     	; 0x1004 <Button_Right_Pressed+0x1e>
     fee:	80 91 a7 01 	lds	r24, 0x01A7	; 0x8001a7 <DbRight>
     ff2:	8f 77       	andi	r24, 0x7F	; 127
     ff4:	80 93 a7 01 	sts	0x01A7, r24	; 0x8001a7 <DbRight>
     ff8:	80 91 a7 01 	lds	r24, 0x01A7	; 0x8001a7 <DbRight>
     ffc:	86 fb       	bst	r24, 6
     ffe:	88 27       	eor	r24, r24
    1000:	80 f9       	bld	r24, 0
    1002:	08 95       	ret
    1004:	80 e0       	ldi	r24, 0x00	; 0
    1006:	08 95       	ret

00001008 <Button_Down_Pressed>:
    1008:	80 91 ac 01 	lds	r24, 0x01AC	; 0x8001ac <DbDown>
    100c:	87 ff       	sbrs	r24, 7
    100e:	0b c0       	rjmp	.+22     	; 0x1026 <Button_Down_Pressed+0x1e>
    1010:	80 91 ac 01 	lds	r24, 0x01AC	; 0x8001ac <DbDown>
    1014:	8f 77       	andi	r24, 0x7F	; 127
    1016:	80 93 ac 01 	sts	0x01AC, r24	; 0x8001ac <DbDown>
    101a:	80 91 ac 01 	lds	r24, 0x01AC	; 0x8001ac <DbDown>
    101e:	86 fb       	bst	r24, 6
    1020:	88 27       	eor	r24, r24
    1022:	80 f9       	bld	r24, 0
    1024:	08 95       	ret
    1026:	80 e0       	ldi	r24, 0x00	; 0
    1028:	08 95       	ret

0000102a <Button_Up_Pressed>:
    102a:	80 91 a9 01 	lds	r24, 0x01A9	; 0x8001a9 <DbUp>
    102e:	87 ff       	sbrs	r24, 7
    1030:	0b c0       	rjmp	.+22     	; 0x1048 <Button_Up_Pressed+0x1e>
    1032:	80 91 a9 01 	lds	r24, 0x01A9	; 0x8001a9 <DbUp>
    1036:	8f 77       	andi	r24, 0x7F	; 127
    1038:	80 93 a9 01 	sts	0x01A9, r24	; 0x8001a9 <DbUp>
    103c:	80 91 a9 01 	lds	r24, 0x01A9	; 0x8001a9 <DbUp>
    1040:	86 fb       	bst	r24, 6
    1042:	88 27       	eor	r24, r24
    1044:	80 f9       	bld	r24, 0
    1046:	08 95       	ret
    1048:	80 e0       	ldi	r24, 0x00	; 0
    104a:	08 95       	ret

0000104c <Button_Left_Pressed>:
    104c:	80 91 ab 01 	lds	r24, 0x01AB	; 0x8001ab <DbLeft>
    1050:	87 ff       	sbrs	r24, 7
    1052:	0b c0       	rjmp	.+22     	; 0x106a <Button_Left_Pressed+0x1e>
    1054:	80 91 ab 01 	lds	r24, 0x01AB	; 0x8001ab <DbLeft>
    1058:	8f 77       	andi	r24, 0x7F	; 127
    105a:	80 93 ab 01 	sts	0x01AB, r24	; 0x8001ab <DbLeft>
    105e:	80 91 ab 01 	lds	r24, 0x01AB	; 0x8001ab <DbLeft>
    1062:	86 fb       	bst	r24, 6
    1064:	88 27       	eor	r24, r24
    1066:	80 f9       	bld	r24, 0
    1068:	08 95       	ret
    106a:	80 e0       	ldi	r24, 0x00	; 0
    106c:	08 95       	ret

0000106e <Interface_Keyboard_P>:
    106e:	2f 92       	push	r2
    1070:	3f 92       	push	r3
    1072:	4f 92       	push	r4
    1074:	5f 92       	push	r5
    1076:	6f 92       	push	r6
    1078:	7f 92       	push	r7
    107a:	8f 92       	push	r8
    107c:	9f 92       	push	r9
    107e:	af 92       	push	r10
    1080:	bf 92       	push	r11
    1082:	cf 92       	push	r12
    1084:	df 92       	push	r13
    1086:	ef 92       	push	r14
    1088:	ff 92       	push	r15
    108a:	0f 93       	push	r16
    108c:	1f 93       	push	r17
    108e:	cf 93       	push	r28
    1090:	df 93       	push	r29
    1092:	cd b7       	in	r28, 0x3d	; 61
    1094:	de b7       	in	r29, 0x3e	; 62
    1096:	2d 97       	sbiw	r28, 0x0d	; 13
    1098:	0f b6       	in	r0, 0x3f	; 63
    109a:	f8 94       	cli
    109c:	de bf       	out	0x3e, r29	; 62
    109e:	0f be       	out	0x3f, r0	; 63
    10a0:	cd bf       	out	0x3d, r28	; 61
    10a2:	7c 01       	movw	r14, r24
    10a4:	59 87       	std	Y+9, r21	; 0x09
    10a6:	48 87       	std	Y+8, r20	; 0x08
    10a8:	61 50       	subi	r22, 0x01	; 1
    10aa:	6e 83       	std	Y+6, r22	; 0x06
    10ac:	26 2f       	mov	r18, r22
    10ae:	6f 30       	cpi	r22, 0x0F	; 15
    10b0:	08 f0       	brcs	.+2      	; 0x10b4 <Interface_Keyboard_P+0x46>
    10b2:	2e e0       	ldi	r18, 0x0E	; 14
    10b4:	f7 01       	movw	r30, r14
    10b6:	01 90       	ld	r0, Z+
    10b8:	00 20       	and	r0, r0
    10ba:	e9 f7       	brne	.-6      	; 0x10b6 <Interface_Keyboard_P+0x48>
    10bc:	31 97       	sbiw	r30, 0x01	; 1
    10be:	cf 01       	movw	r24, r30
    10c0:	8e 19       	sub	r24, r14
    10c2:	9f 09       	sbc	r25, r15
    10c4:	08 2f       	mov	r16, r24
    10c6:	8f 30       	cpi	r24, 0x0F	; 15
    10c8:	20 f0       	brcs	.+8      	; 0x10d2 <Interface_Keyboard_P+0x64>
    10ca:	f2 ef       	ldi	r31, 0xF2	; 242
    10cc:	f8 0f       	add	r31, r24
    10ce:	fd 87       	std	Y+13, r31	; 0x0d
    10d0:	01 c0       	rjmp	.+2      	; 0x10d4 <Interface_Keyboard_P+0x66>
    10d2:	1d 86       	std	Y+13, r1	; 0x0d
    10d4:	8c 87       	std	Y+12, r24	; 0x0c
    10d6:	10 e0       	ldi	r17, 0x00	; 0
    10d8:	cc 24       	eor	r12, r12
    10da:	c3 94       	inc	r12
    10dc:	d1 2c       	mov	r13, r1
    10de:	42 2e       	mov	r4, r18
    10e0:	51 2c       	mov	r5, r1
    10e2:	0e 94 3b 0c 	call	0x1876	; 0x1876 <LCD_Clear>
    10e6:	3d 85       	ldd	r19, Y+13	; 0x0d
    10e8:	23 2f       	mov	r18, r19
    10ea:	30 e0       	ldi	r19, 0x00	; 0
    10ec:	3a 83       	std	Y+2, r19	; 0x02
    10ee:	29 83       	std	Y+1, r18	; 0x01
    10f0:	59 01       	movw	r10, r18
    10f2:	ae 0c       	add	r10, r14
    10f4:	bf 1c       	adc	r11, r15
    10f6:	61 2c       	mov	r6, r1
    10f8:	71 2c       	mov	r7, r1
    10fa:	81 2c       	mov	r8, r1
    10fc:	91 2c       	mov	r9, r1
    10fe:	20 2e       	mov	r2, r16
    1100:	31 2c       	mov	r3, r1
    1102:	c1 01       	movw	r24, r2
    1104:	82 1b       	sub	r24, r18
    1106:	93 0b       	sbc	r25, r19
    1108:	9c 83       	std	Y+4, r25	; 0x04
    110a:	8b 83       	std	Y+3, r24	; 0x03
    110c:	fc 85       	ldd	r31, Y+12	; 0x0c
    110e:	ef 2f       	mov	r30, r31
    1110:	f0 e0       	ldi	r31, 0x00	; 0
    1112:	fb 87       	std	Y+11, r31	; 0x0b
    1114:	ea 87       	std	Y+10, r30	; 0x0a
    1116:	2d 82       	std	Y+5, r2	; 0x05
    1118:	3f 82       	std	Y+7, r3	; 0x07
    111a:	8b 81       	ldd	r24, Y+3	; 0x03
    111c:	9c 81       	ldd	r25, Y+4	; 0x04
    111e:	48 16       	cp	r4, r24
    1120:	59 06       	cpc	r5, r25
    1122:	0c f4       	brge	.+2      	; 0x1126 <Interface_Keyboard_P+0xb8>
    1124:	c2 01       	movw	r24, r4
    1126:	88 16       	cp	r8, r24
    1128:	99 06       	cpc	r9, r25
    112a:	6c f5       	brge	.+90     	; 0x1186 <Interface_Keyboard_P+0x118>
    112c:	f5 01       	movw	r30, r10
    112e:	f1 81       	ldd	r31, Z+1	; 0x01
    1130:	fd 83       	std	Y+5, r31	; 0x05
    1132:	f5 01       	movw	r30, r10
    1134:	11 82       	std	Z+1, r1	; 0x01
    1136:	a5 01       	movw	r20, r10
    1138:	60 e0       	ldi	r22, 0x00	; 0
    113a:	70 e0       	ldi	r23, 0x00	; 0
    113c:	c3 01       	movw	r24, r6
    113e:	0e 94 73 0c 	call	0x18e6	; 0x18e6 <LCD_DrawText>
    1142:	2d 81       	ldd	r18, Y+5	; 0x05
    1144:	f5 01       	movw	r30, r10
    1146:	21 83       	std	Z+1, r18	; 0x01
    1148:	89 81       	ldd	r24, Y+1	; 0x01
    114a:	9a 81       	ldd	r25, Y+2	; 0x02
    114c:	88 0d       	add	r24, r8
    114e:	99 1d       	adc	r25, r9
    1150:	ea 85       	ldd	r30, Y+10	; 0x0a
    1152:	fb 85       	ldd	r31, Y+11	; 0x0b
    1154:	e8 17       	cp	r30, r24
    1156:	f9 07       	cpc	r31, r25
    1158:	61 f4       	brne	.+24     	; 0x1172 <Interface_Keyboard_P+0x104>
    115a:	fd 85       	ldd	r31, Y+13	; 0x0d
    115c:	2c 85       	ldd	r18, Y+12	; 0x0c
    115e:	4e e7       	ldi	r20, 0x7E	; 126
    1160:	60 e0       	ldi	r22, 0x00	; 0
    1162:	f2 17       	cp	r31, r18
    1164:	19 f0       	breq	.+6      	; 0x116c <Interface_Keyboard_P+0xfe>
    1166:	8f ef       	ldi	r24, 0xFF	; 255
    1168:	86 0d       	add	r24, r6
    116a:	01 c0       	rjmp	.+2      	; 0x116e <Interface_Keyboard_P+0x100>
    116c:	80 e0       	ldi	r24, 0x00	; 0
    116e:	0e 94 6b 0d 	call	0x1ad6	; 0x1ad6 <LCD_SetDramByte>
    1172:	3f ef       	ldi	r19, 0xFF	; 255
    1174:	83 1a       	sub	r8, r19
    1176:	93 0a       	sbc	r9, r19
    1178:	4f ef       	ldi	r20, 0xFF	; 255
    117a:	a4 1a       	sub	r10, r20
    117c:	b4 0a       	sbc	r11, r20
    117e:	86 e0       	ldi	r24, 0x06	; 6
    1180:	68 0e       	add	r6, r24
    1182:	71 1c       	adc	r7, r1
    1184:	c8 cf       	rjmp	.-112    	; 0x1116 <Interface_Keyboard_P+0xa8>
    1186:	48 85       	ldd	r20, Y+8	; 0x08
    1188:	59 85       	ldd	r21, Y+9	; 0x09
    118a:	61 e0       	ldi	r22, 0x01	; 1
    118c:	70 e0       	ldi	r23, 0x00	; 0
    118e:	80 e0       	ldi	r24, 0x00	; 0
    1190:	90 e0       	ldi	r25, 0x00	; 0
    1192:	0e 94 a9 0c 	call	0x1952	; 0x1952 <LCD_DrawText_P>
    1196:	b1 2c       	mov	r11, r1
    1198:	61 e0       	ldi	r22, 0x01	; 1
    119a:	8b 2d       	mov	r24, r11
    119c:	0e 94 78 0e 	call	0x1cf0	; 0x1cf0 <LCD_InvertCell>
    11a0:	b3 94       	inc	r11
    11a2:	9e e0       	ldi	r25, 0x0E	; 14
    11a4:	b9 12       	cpse	r11, r25
    11a6:	f8 cf       	rjmp	.-16     	; 0x1198 <Interface_Keyboard_P+0x12a>
    11a8:	11 11       	cpse	r17, r1
    11aa:	26 c0       	rjmp	.+76     	; 0x11f8 <Interface_Keyboard_P+0x18a>
    11ac:	21 ec       	ldi	r18, 0xC1	; 193
    11ae:	82 2e       	mov	r8, r18
    11b0:	22 e0       	ldi	r18, 0x02	; 2
    11b2:	92 2e       	mov	r9, r18
    11b4:	32 e0       	ldi	r19, 0x02	; 2
    11b6:	a3 2e       	mov	r10, r19
    11b8:	b1 2c       	mov	r11, r1
    11ba:	a4 01       	movw	r20, r8
    11bc:	b5 01       	movw	r22, r10
    11be:	80 e0       	ldi	r24, 0x00	; 0
    11c0:	90 e0       	ldi	r25, 0x00	; 0
    11c2:	0e 94 a9 0c 	call	0x1952	; 0x1952 <LCD_DrawText_P>
    11c6:	ef ef       	ldi	r30, 0xFF	; 255
    11c8:	ae 1a       	sub	r10, r30
    11ca:	be 0a       	sbc	r11, r30
    11cc:	fe e0       	ldi	r31, 0x0E	; 14
    11ce:	8f 0e       	add	r8, r31
    11d0:	91 1c       	adc	r9, r1
    11d2:	26 e0       	ldi	r18, 0x06	; 6
    11d4:	a2 16       	cp	r10, r18
    11d6:	b1 04       	cpc	r11, r1
    11d8:	81 f7       	brne	.-32     	; 0x11ba <Interface_Keyboard_P+0x14c>
    11da:	62 e0       	ldi	r22, 0x02	; 2
    11dc:	6c 0d       	add	r22, r12
    11de:	8d 2d       	mov	r24, r13
    11e0:	0e 94 78 0e 	call	0x1cf0	; 0x1cf0 <LCD_InvertCell>
    11e4:	31 2f       	mov	r19, r17
    11e6:	32 70       	andi	r19, 0x02	; 2
    11e8:	83 2e       	mov	r8, r19
    11ea:	11 ff       	sbrs	r17, 1
    11ec:	1d c0       	rjmp	.+58     	; 0x1228 <Interface_Keyboard_P+0x1ba>
    11ee:	65 e0       	ldi	r22, 0x05	; 5
    11f0:	80 e0       	ldi	r24, 0x00	; 0
    11f2:	0e 94 78 0e 	call	0x1cf0	; 0x1cf0 <LCD_InvertCell>
    11f6:	18 c0       	rjmp	.+48     	; 0x1228 <Interface_Keyboard_P+0x1ba>
    11f8:	89 e8       	ldi	r24, 0x89	; 137
    11fa:	88 2e       	mov	r8, r24
    11fc:	82 e0       	ldi	r24, 0x02	; 2
    11fe:	98 2e       	mov	r9, r24
    1200:	92 e0       	ldi	r25, 0x02	; 2
    1202:	a9 2e       	mov	r10, r25
    1204:	b1 2c       	mov	r11, r1
    1206:	a4 01       	movw	r20, r8
    1208:	b5 01       	movw	r22, r10
    120a:	80 e0       	ldi	r24, 0x00	; 0
    120c:	90 e0       	ldi	r25, 0x00	; 0
    120e:	0e 94 a9 0c 	call	0x1952	; 0x1952 <LCD_DrawText_P>
    1212:	4f ef       	ldi	r20, 0xFF	; 255
    1214:	a4 1a       	sub	r10, r20
    1216:	b4 0a       	sbc	r11, r20
    1218:	8e e0       	ldi	r24, 0x0E	; 14
    121a:	88 0e       	add	r8, r24
    121c:	91 1c       	adc	r9, r1
    121e:	96 e0       	ldi	r25, 0x06	; 6
    1220:	a9 16       	cp	r10, r25
    1222:	b1 04       	cpc	r11, r1
    1224:	81 f7       	brne	.-32     	; 0x1206 <Interface_Keyboard_P+0x198>
    1226:	d9 cf       	rjmp	.-78     	; 0x11da <Interface_Keyboard_P+0x16c>
    1228:	10 ff       	sbrs	r17, 0
    122a:	04 c0       	rjmp	.+8      	; 0x1234 <Interface_Keyboard_P+0x1c6>
    122c:	64 e0       	ldi	r22, 0x04	; 4
    122e:	80 e0       	ldi	r24, 0x00	; 0
    1230:	0e 94 78 0e 	call	0x1cf0	; 0x1cf0 <LCD_InvertCell>
    1234:	0e 94 8f 0e 	call	0x1d1e	; 0x1d1e <LCD_Render>
    1238:	0e 94 e2 07 	call	0xfc4	; 0xfc4 <Button_Return_Pressed>
    123c:	81 11       	cpse	r24, r1
    123e:	c6 c0       	rjmp	.+396    	; 0x13cc <Interface_Keyboard_P+0x35e>
    1240:	0e 94 04 08 	call	0x1008	; 0x1008 <Button_Down_Pressed>
    1244:	88 23       	and	r24, r24
    1246:	31 f0       	breq	.+12     	; 0x1254 <Interface_Keyboard_P+0x1e6>
    1248:	e2 e0       	ldi	r30, 0x02	; 2
    124a:	ec 15       	cp	r30, r12
    124c:	0c f4       	brge	.+2      	; 0x1250 <Interface_Keyboard_P+0x1e2>
    124e:	aa c0       	rjmp	.+340    	; 0x13a4 <Interface_Keyboard_P+0x336>
    1250:	c3 94       	inc	r12
    1252:	a8 c0       	rjmp	.+336    	; 0x13a4 <Interface_Keyboard_P+0x336>
    1254:	0e 94 f3 07 	call	0xfe6	; 0xfe6 <Button_Right_Pressed>
    1258:	88 23       	and	r24, r24
    125a:	31 f0       	breq	.+12     	; 0x1268 <Interface_Keyboard_P+0x1fa>
    125c:	fc e0       	ldi	r31, 0x0C	; 12
    125e:	fd 15       	cp	r31, r13
    1260:	0c f4       	brge	.+2      	; 0x1264 <Interface_Keyboard_P+0x1f6>
    1262:	a0 c0       	rjmp	.+320    	; 0x13a4 <Interface_Keyboard_P+0x336>
    1264:	d3 94       	inc	r13
    1266:	9e c0       	rjmp	.+316    	; 0x13a4 <Interface_Keyboard_P+0x336>
    1268:	0e 94 15 08 	call	0x102a	; 0x102a <Button_Up_Pressed>
    126c:	88 23       	and	r24, r24
    126e:	29 f0       	breq	.+10     	; 0x127a <Interface_Keyboard_P+0x20c>
    1270:	1c 14       	cp	r1, r12
    1272:	0c f0       	brlt	.+2      	; 0x1276 <Interface_Keyboard_P+0x208>
    1274:	97 c0       	rjmp	.+302    	; 0x13a4 <Interface_Keyboard_P+0x336>
    1276:	ca 94       	dec	r12
    1278:	95 c0       	rjmp	.+298    	; 0x13a4 <Interface_Keyboard_P+0x336>
    127a:	0e 94 26 08 	call	0x104c	; 0x104c <Button_Left_Pressed>
    127e:	88 23       	and	r24, r24
    1280:	29 f0       	breq	.+10     	; 0x128c <Interface_Keyboard_P+0x21e>
    1282:	dd 20       	and	r13, r13
    1284:	09 f4       	brne	.+2      	; 0x1288 <Interface_Keyboard_P+0x21a>
    1286:	8e c0       	rjmp	.+284    	; 0x13a4 <Interface_Keyboard_P+0x336>
    1288:	da 94       	dec	r13
    128a:	8c c0       	rjmp	.+280    	; 0x13a4 <Interface_Keyboard_P+0x336>
    128c:	0e 94 d1 07 	call	0xfa2	; 0xfa2 <Button_OK_Pressed>
    1290:	88 23       	and	r24, r24
    1292:	91 f2       	breq	.-92     	; 0x1238 <Interface_Keyboard_P+0x1ca>
    1294:	2c 2d       	mov	r18, r12
    1296:	0c 2c       	mov	r0, r12
    1298:	00 0c       	add	r0, r0
    129a:	33 0b       	sbc	r19, r19
    129c:	8d 2d       	mov	r24, r13
    129e:	0d 2c       	mov	r0, r13
    12a0:	00 0c       	add	r0, r0
    12a2:	99 0b       	sbc	r25, r25
    12a4:	4e e0       	ldi	r20, 0x0E	; 14
    12a6:	42 9f       	mul	r20, r18
    12a8:	f0 01       	movw	r30, r0
    12aa:	43 9f       	mul	r20, r19
    12ac:	f0 0d       	add	r31, r0
    12ae:	11 24       	eor	r1, r1
    12b0:	e8 0f       	add	r30, r24
    12b2:	f9 1f       	adc	r31, r25
    12b4:	11 23       	and	r17, r17
    12b6:	19 f0       	breq	.+6      	; 0x12be <Interface_Keyboard_P+0x250>
    12b8:	e7 57       	subi	r30, 0x77	; 119
    12ba:	fd 4f       	sbci	r31, 0xFD	; 253
    12bc:	02 c0       	rjmp	.+4      	; 0x12c2 <Interface_Keyboard_P+0x254>
    12be:	ef 53       	subi	r30, 0x3F	; 63
    12c0:	fd 4f       	sbci	r31, 0xFD	; 253
    12c2:	94 90       	lpm	r9, Z
    12c4:	8f e1       	ldi	r24, 0x1F	; 31
    12c6:	89 15       	cp	r24, r9
    12c8:	00 f5       	brcc	.+64     	; 0x130a <Interface_Keyboard_P+0x29c>
    12ca:	9e 81       	ldd	r25, Y+6	; 0x06
    12cc:	09 17       	cp	r16, r25
    12ce:	e8 f4       	brcc	.+58     	; 0x130a <Interface_Keyboard_P+0x29c>
    12d0:	ec 85       	ldd	r30, Y+12	; 0x0c
    12d2:	ae 2e       	mov	r10, r30
    12d4:	b1 2c       	mov	r11, r1
    12d6:	0e 17       	cp	r16, r30
    12d8:	61 f0       	breq	.+24     	; 0x12f2 <Interface_Keyboard_P+0x284>
    12da:	a1 01       	movw	r20, r2
    12dc:	4a 19       	sub	r20, r10
    12de:	5b 09       	sbc	r21, r11
    12e0:	b7 01       	movw	r22, r14
    12e2:	6a 0d       	add	r22, r10
    12e4:	7b 1d       	adc	r23, r11
    12e6:	c5 01       	movw	r24, r10
    12e8:	01 96       	adiw	r24, 0x01	; 1
    12ea:	8e 0d       	add	r24, r14
    12ec:	9f 1d       	adc	r25, r15
    12ee:	0e 94 4a 2d 	call	0x5a94	; 0x5a94 <memmove>
    12f2:	f7 01       	movw	r30, r14
    12f4:	ea 0d       	add	r30, r10
    12f6:	fb 1d       	adc	r31, r11
    12f8:	90 82       	st	Z, r9
    12fa:	fc 85       	ldd	r31, Y+12	; 0x0c
    12fc:	ff 5f       	subi	r31, 0xFF	; 255
    12fe:	fc 87       	std	Y+12, r31	; 0x0c
    1300:	0f 5f       	subi	r16, 0xFF	; 255
    1302:	88 20       	and	r8, r8
    1304:	09 f4       	brne	.+2      	; 0x1308 <Interface_Keyboard_P+0x29a>
    1306:	4e c0       	rjmp	.+156    	; 0x13a4 <Interface_Keyboard_P+0x336>
    1308:	39 c0       	rjmp	.+114    	; 0x137c <Interface_Keyboard_P+0x30e>
    130a:	23 e0       	ldi	r18, 0x03	; 3
    130c:	92 16       	cp	r9, r18
    130e:	a1 f1       	breq	.+104    	; 0x1378 <Interface_Keyboard_P+0x30a>
    1310:	29 15       	cp	r18, r9
    1312:	38 f0       	brcs	.+14     	; 0x1322 <Interface_Keyboard_P+0x2b4>
    1314:	31 e0       	ldi	r19, 0x01	; 1
    1316:	93 16       	cp	r9, r19
    1318:	69 f0       	breq	.+26     	; 0x1334 <Interface_Keyboard_P+0x2c6>
    131a:	42 e0       	ldi	r20, 0x02	; 2
    131c:	94 16       	cp	r9, r20
    131e:	39 f1       	breq	.+78     	; 0x136e <Interface_Keyboard_P+0x300>
    1320:	41 c0       	rjmp	.+130    	; 0x13a4 <Interface_Keyboard_P+0x336>
    1322:	85 e0       	ldi	r24, 0x05	; 5
    1324:	98 16       	cp	r9, r24
    1326:	89 f1       	breq	.+98     	; 0x138a <Interface_Keyboard_P+0x31c>
    1328:	98 16       	cp	r9, r24
    132a:	50 f1       	brcs	.+84     	; 0x1380 <Interface_Keyboard_P+0x312>
    132c:	96 e0       	ldi	r25, 0x06	; 6
    132e:	99 16       	cp	r9, r25
    1330:	91 f1       	breq	.+100    	; 0x1396 <Interface_Keyboard_P+0x328>
    1332:	38 c0       	rjmp	.+112    	; 0x13a4 <Interface_Keyboard_P+0x336>
    1334:	ec 85       	ldd	r30, Y+12	; 0x0c
    1336:	ee 23       	and	r30, r30
    1338:	a9 f1       	breq	.+106    	; 0x13a4 <Interface_Keyboard_P+0x336>
    133a:	01 50       	subi	r16, 0x01	; 1
    133c:	e1 50       	subi	r30, 0x01	; 1
    133e:	ec 87       	std	Y+12, r30	; 0x0c
    1340:	0e 17       	cp	r16, r30
    1342:	79 f0       	breq	.+30     	; 0x1362 <Interface_Keyboard_P+0x2f4>
    1344:	8e 2f       	mov	r24, r30
    1346:	90 e0       	ldi	r25, 0x00	; 0
    1348:	40 2f       	mov	r20, r16
    134a:	50 e0       	ldi	r21, 0x00	; 0
    134c:	48 1b       	sub	r20, r24
    134e:	59 0b       	sbc	r21, r25
    1350:	bc 01       	movw	r22, r24
    1352:	6f 5f       	subi	r22, 0xFF	; 255
    1354:	7f 4f       	sbci	r23, 0xFF	; 255
    1356:	6e 0d       	add	r22, r14
    1358:	7f 1d       	adc	r23, r15
    135a:	8e 0d       	add	r24, r14
    135c:	9f 1d       	adc	r25, r15
    135e:	0e 94 4a 2d 	call	0x5a94	; 0x5a94 <memmove>
    1362:	fd 85       	ldd	r31, Y+13	; 0x0d
    1364:	ff 23       	and	r31, r31
    1366:	f1 f0       	breq	.+60     	; 0x13a4 <Interface_Keyboard_P+0x336>
    1368:	f1 50       	subi	r31, 0x01	; 1
    136a:	fd 87       	std	Y+13, r31	; 0x0d
    136c:	1b c0       	rjmp	.+54     	; 0x13a4 <Interface_Keyboard_P+0x336>
    136e:	81 e0       	ldi	r24, 0x01	; 1
    1370:	11 11       	cpse	r17, r1
    1372:	80 e0       	ldi	r24, 0x00	; 0
    1374:	18 2f       	mov	r17, r24
    1376:	16 c0       	rjmp	.+44     	; 0x13a4 <Interface_Keyboard_P+0x336>
    1378:	11 23       	and	r17, r17
    137a:	99 f0       	breq	.+38     	; 0x13a2 <Interface_Keyboard_P+0x334>
    137c:	10 e0       	ldi	r17, 0x00	; 0
    137e:	12 c0       	rjmp	.+36     	; 0x13a4 <Interface_Keyboard_P+0x336>
    1380:	f7 01       	movw	r30, r14
    1382:	e2 0d       	add	r30, r2
    1384:	f3 1d       	adc	r31, r3
    1386:	10 82       	st	Z, r1
    1388:	25 c0       	rjmp	.+74     	; 0x13d4 <Interface_Keyboard_P+0x366>
    138a:	2c 85       	ldd	r18, Y+12	; 0x0c
    138c:	22 23       	and	r18, r18
    138e:	51 f0       	breq	.+20     	; 0x13a4 <Interface_Keyboard_P+0x336>
    1390:	21 50       	subi	r18, 0x01	; 1
    1392:	2c 87       	std	Y+12, r18	; 0x0c
    1394:	07 c0       	rjmp	.+14     	; 0x13a4 <Interface_Keyboard_P+0x336>
    1396:	3c 85       	ldd	r19, Y+12	; 0x0c
    1398:	30 17       	cp	r19, r16
    139a:	20 f4       	brcc	.+8      	; 0x13a4 <Interface_Keyboard_P+0x336>
    139c:	3f 5f       	subi	r19, 0xFF	; 255
    139e:	3c 87       	std	Y+12, r19	; 0x0c
    13a0:	01 c0       	rjmp	.+2      	; 0x13a4 <Interface_Keyboard_P+0x336>
    13a2:	12 e0       	ldi	r17, 0x02	; 2
    13a4:	4c 85       	ldd	r20, Y+12	; 0x0c
    13a6:	84 2f       	mov	r24, r20
    13a8:	90 e0       	ldi	r25, 0x00	; 0
    13aa:	92 01       	movw	r18, r4
    13ac:	ed 85       	ldd	r30, Y+13	; 0x0d
    13ae:	2e 0f       	add	r18, r30
    13b0:	31 1d       	adc	r19, r1
    13b2:	28 17       	cp	r18, r24
    13b4:	39 07       	cpc	r19, r25
    13b6:	14 f4       	brge	.+4      	; 0x13bc <Interface_Keyboard_P+0x34e>
    13b8:	ef 5f       	subi	r30, 0xFF	; 255
    13ba:	ed 87       	std	Y+13, r30	; 0x0d
    13bc:	fd 85       	ldd	r31, Y+13	; 0x0d
    13be:	2c 85       	ldd	r18, Y+12	; 0x0c
    13c0:	2f 17       	cp	r18, r31
    13c2:	08 f0       	brcs	.+2      	; 0x13c6 <Interface_Keyboard_P+0x358>
    13c4:	8e ce       	rjmp	.-740    	; 0x10e2 <Interface_Keyboard_P+0x74>
    13c6:	f1 50       	subi	r31, 0x01	; 1
    13c8:	fd 87       	std	Y+13, r31	; 0x0d
    13ca:	8b ce       	rjmp	.-746    	; 0x10e2 <Interface_Keyboard_P+0x74>
    13cc:	3f ef       	ldi	r19, 0xFF	; 255
    13ce:	3d 83       	std	Y+5, r19	; 0x05
    13d0:	4f ef       	ldi	r20, 0xFF	; 255
    13d2:	4f 83       	std	Y+7, r20	; 0x07
    13d4:	8d 81       	ldd	r24, Y+5	; 0x05
    13d6:	9f 81       	ldd	r25, Y+7	; 0x07
    13d8:	2d 96       	adiw	r28, 0x0d	; 13
    13da:	0f b6       	in	r0, 0x3f	; 63
    13dc:	f8 94       	cli
    13de:	de bf       	out	0x3e, r29	; 62
    13e0:	0f be       	out	0x3f, r0	; 63
    13e2:	cd bf       	out	0x3d, r28	; 61
    13e4:	df 91       	pop	r29
    13e6:	cf 91       	pop	r28
    13e8:	1f 91       	pop	r17
    13ea:	0f 91       	pop	r16
    13ec:	ff 90       	pop	r15
    13ee:	ef 90       	pop	r14
    13f0:	df 90       	pop	r13
    13f2:	cf 90       	pop	r12
    13f4:	bf 90       	pop	r11
    13f6:	af 90       	pop	r10
    13f8:	9f 90       	pop	r9
    13fa:	8f 90       	pop	r8
    13fc:	7f 90       	pop	r7
    13fe:	6f 90       	pop	r6
    1400:	5f 90       	pop	r5
    1402:	4f 90       	pop	r4
    1404:	3f 90       	pop	r3
    1406:	2f 90       	pop	r2
    1408:	08 95       	ret

0000140a <Interface_Menu_P>:
    140a:	8f 92       	push	r8
    140c:	9f 92       	push	r9
    140e:	af 92       	push	r10
    1410:	bf 92       	push	r11
    1412:	cf 92       	push	r12
    1414:	df 92       	push	r13
    1416:	ef 92       	push	r14
    1418:	ff 92       	push	r15
    141a:	0f 93       	push	r16
    141c:	1f 93       	push	r17
    141e:	cf 93       	push	r28
    1420:	df 93       	push	r29
    1422:	8c 01       	movw	r16, r24
    1424:	fc 01       	movw	r30, r24
    1426:	84 91       	lpm	r24, Z
    1428:	e8 2e       	mov	r14, r24
    142a:	f1 2c       	mov	r15, r1
    142c:	85 30       	cpi	r24, 0x05	; 5
    142e:	10 f4       	brcc	.+4      	; 0x1434 <Interface_Menu_P+0x2a>
    1430:	67 01       	movw	r12, r14
    1432:	03 c0       	rjmp	.+6      	; 0x143a <Interface_Menu_P+0x30>
    1434:	94 e0       	ldi	r25, 0x04	; 4
    1436:	c9 2e       	mov	r12, r25
    1438:	d1 2c       	mov	r13, r1
    143a:	d0 e0       	ldi	r29, 0x00	; 0
    143c:	c0 e0       	ldi	r28, 0x00	; 0
    143e:	58 01       	movw	r10, r16
    1440:	f1 e1       	ldi	r31, 0x11	; 17
    1442:	af 0e       	add	r10, r31
    1444:	b1 1c       	adc	r11, r1
    1446:	81 e0       	ldi	r24, 0x01	; 1
    1448:	e8 1a       	sub	r14, r24
    144a:	f1 08       	sbc	r15, r1
    144c:	0e 94 3b 0c 	call	0x1876	; 0x1876 <LCD_Clear>
    1450:	f5 01       	movw	r30, r10
    1452:	45 91       	lpm	r20, Z+
    1454:	54 91       	lpm	r21, Z
    1456:	60 e0       	ldi	r22, 0x00	; 0
    1458:	70 e0       	ldi	r23, 0x00	; 0
    145a:	80 e0       	ldi	r24, 0x00	; 0
    145c:	90 e0       	ldi	r25, 0x00	; 0
    145e:	0e 94 a9 0c 	call	0x1952	; 0x1952 <LCD_DrawText_P>
    1462:	91 2c       	mov	r9, r1
    1464:	69 2d       	mov	r22, r9
    1466:	70 e0       	ldi	r23, 0x00	; 0
    1468:	6c 15       	cp	r22, r12
    146a:	7d 05       	cpc	r23, r13
    146c:	b4 f4       	brge	.+44     	; 0x149a <Interface_Menu_P+0x90>
    146e:	8d 2f       	mov	r24, r29
    1470:	89 0d       	add	r24, r9
    1472:	f8 01       	movw	r30, r16
    1474:	e8 0f       	add	r30, r24
    1476:	f1 1d       	adc	r31, r1
    1478:	e8 0f       	add	r30, r24
    147a:	f1 1d       	adc	r31, r1
    147c:	31 96       	adiw	r30, 0x01	; 1
    147e:	85 91       	lpm	r24, Z+
    1480:	94 91       	lpm	r25, Z
    1482:	fc 01       	movw	r30, r24
    1484:	32 96       	adiw	r30, 0x02	; 2
    1486:	45 91       	lpm	r20, Z+
    1488:	54 91       	lpm	r21, Z
    148a:	6e 5f       	subi	r22, 0xFE	; 254
    148c:	7f 4f       	sbci	r23, 0xFF	; 255
    148e:	80 e0       	ldi	r24, 0x00	; 0
    1490:	90 e0       	ldi	r25, 0x00	; 0
    1492:	0e 94 a9 0c 	call	0x1952	; 0x1952 <LCD_DrawText_P>
    1496:	93 94       	inc	r9
    1498:	e5 cf       	rjmp	.-54     	; 0x1464 <Interface_Menu_P+0x5a>
    149a:	91 2c       	mov	r9, r1
    149c:	82 e0       	ldi	r24, 0x02	; 2
    149e:	88 2e       	mov	r8, r24
    14a0:	8c 0e       	add	r8, r28
    14a2:	8d 1a       	sub	r8, r29
    14a4:	68 2d       	mov	r22, r8
    14a6:	89 2d       	mov	r24, r9
    14a8:	0e 94 78 0e 	call	0x1cf0	; 0x1cf0 <LCD_InvertCell>
    14ac:	93 94       	inc	r9
    14ae:	ee e0       	ldi	r30, 0x0E	; 14
    14b0:	9e 12       	cpse	r9, r30
    14b2:	f8 cf       	rjmp	.-16     	; 0x14a4 <Interface_Menu_P+0x9a>
    14b4:	0e 94 8f 0e 	call	0x1d1e	; 0x1d1e <LCD_Render>
    14b8:	0e 94 15 08 	call	0x102a	; 0x102a <Button_Up_Pressed>
    14bc:	88 23       	and	r24, r24
    14be:	19 f0       	breq	.+6      	; 0x14c6 <Interface_Menu_P+0xbc>
    14c0:	1c 16       	cp	r1, r28
    14c2:	0c f4       	brge	.+2      	; 0x14c6 <Interface_Menu_P+0xbc>
    14c4:	c1 50       	subi	r28, 0x01	; 1
    14c6:	0e 94 04 08 	call	0x1008	; 0x1008 <Button_Down_Pressed>
    14ca:	88 23       	and	r24, r24
    14cc:	41 f0       	breq	.+16     	; 0x14de <Interface_Menu_P+0xd4>
    14ce:	8c 2f       	mov	r24, r28
    14d0:	0c 2e       	mov	r0, r28
    14d2:	00 0c       	add	r0, r0
    14d4:	99 0b       	sbc	r25, r25
    14d6:	8e 15       	cp	r24, r14
    14d8:	9f 05       	cpc	r25, r15
    14da:	0c f4       	brge	.+2      	; 0x14de <Interface_Menu_P+0xd4>
    14dc:	cf 5f       	subi	r28, 0xFF	; 255
    14de:	0e 94 d1 07 	call	0xfa2	; 0xfa2 <Button_OK_Pressed>
    14e2:	88 23       	and	r24, r24
    14e4:	09 f1       	breq	.+66     	; 0x1528 <Interface_Menu_P+0x11e>
    14e6:	c8 01       	movw	r24, r16
    14e8:	8c 0f       	add	r24, r28
    14ea:	91 1d       	adc	r25, r1
    14ec:	8c 0f       	add	r24, r28
    14ee:	91 1d       	adc	r25, r1
    14f0:	01 96       	adiw	r24, 0x01	; 1
    14f2:	fc 01       	movw	r30, r24
    14f4:	25 91       	lpm	r18, Z+
    14f6:	34 91       	lpm	r19, Z
    14f8:	f9 01       	movw	r30, r18
    14fa:	25 91       	lpm	r18, Z+
    14fc:	34 91       	lpm	r19, Z
    14fe:	23 2b       	or	r18, r19
    1500:	99 f0       	breq	.+38     	; 0x1528 <Interface_Menu_P+0x11e>
    1502:	fc 01       	movw	r30, r24
    1504:	25 91       	lpm	r18, Z+
    1506:	34 91       	lpm	r19, Z
    1508:	f9 01       	movw	r30, r18
    150a:	34 96       	adiw	r30, 0x04	; 4
    150c:	e4 91       	lpm	r30, Z
    150e:	e0 38       	cpi	r30, 0x80	; 128
    1510:	59 f4       	brne	.+22     	; 0x1528 <Interface_Menu_P+0x11e>
    1512:	fc 01       	movw	r30, r24
    1514:	85 91       	lpm	r24, Z+
    1516:	94 91       	lpm	r25, Z
    1518:	fc 01       	movw	r30, r24
    151a:	85 91       	lpm	r24, Z+
    151c:	94 91       	lpm	r25, Z
    151e:	fc 01       	movw	r30, r24
    1520:	85 91       	lpm	r24, Z+
    1522:	94 91       	lpm	r25, Z
    1524:	fc 01       	movw	r30, r24
    1526:	09 95       	icall
    1528:	0e 94 e2 07 	call	0xfc4	; 0xfc4 <Button_Return_Pressed>
    152c:	81 11       	cpse	r24, r1
    152e:	12 c0       	rjmp	.+36     	; 0x1554 <Interface_Menu_P+0x14a>
    1530:	8d 2f       	mov	r24, r29
    1532:	0d 2e       	mov	r0, r29
    1534:	00 0c       	add	r0, r0
    1536:	99 0b       	sbc	r25, r25
    1538:	03 96       	adiw	r24, 0x03	; 3
    153a:	2c 2f       	mov	r18, r28
    153c:	0c 2e       	mov	r0, r28
    153e:	00 0c       	add	r0, r0
    1540:	33 0b       	sbc	r19, r19
    1542:	82 17       	cp	r24, r18
    1544:	93 07       	cpc	r25, r19
    1546:	0c f4       	brge	.+2      	; 0x154a <Interface_Menu_P+0x140>
    1548:	df 5f       	subi	r29, 0xFF	; 255
    154a:	cd 17       	cp	r28, r29
    154c:	0c f0       	brlt	.+2      	; 0x1550 <Interface_Menu_P+0x146>
    154e:	7e cf       	rjmp	.-260    	; 0x144c <Interface_Menu_P+0x42>
    1550:	d1 50       	subi	r29, 0x01	; 1
    1552:	7c cf       	rjmp	.-264    	; 0x144c <Interface_Menu_P+0x42>
    1554:	df 91       	pop	r29
    1556:	cf 91       	pop	r28
    1558:	1f 91       	pop	r17
    155a:	0f 91       	pop	r16
    155c:	ff 90       	pop	r15
    155e:	ef 90       	pop	r14
    1560:	df 90       	pop	r13
    1562:	cf 90       	pop	r12
    1564:	bf 90       	pop	r11
    1566:	af 90       	pop	r10
    1568:	9f 90       	pop	r9
    156a:	8f 90       	pop	r8
    156c:	08 95       	ret

0000156e <Interface_Scrollbar_P>:
    156e:	2f 92       	push	r2
    1570:	3f 92       	push	r3
    1572:	4f 92       	push	r4
    1574:	5f 92       	push	r5
    1576:	6f 92       	push	r6
    1578:	7f 92       	push	r7
    157a:	8f 92       	push	r8
    157c:	9f 92       	push	r9
    157e:	af 92       	push	r10
    1580:	bf 92       	push	r11
    1582:	cf 92       	push	r12
    1584:	df 92       	push	r13
    1586:	ef 92       	push	r14
    1588:	ff 92       	push	r15
    158a:	0f 93       	push	r16
    158c:	1f 93       	push	r17
    158e:	cf 93       	push	r28
    1590:	df 93       	push	r29
    1592:	00 d0       	rcall	.+0      	; 0x1594 <Interface_Scrollbar_P+0x26>
    1594:	00 d0       	rcall	.+0      	; 0x1596 <Interface_Scrollbar_P+0x28>
    1596:	1f 92       	push	r1
    1598:	cd b7       	in	r28, 0x3d	; 61
    159a:	de b7       	in	r29, 0x3e	; 62
    159c:	2c 01       	movw	r4, r24
    159e:	7d 83       	std	Y+5, r23	; 0x05
    15a0:	6c 83       	std	Y+4, r22	; 0x04
    15a2:	34 2e       	mov	r3, r20
    15a4:	29 83       	std	Y+1, r18	; 0x01
    15a6:	fb 01       	movw	r30, r22
    15a8:	20 80       	ld	r2, Z
    15aa:	c4 2e       	mov	r12, r20
    15ac:	d1 2c       	mov	r13, r1
    15ae:	a2 2e       	mov	r10, r18
    15b0:	b1 2c       	mov	r11, r1
    15b2:	c5 01       	movw	r24, r10
    15b4:	8c 19       	sub	r24, r12
    15b6:	9d 09       	sbc	r25, r13
    15b8:	9b 83       	std	Y+3, r25	; 0x03
    15ba:	8a 83       	std	Y+2, r24	; 0x02
    15bc:	60 2e       	mov	r6, r16
    15be:	71 2c       	mov	r7, r1
    15c0:	0e 94 3b 0c 	call	0x1876	; 0x1876 <LCD_Clear>
    15c4:	a2 01       	movw	r20, r4
    15c6:	61 e0       	ldi	r22, 0x01	; 1
    15c8:	70 e0       	ldi	r23, 0x00	; 0
    15ca:	86 e0       	ldi	r24, 0x06	; 6
    15cc:	90 e0       	ldi	r25, 0x00	; 0
    15ce:	0e 94 a9 0c 	call	0x1952	; 0x1952 <LCD_DrawText_P>
    15d2:	4f ef       	ldi	r20, 0xFF	; 255
    15d4:	64 e0       	ldi	r22, 0x04	; 4
    15d6:	86 e0       	ldi	r24, 0x06	; 6
    15d8:	0e 94 6b 0d 	call	0x1ad6	; 0x1ad6 <LCD_SetDramByte>
    15dc:	ec 81       	ldd	r30, Y+4	; 0x04
    15de:	fd 81       	ldd	r31, Y+5	; 0x05
    15e0:	20 81       	ld	r18, Z
    15e2:	30 e0       	ldi	r19, 0x00	; 0
    15e4:	2c 19       	sub	r18, r12
    15e6:	3d 09       	sbc	r19, r13
    15e8:	f6 e4       	ldi	r31, 0x46	; 70
    15ea:	f2 9f       	mul	r31, r18
    15ec:	c0 01       	movw	r24, r0
    15ee:	f3 9f       	mul	r31, r19
    15f0:	90 0d       	add	r25, r0
    15f2:	11 24       	eor	r1, r1
    15f4:	6a 81       	ldd	r22, Y+2	; 0x02
    15f6:	7b 81       	ldd	r23, Y+3	; 0x03
    15f8:	0e 94 cb 29 	call	0x5396	; 0x5396 <__divmodhi4>
    15fc:	4b 01       	movw	r8, r22
    15fe:	11 e0       	ldi	r17, 0x01	; 1
    1600:	81 2f       	mov	r24, r17
    1602:	90 e0       	ldi	r25, 0x00	; 0
    1604:	88 15       	cp	r24, r8
    1606:	99 05       	cpc	r25, r9
    1608:	40 f4       	brcc	.+16     	; 0x161a <Interface_Scrollbar_P+0xac>
    160a:	4f ef       	ldi	r20, 0xFF	; 255
    160c:	64 e0       	ldi	r22, 0x04	; 4
    160e:	86 e0       	ldi	r24, 0x06	; 6
    1610:	81 0f       	add	r24, r17
    1612:	0e 94 6b 0d 	call	0x1ad6	; 0x1ad6 <LCD_SetDramByte>
    1616:	1f 5f       	subi	r17, 0xFF	; 255
    1618:	f3 cf       	rjmp	.-26     	; 0x1600 <Interface_Scrollbar_P+0x92>
    161a:	16 34       	cpi	r17, 0x46	; 70
    161c:	40 f4       	brcc	.+16     	; 0x162e <Interface_Scrollbar_P+0xc0>
    161e:	41 e8       	ldi	r20, 0x81	; 129
    1620:	64 e0       	ldi	r22, 0x04	; 4
    1622:	86 e0       	ldi	r24, 0x06	; 6
    1624:	81 0f       	add	r24, r17
    1626:	0e 94 6b 0d 	call	0x1ad6	; 0x1ad6 <LCD_SetDramByte>
    162a:	1f 5f       	subi	r17, 0xFF	; 255
    162c:	f6 cf       	rjmp	.-20     	; 0x161a <Interface_Scrollbar_P+0xac>
    162e:	4f ef       	ldi	r20, 0xFF	; 255
    1630:	64 e0       	ldi	r22, 0x04	; 4
    1632:	8c e4       	ldi	r24, 0x4C	; 76
    1634:	0e 94 6b 0d 	call	0x1ad6	; 0x1ad6 <LCD_SetDramByte>
    1638:	0e 94 8f 0e 	call	0x1d1e	; 0x1d1e <LCD_Render>
    163c:	0e 94 e2 07 	call	0xfc4	; 0xfc4 <Button_Return_Pressed>
    1640:	88 23       	and	r24, r24
    1642:	e9 f0       	breq	.+58     	; 0x167e <Interface_Scrollbar_P+0x110>
    1644:	ec 81       	ldd	r30, Y+4	; 0x04
    1646:	fd 81       	ldd	r31, Y+5	; 0x05
    1648:	20 82       	st	Z, r2
    164a:	82 2d       	mov	r24, r2
    164c:	f7 01       	movw	r30, r14
    164e:	0f 90       	pop	r0
    1650:	0f 90       	pop	r0
    1652:	0f 90       	pop	r0
    1654:	0f 90       	pop	r0
    1656:	0f 90       	pop	r0
    1658:	df 91       	pop	r29
    165a:	cf 91       	pop	r28
    165c:	1f 91       	pop	r17
    165e:	0f 91       	pop	r16
    1660:	ff 90       	pop	r15
    1662:	ef 90       	pop	r14
    1664:	df 90       	pop	r13
    1666:	cf 90       	pop	r12
    1668:	bf 90       	pop	r11
    166a:	af 90       	pop	r10
    166c:	9f 90       	pop	r9
    166e:	8f 90       	pop	r8
    1670:	7f 90       	pop	r7
    1672:	6f 90       	pop	r6
    1674:	5f 90       	pop	r5
    1676:	4f 90       	pop	r4
    1678:	3f 90       	pop	r3
    167a:	2f 90       	pop	r2
    167c:	09 94       	ijmp
    167e:	0e 94 d1 07 	call	0xfa2	; 0xfa2 <Button_OK_Pressed>
    1682:	81 11       	cpse	r24, r1
    1684:	36 c0       	rjmp	.+108    	; 0x16f2 <Interface_Scrollbar_P+0x184>
    1686:	0e 94 26 08 	call	0x104c	; 0x104c <Button_Left_Pressed>
    168a:	88 23       	and	r24, r24
    168c:	b9 f0       	breq	.+46     	; 0x16bc <Interface_Scrollbar_P+0x14e>
    168e:	ec 81       	ldd	r30, Y+4	; 0x04
    1690:	fd 81       	ldd	r31, Y+5	; 0x05
    1692:	80 81       	ld	r24, Z
    1694:	80 17       	cp	r24, r16
    1696:	50 f0       	brcs	.+20     	; 0x16ac <Interface_Scrollbar_P+0x13e>
    1698:	28 2f       	mov	r18, r24
    169a:	30 e0       	ldi	r19, 0x00	; 0
    169c:	26 19       	sub	r18, r6
    169e:	37 09       	sbc	r19, r7
    16a0:	2c 15       	cp	r18, r12
    16a2:	3d 05       	cpc	r19, r13
    16a4:	1c f0       	brlt	.+6      	; 0x16ac <Interface_Scrollbar_P+0x13e>
    16a6:	80 1b       	sub	r24, r16
    16a8:	80 83       	st	Z, r24
    16aa:	03 c0       	rjmp	.+6      	; 0x16b2 <Interface_Scrollbar_P+0x144>
    16ac:	ec 81       	ldd	r30, Y+4	; 0x04
    16ae:	fd 81       	ldd	r31, Y+5	; 0x05
    16b0:	30 82       	st	Z, r3
    16b2:	ec 81       	ldd	r30, Y+4	; 0x04
    16b4:	fd 81       	ldd	r31, Y+5	; 0x05
    16b6:	80 81       	ld	r24, Z
    16b8:	f7 01       	movw	r30, r14
    16ba:	09 95       	icall
    16bc:	0e 94 f3 07 	call	0xfe6	; 0xfe6 <Button_Right_Pressed>
    16c0:	88 23       	and	r24, r24
    16c2:	09 f4       	brne	.+2      	; 0x16c6 <Interface_Scrollbar_P+0x158>
    16c4:	7d cf       	rjmp	.-262    	; 0x15c0 <Interface_Scrollbar_P+0x52>
    16c6:	ec 81       	ldd	r30, Y+4	; 0x04
    16c8:	fd 81       	ldd	r31, Y+5	; 0x05
    16ca:	80 81       	ld	r24, Z
    16cc:	93 01       	movw	r18, r6
    16ce:	28 0f       	add	r18, r24
    16d0:	31 1d       	adc	r19, r1
    16d2:	a2 16       	cp	r10, r18
    16d4:	b3 06       	cpc	r11, r19
    16d6:	1c f0       	brlt	.+6      	; 0x16de <Interface_Scrollbar_P+0x170>
    16d8:	80 0f       	add	r24, r16
    16da:	80 83       	st	Z, r24
    16dc:	04 c0       	rjmp	.+8      	; 0x16e6 <Interface_Scrollbar_P+0x178>
    16de:	49 81       	ldd	r20, Y+1	; 0x01
    16e0:	ec 81       	ldd	r30, Y+4	; 0x04
    16e2:	fd 81       	ldd	r31, Y+5	; 0x05
    16e4:	40 83       	st	Z, r20
    16e6:	ec 81       	ldd	r30, Y+4	; 0x04
    16e8:	fd 81       	ldd	r31, Y+5	; 0x05
    16ea:	80 81       	ld	r24, Z
    16ec:	f7 01       	movw	r30, r14
    16ee:	09 95       	icall
    16f0:	67 cf       	rjmp	.-306    	; 0x15c0 <Interface_Scrollbar_P+0x52>
    16f2:	0f 90       	pop	r0
    16f4:	0f 90       	pop	r0
    16f6:	0f 90       	pop	r0
    16f8:	0f 90       	pop	r0
    16fa:	0f 90       	pop	r0
    16fc:	df 91       	pop	r29
    16fe:	cf 91       	pop	r28
    1700:	1f 91       	pop	r17
    1702:	0f 91       	pop	r16
    1704:	ff 90       	pop	r15
    1706:	ef 90       	pop	r14
    1708:	df 90       	pop	r13
    170a:	cf 90       	pop	r12
    170c:	bf 90       	pop	r11
    170e:	af 90       	pop	r10
    1710:	9f 90       	pop	r9
    1712:	8f 90       	pop	r8
    1714:	7f 90       	pop	r7
    1716:	6f 90       	pop	r6
    1718:	5f 90       	pop	r5
    171a:	4f 90       	pop	r4
    171c:	3f 90       	pop	r3
    171e:	2f 90       	pop	r2
    1720:	08 95       	ret

00001722 <Interface_Switch_P>:
    1722:	8f 92       	push	r8
    1724:	9f 92       	push	r9
    1726:	bf 92       	push	r11
    1728:	cf 92       	push	r12
    172a:	df 92       	push	r13
    172c:	ef 92       	push	r14
    172e:	ff 92       	push	r15
    1730:	0f 93       	push	r16
    1732:	1f 93       	push	r17
    1734:	cf 93       	push	r28
    1736:	df 93       	push	r29
    1738:	cd b7       	in	r28, 0x3d	; 61
    173a:	de b7       	in	r29, 0x3e	; 62
    173c:	c0 55       	subi	r28, 0x50	; 80
    173e:	d1 09       	sbc	r29, r1
    1740:	0f b6       	in	r0, 0x3f	; 63
    1742:	f8 94       	cli
    1744:	de bf       	out	0x3e, r29	; 62
    1746:	0f be       	out	0x3f, r0	; 63
    1748:	cd bf       	out	0x3d, r28	; 61
    174a:	7b 01       	movw	r14, r22
    174c:	6a 01       	movw	r12, r20
    174e:	fb 01       	movw	r30, r22
    1750:	b0 80       	ld	r11, Z
    1752:	8e 01       	movw	r16, r28
    1754:	0f 5f       	subi	r16, 0xFF	; 255
    1756:	1f 4f       	sbci	r17, 0xFF	; 255
    1758:	20 e4       	ldi	r18, 0x40	; 64
    175a:	f8 01       	movw	r30, r16
    175c:	11 92       	st	Z+, r1
    175e:	2a 95       	dec	r18
    1760:	e9 f7       	brne	.-6      	; 0x175c <Interface_Switch_P+0x3a>
    1762:	bc 01       	movw	r22, r24
    1764:	c8 01       	movw	r24, r16
    1766:	0e 94 df 2c 	call	0x59be	; 0x59be <strcpy_P>
    176a:	66 e4       	ldi	r22, 0x46	; 70
    176c:	71 e0       	ldi	r23, 0x01	; 1
    176e:	c8 01       	movw	r24, r16
    1770:	0e 94 3c 2d 	call	0x5a78	; 0x5a78 <strtok>
    1774:	9e 01       	movw	r18, r28
    1776:	2f 5b       	subi	r18, 0xBF	; 191
    1778:	3f 4f       	sbci	r19, 0xFF	; 255
    177a:	f9 01       	movw	r30, r18
    177c:	81 93       	st	Z+, r24
    177e:	91 93       	st	Z+, r25
    1780:	4f 01       	movw	r8, r30
    1782:	01 e0       	ldi	r16, 0x01	; 1
    1784:	66 e4       	ldi	r22, 0x46	; 70
    1786:	71 e0       	ldi	r23, 0x01	; 1
    1788:	80 e0       	ldi	r24, 0x00	; 0
    178a:	90 e0       	ldi	r25, 0x00	; 0
    178c:	0e 94 3c 2d 	call	0x5a78	; 0x5a78 <strtok>
    1790:	f4 01       	movw	r30, r8
    1792:	81 93       	st	Z+, r24
    1794:	91 93       	st	Z+, r25
    1796:	4f 01       	movw	r8, r30
    1798:	89 2b       	or	r24, r25
    179a:	19 f0       	breq	.+6      	; 0x17a2 <Interface_Switch_P+0x80>
    179c:	0f 5f       	subi	r16, 0xFF	; 255
    179e:	08 30       	cpi	r16, 0x08	; 8
    17a0:	89 f7       	brne	.-30     	; 0x1784 <Interface_Switch_P+0x62>
    17a2:	10 e0       	ldi	r17, 0x00	; 0
    17a4:	01 50       	subi	r16, 0x01	; 1
    17a6:	11 09       	sbc	r17, r1
    17a8:	0e 94 3b 0c 	call	0x1876	; 0x1876 <LCD_Clear>
    17ac:	f7 01       	movw	r30, r14
    17ae:	80 81       	ld	r24, Z
    17b0:	fe 01       	movw	r30, r28
    17b2:	ef 5b       	subi	r30, 0xBF	; 191
    17b4:	ff 4f       	sbci	r31, 0xFF	; 255
    17b6:	e8 0f       	add	r30, r24
    17b8:	f1 1d       	adc	r31, r1
    17ba:	e8 0f       	add	r30, r24
    17bc:	f1 1d       	adc	r31, r1
    17be:	40 81       	ld	r20, Z
    17c0:	51 81       	ldd	r21, Z+1	; 0x01
    17c2:	63 e0       	ldi	r22, 0x03	; 3
    17c4:	70 e0       	ldi	r23, 0x00	; 0
    17c6:	86 e0       	ldi	r24, 0x06	; 6
    17c8:	90 e0       	ldi	r25, 0x00	; 0
    17ca:	0e 94 73 0c 	call	0x18e6	; 0x18e6 <LCD_DrawText>
    17ce:	a6 01       	movw	r20, r12
    17d0:	61 e0       	ldi	r22, 0x01	; 1
    17d2:	70 e0       	ldi	r23, 0x00	; 0
    17d4:	81 e0       	ldi	r24, 0x01	; 1
    17d6:	90 e0       	ldi	r25, 0x00	; 0
    17d8:	0e 94 a9 0c 	call	0x1952	; 0x1952 <LCD_DrawText_P>
    17dc:	0e 94 8f 0e 	call	0x1d1e	; 0x1d1e <LCD_Render>
    17e0:	0e 94 e2 07 	call	0xfc4	; 0xfc4 <Button_Return_Pressed>
    17e4:	88 23       	and	r24, r24
    17e6:	19 f0       	breq	.+6      	; 0x17ee <Interface_Switch_P+0xcc>
    17e8:	f7 01       	movw	r30, r14
    17ea:	b0 82       	st	Z, r11
    17ec:	1c c0       	rjmp	.+56     	; 0x1826 <Interface_Switch_P+0x104>
    17ee:	0e 94 d1 07 	call	0xfa2	; 0xfa2 <Button_OK_Pressed>
    17f2:	81 11       	cpse	r24, r1
    17f4:	18 c0       	rjmp	.+48     	; 0x1826 <Interface_Switch_P+0x104>
    17f6:	0e 94 26 08 	call	0x104c	; 0x104c <Button_Left_Pressed>
    17fa:	88 23       	and	r24, r24
    17fc:	31 f0       	breq	.+12     	; 0x180a <Interface_Switch_P+0xe8>
    17fe:	f7 01       	movw	r30, r14
    1800:	80 81       	ld	r24, Z
    1802:	88 23       	and	r24, r24
    1804:	11 f0       	breq	.+4      	; 0x180a <Interface_Switch_P+0xe8>
    1806:	81 50       	subi	r24, 0x01	; 1
    1808:	80 83       	st	Z, r24
    180a:	0e 94 f3 07 	call	0xfe6	; 0xfe6 <Button_Right_Pressed>
    180e:	88 23       	and	r24, r24
    1810:	59 f2       	breq	.-106    	; 0x17a8 <Interface_Switch_P+0x86>
    1812:	f7 01       	movw	r30, r14
    1814:	80 81       	ld	r24, Z
    1816:	28 2f       	mov	r18, r24
    1818:	30 e0       	ldi	r19, 0x00	; 0
    181a:	20 17       	cp	r18, r16
    181c:	31 07       	cpc	r19, r17
    181e:	24 f6       	brge	.-120    	; 0x17a8 <Interface_Switch_P+0x86>
    1820:	8f 5f       	subi	r24, 0xFF	; 255
    1822:	80 83       	st	Z, r24
    1824:	c1 cf       	rjmp	.-126    	; 0x17a8 <Interface_Switch_P+0x86>
    1826:	c0 5b       	subi	r28, 0xB0	; 176
    1828:	df 4f       	sbci	r29, 0xFF	; 255
    182a:	0f b6       	in	r0, 0x3f	; 63
    182c:	f8 94       	cli
    182e:	de bf       	out	0x3e, r29	; 62
    1830:	0f be       	out	0x3f, r0	; 63
    1832:	cd bf       	out	0x3d, r28	; 61
    1834:	df 91       	pop	r29
    1836:	cf 91       	pop	r28
    1838:	1f 91       	pop	r17
    183a:	0f 91       	pop	r16
    183c:	ff 90       	pop	r15
    183e:	ef 90       	pop	r14
    1840:	df 90       	pop	r13
    1842:	cf 90       	pop	r12
    1844:	bf 90       	pop	r11
    1846:	9f 90       	pop	r9
    1848:	8f 90       	pop	r8
    184a:	08 95       	ret

0000184c <LCD_WriteByte>:
    184c:	27 e0       	ldi	r18, 0x07	; 7
    184e:	30 e0       	ldi	r19, 0x00	; 0
    1850:	90 e0       	ldi	r25, 0x00	; 0
    1852:	ac 01       	movw	r20, r24
    1854:	02 2e       	mov	r0, r18
    1856:	02 c0       	rjmp	.+4      	; 0x185c <LCD_WriteByte+0x10>
    1858:	55 95       	asr	r21
    185a:	47 95       	ror	r20
    185c:	0a 94       	dec	r0
    185e:	e2 f7       	brpl	.-8      	; 0x1858 <LCD_WriteByte+0xc>
    1860:	40 ff       	sbrs	r20, 0
    1862:	02 c0       	rjmp	.+4      	; 0x1868 <LCD_WriteByte+0x1c>
    1864:	2a 9a       	sbi	0x05, 2	; 5
    1866:	01 c0       	rjmp	.+2      	; 0x186a <LCD_WriteByte+0x1e>
    1868:	2a 98       	cbi	0x05, 2	; 5
    186a:	29 9a       	sbi	0x05, 1	; 5
    186c:	29 98       	cbi	0x05, 1	; 5
    186e:	21 50       	subi	r18, 0x01	; 1
    1870:	31 09       	sbc	r19, r1
    1872:	78 f7       	brcc	.-34     	; 0x1852 <LCD_WriteByte+0x6>
    1874:	08 95       	ret

00001876 <LCD_Clear>:
    1876:	4d ea       	ldi	r20, 0xAD	; 173
    1878:	51 e0       	ldi	r21, 0x01	; 1
    187a:	26 e0       	ldi	r18, 0x06	; 6
    187c:	80 e0       	ldi	r24, 0x00	; 0
    187e:	90 e0       	ldi	r25, 0x00	; 0
    1880:	fa 01       	movw	r30, r20
    1882:	e8 0f       	add	r30, r24
    1884:	f9 1f       	adc	r31, r25
    1886:	10 82       	st	Z, r1
    1888:	06 96       	adiw	r24, 0x06	; 6
    188a:	88 3f       	cpi	r24, 0xF8	; 248
    188c:	31 e0       	ldi	r19, 0x01	; 1
    188e:	93 07       	cpc	r25, r19
    1890:	b9 f7       	brne	.-18     	; 0x1880 <LCD_Clear+0xa>
    1892:	21 50       	subi	r18, 0x01	; 1
    1894:	4f 5f       	subi	r20, 0xFF	; 255
    1896:	5f 4f       	sbci	r21, 0xFF	; 255
    1898:	21 11       	cpse	r18, r1
    189a:	f0 cf       	rjmp	.-32     	; 0x187c <LCD_Clear+0x6>
    189c:	08 95       	ret

0000189e <LCD_SendCommand>:
    189e:	2b 98       	cbi	0x05, 3	; 5
    18a0:	2d 98       	cbi	0x05, 5	; 5
    18a2:	0e 94 26 0c 	call	0x184c	; 0x184c <LCD_WriteByte>
    18a6:	2d 9a       	sbi	0x05, 5	; 5
    18a8:	08 95       	ret

000018aa <LCD_Init>:
    18aa:	84 b1       	in	r24, 0x04	; 4
    18ac:	8e 63       	ori	r24, 0x3E	; 62
    18ae:	84 b9       	out	0x04, r24	; 4
    18b0:	85 b1       	in	r24, 0x05	; 5
    18b2:	81 7c       	andi	r24, 0xC1	; 193
    18b4:	85 b9       	out	0x05, r24	; 5
    18b6:	2c 9a       	sbi	0x05, 4	; 5
    18b8:	8f e9       	ldi	r24, 0x9F	; 159
    18ba:	9f e0       	ldi	r25, 0x0F	; 15
    18bc:	01 97       	sbiw	r24, 0x01	; 1
    18be:	f1 f7       	brne	.-4      	; 0x18bc <LCD_Init+0x12>
    18c0:	00 c0       	rjmp	.+0      	; 0x18c2 <LCD_Init+0x18>
    18c2:	00 00       	nop
    18c4:	81 e2       	ldi	r24, 0x21	; 33
    18c6:	0e 94 4f 0c 	call	0x189e	; 0x189e <LCD_SendCommand>
    18ca:	84 e1       	ldi	r24, 0x14	; 20
    18cc:	0e 94 4f 0c 	call	0x189e	; 0x189e <LCD_SendCommand>
    18d0:	8f eb       	ldi	r24, 0xBF	; 191
    18d2:	0e 94 4f 0c 	call	0x189e	; 0x189e <LCD_SendCommand>
    18d6:	80 e2       	ldi	r24, 0x20	; 32
    18d8:	0e 94 4f 0c 	call	0x189e	; 0x189e <LCD_SendCommand>
    18dc:	8c e0       	ldi	r24, 0x0C	; 12
    18de:	0e 94 4f 0c 	call	0x189e	; 0x189e <LCD_SendCommand>
    18e2:	0c 94 3b 0c 	jmp	0x1876	; 0x1876 <LCD_Clear>

000018e6 <LCD_DrawText>:
    18e6:	1f 93       	push	r17
    18e8:	cf 93       	push	r28
    18ea:	df 93       	push	r29
    18ec:	16 e0       	ldi	r17, 0x06	; 6
    18ee:	fa 01       	movw	r30, r20
    18f0:	21 91       	ld	r18, Z+
    18f2:	af 01       	movw	r20, r30
    18f4:	22 23       	and	r18, r18
    18f6:	49 f1       	breq	.+82     	; 0x194a <LCD_DrawText+0x64>
    18f8:	20 52       	subi	r18, 0x20	; 32
    18fa:	2f 35       	cpi	r18, 0x5F	; 95
    18fc:	c0 f7       	brcc	.-16     	; 0x18ee <LCD_DrawText+0x8>
    18fe:	e6 e0       	ldi	r30, 0x06	; 6
    1900:	2e 9f       	mul	r18, r30
    1902:	90 01       	movw	r18, r0
    1904:	11 24       	eor	r1, r1
    1906:	c0 e0       	ldi	r28, 0x00	; 0
    1908:	d0 e0       	ldi	r29, 0x00	; 0
    190a:	84 35       	cpi	r24, 0x54	; 84
    190c:	91 05       	cpc	r25, r1
    190e:	24 f0       	brlt	.+8      	; 0x1918 <LCD_DrawText+0x32>
    1910:	6f 5f       	subi	r22, 0xFF	; 255
    1912:	7f 4f       	sbci	r23, 0xFF	; 255
    1914:	80 e0       	ldi	r24, 0x00	; 0
    1916:	90 e0       	ldi	r25, 0x00	; 0
    1918:	66 30       	cpi	r22, 0x06	; 6
    191a:	71 05       	cpc	r23, r1
    191c:	b4 f4       	brge	.+44     	; 0x194a <LCD_DrawText+0x64>
    191e:	f9 01       	movw	r30, r18
    1920:	ec 0f       	add	r30, r28
    1922:	fd 1f       	adc	r31, r29
    1924:	ed 5d       	subi	r30, 0xDD	; 221
    1926:	fc 4f       	sbci	r31, 0xFC	; 252
    1928:	e4 91       	lpm	r30, Z
    192a:	18 9f       	mul	r17, r24
    192c:	d0 01       	movw	r26, r0
    192e:	19 9f       	mul	r17, r25
    1930:	b0 0d       	add	r27, r0
    1932:	11 24       	eor	r1, r1
    1934:	a3 55       	subi	r26, 0x53	; 83
    1936:	be 4f       	sbci	r27, 0xFE	; 254
    1938:	a6 0f       	add	r26, r22
    193a:	b7 1f       	adc	r27, r23
    193c:	ec 93       	st	X, r30
    193e:	01 96       	adiw	r24, 0x01	; 1
    1940:	21 96       	adiw	r28, 0x01	; 1
    1942:	c6 30       	cpi	r28, 0x06	; 6
    1944:	d1 05       	cpc	r29, r1
    1946:	09 f7       	brne	.-62     	; 0x190a <LCD_DrawText+0x24>
    1948:	d2 cf       	rjmp	.-92     	; 0x18ee <LCD_DrawText+0x8>
    194a:	df 91       	pop	r29
    194c:	cf 91       	pop	r28
    194e:	1f 91       	pop	r17
    1950:	08 95       	ret

00001952 <LCD_DrawText_P>:
    1952:	df 92       	push	r13
    1954:	ef 92       	push	r14
    1956:	ff 92       	push	r15
    1958:	0f 93       	push	r16
    195a:	1f 93       	push	r17
    195c:	cf 93       	push	r28
    195e:	df 93       	push	r29
    1960:	ea 01       	movw	r28, r20
    1962:	46 e0       	ldi	r20, 0x06	; 6
    1964:	fe 01       	movw	r30, r28
    1966:	24 91       	lpm	r18, Z
    1968:	22 23       	and	r18, r18
    196a:	09 f4       	brne	.+2      	; 0x196e <LCD_DrawText_P+0x1c>
    196c:	45 c0       	rjmp	.+138    	; 0x19f8 <LCD_DrawText_P+0xa6>
    196e:	fe 01       	movw	r30, r28
    1970:	54 91       	lpm	r21, Z
    1972:	5d 30       	cpi	r21, 0x0D	; 13
    1974:	09 f4       	brne	.+2      	; 0x1978 <LCD_DrawText_P+0x26>
    1976:	40 c0       	rjmp	.+128    	; 0x19f8 <LCD_DrawText_P+0xa6>
    1978:	f6 e0       	ldi	r31, 0x06	; 6
    197a:	5f 9f       	mul	r21, r31
    197c:	90 01       	movw	r18, r0
    197e:	11 24       	eor	r1, r1
    1980:	e5 2f       	mov	r30, r21
    1982:	f0 e0       	ldi	r31, 0x00	; 0
    1984:	b0 97       	sbiw	r30, 0x20	; 32
    1986:	4e 9f       	mul	r20, r30
    1988:	80 01       	movw	r16, r0
    198a:	4f 9f       	mul	r20, r31
    198c:	10 0d       	add	r17, r0
    198e:	11 24       	eor	r1, r1
    1990:	79 01       	movw	r14, r18
    1992:	e6 e0       	ldi	r30, 0x06	; 6
    1994:	ee 0e       	add	r14, r30
    1996:	f1 1c       	adc	r15, r1
    1998:	dd 24       	eor	r13, r13
    199a:	da 94       	dec	r13
    199c:	d5 0e       	add	r13, r21
    199e:	02 1b       	sub	r16, r18
    19a0:	13 0b       	sbc	r17, r19
    19a2:	84 35       	cpi	r24, 0x54	; 84
    19a4:	91 05       	cpc	r25, r1
    19a6:	24 f0       	brlt	.+8      	; 0x19b0 <LCD_DrawText_P+0x5e>
    19a8:	6f 5f       	subi	r22, 0xFF	; 255
    19aa:	7f 4f       	sbci	r23, 0xFF	; 255
    19ac:	80 e0       	ldi	r24, 0x00	; 0
    19ae:	90 e0       	ldi	r25, 0x00	; 0
    19b0:	66 30       	cpi	r22, 0x06	; 6
    19b2:	71 05       	cpc	r23, r1
    19b4:	0c f5       	brge	.+66     	; 0x19f8 <LCD_DrawText_P+0xa6>
    19b6:	f5 e0       	ldi	r31, 0x05	; 5
    19b8:	fd 15       	cp	r31, r13
    19ba:	20 f0       	brcs	.+8      	; 0x19c4 <LCD_DrawText_P+0x72>
    19bc:	f9 01       	movw	r30, r18
    19be:	e7 50       	subi	r30, 0x07	; 7
    19c0:	fd 4f       	sbci	r31, 0xFD	; 253
    19c2:	07 c0       	rjmp	.+14     	; 0x19d2 <LCD_DrawText_P+0x80>
    19c4:	5f 37       	cpi	r21, 0x7F	; 127
    19c6:	80 f4       	brcc	.+32     	; 0x19e8 <LCD_DrawText_P+0x96>
    19c8:	f8 01       	movw	r30, r16
    19ca:	e2 0f       	add	r30, r18
    19cc:	f3 1f       	adc	r31, r19
    19ce:	ed 5d       	subi	r30, 0xDD	; 221
    19d0:	fc 4f       	sbci	r31, 0xFC	; 252
    19d2:	e4 91       	lpm	r30, Z
    19d4:	48 9f       	mul	r20, r24
    19d6:	d0 01       	movw	r26, r0
    19d8:	49 9f       	mul	r20, r25
    19da:	b0 0d       	add	r27, r0
    19dc:	11 24       	eor	r1, r1
    19de:	a3 55       	subi	r26, 0x53	; 83
    19e0:	be 4f       	sbci	r27, 0xFE	; 254
    19e2:	a6 0f       	add	r26, r22
    19e4:	b7 1f       	adc	r27, r23
    19e6:	ec 93       	st	X, r30
    19e8:	01 96       	adiw	r24, 0x01	; 1
    19ea:	2f 5f       	subi	r18, 0xFF	; 255
    19ec:	3f 4f       	sbci	r19, 0xFF	; 255
    19ee:	2e 15       	cp	r18, r14
    19f0:	3f 05       	cpc	r19, r15
    19f2:	b9 f6       	brne	.-82     	; 0x19a2 <LCD_DrawText_P+0x50>
    19f4:	21 96       	adiw	r28, 0x01	; 1
    19f6:	b6 cf       	rjmp	.-148    	; 0x1964 <LCD_DrawText_P+0x12>
    19f8:	df 91       	pop	r29
    19fa:	cf 91       	pop	r28
    19fc:	1f 91       	pop	r17
    19fe:	0f 91       	pop	r16
    1a00:	ff 90       	pop	r15
    1a02:	ef 90       	pop	r14
    1a04:	df 90       	pop	r13
    1a06:	08 95       	ret

00001a08 <LCD_SetPixel>:
    1a08:	28 2f       	mov	r18, r24
    1a0a:	88 0f       	add	r24, r24
    1a0c:	33 0b       	sbc	r19, r19
    1a0e:	96 2f       	mov	r25, r22
    1a10:	97 78       	andi	r25, 0x87	; 135
    1a12:	40 ff       	sbrs	r20, 0
    1a14:	2f c0       	rjmp	.+94     	; 0x1a74 <LCD_SetPixel+0x6c>
    1a16:	67 fd       	sbrc	r22, 7
    1a18:	69 5f       	subi	r22, 0xF9	; 249
    1a1a:	65 95       	asr	r22
    1a1c:	65 95       	asr	r22
    1a1e:	65 95       	asr	r22
    1a20:	06 2e       	mov	r0, r22
    1a22:	00 0c       	add	r0, r0
    1a24:	77 0b       	sbc	r23, r23
    1a26:	86 e0       	ldi	r24, 0x06	; 6
    1a28:	82 9f       	mul	r24, r18
    1a2a:	f0 01       	movw	r30, r0
    1a2c:	83 9f       	mul	r24, r19
    1a2e:	f0 0d       	add	r31, r0
    1a30:	11 24       	eor	r1, r1
    1a32:	e3 55       	subi	r30, 0x53	; 83
    1a34:	fe 4f       	sbci	r31, 0xFE	; 254
    1a36:	e6 0f       	add	r30, r22
    1a38:	f7 1f       	adc	r31, r23
    1a3a:	97 ff       	sbrs	r25, 7
    1a3c:	03 c0       	rjmp	.+6      	; 0x1a44 <LCD_SetPixel+0x3c>
    1a3e:	91 50       	subi	r25, 0x01	; 1
    1a40:	98 6f       	ori	r25, 0xF8	; 248
    1a42:	9f 5f       	subi	r25, 0xFF	; 255
    1a44:	41 e0       	ldi	r20, 0x01	; 1
    1a46:	50 e0       	ldi	r21, 0x00	; 0
    1a48:	da 01       	movw	r26, r20
    1a4a:	02 c0       	rjmp	.+4      	; 0x1a50 <LCD_SetPixel+0x48>
    1a4c:	aa 0f       	add	r26, r26
    1a4e:	bb 1f       	adc	r27, r27
    1a50:	9a 95       	dec	r25
    1a52:	e2 f7       	brpl	.-8      	; 0x1a4c <LCD_SetPixel+0x44>
    1a54:	cd 01       	movw	r24, r26
    1a56:	96 e0       	ldi	r25, 0x06	; 6
    1a58:	92 9f       	mul	r25, r18
    1a5a:	a0 01       	movw	r20, r0
    1a5c:	93 9f       	mul	r25, r19
    1a5e:	50 0d       	add	r21, r0
    1a60:	11 24       	eor	r1, r1
    1a62:	9a 01       	movw	r18, r20
    1a64:	23 55       	subi	r18, 0x53	; 83
    1a66:	3e 4f       	sbci	r19, 0xFE	; 254
    1a68:	d9 01       	movw	r26, r18
    1a6a:	a6 0f       	add	r26, r22
    1a6c:	b7 1f       	adc	r27, r23
    1a6e:	9c 91       	ld	r25, X
    1a70:	89 2b       	or	r24, r25
    1a72:	2f c0       	rjmp	.+94     	; 0x1ad2 <LCD_SetPixel+0xca>
    1a74:	67 fd       	sbrc	r22, 7
    1a76:	69 5f       	subi	r22, 0xF9	; 249
    1a78:	65 95       	asr	r22
    1a7a:	65 95       	asr	r22
    1a7c:	65 95       	asr	r22
    1a7e:	06 2e       	mov	r0, r22
    1a80:	00 0c       	add	r0, r0
    1a82:	77 0b       	sbc	r23, r23
    1a84:	86 e0       	ldi	r24, 0x06	; 6
    1a86:	82 9f       	mul	r24, r18
    1a88:	f0 01       	movw	r30, r0
    1a8a:	83 9f       	mul	r24, r19
    1a8c:	f0 0d       	add	r31, r0
    1a8e:	11 24       	eor	r1, r1
    1a90:	e3 55       	subi	r30, 0x53	; 83
    1a92:	fe 4f       	sbci	r31, 0xFE	; 254
    1a94:	e6 0f       	add	r30, r22
    1a96:	f7 1f       	adc	r31, r23
    1a98:	97 ff       	sbrs	r25, 7
    1a9a:	03 c0       	rjmp	.+6      	; 0x1aa2 <LCD_SetPixel+0x9a>
    1a9c:	91 50       	subi	r25, 0x01	; 1
    1a9e:	98 6f       	ori	r25, 0xF8	; 248
    1aa0:	9f 5f       	subi	r25, 0xFF	; 255
    1aa2:	41 e0       	ldi	r20, 0x01	; 1
    1aa4:	50 e0       	ldi	r21, 0x00	; 0
    1aa6:	da 01       	movw	r26, r20
    1aa8:	02 c0       	rjmp	.+4      	; 0x1aae <LCD_SetPixel+0xa6>
    1aaa:	aa 0f       	add	r26, r26
    1aac:	bb 1f       	adc	r27, r27
    1aae:	9a 95       	dec	r25
    1ab0:	e2 f7       	brpl	.-8      	; 0x1aaa <LCD_SetPixel+0xa2>
    1ab2:	cd 01       	movw	r24, r26
    1ab4:	80 95       	com	r24
    1ab6:	96 e0       	ldi	r25, 0x06	; 6
    1ab8:	92 9f       	mul	r25, r18
    1aba:	a0 01       	movw	r20, r0
    1abc:	93 9f       	mul	r25, r19
    1abe:	50 0d       	add	r21, r0
    1ac0:	11 24       	eor	r1, r1
    1ac2:	9a 01       	movw	r18, r20
    1ac4:	23 55       	subi	r18, 0x53	; 83
    1ac6:	3e 4f       	sbci	r19, 0xFE	; 254
    1ac8:	d9 01       	movw	r26, r18
    1aca:	a6 0f       	add	r26, r22
    1acc:	b7 1f       	adc	r27, r23
    1ace:	9c 91       	ld	r25, X
    1ad0:	89 23       	and	r24, r25
    1ad2:	80 83       	st	Z, r24
    1ad4:	08 95       	ret

00001ad6 <LCD_SetDramByte>:
    1ad6:	26 e0       	ldi	r18, 0x06	; 6
    1ad8:	82 02       	muls	r24, r18
    1ada:	c0 01       	movw	r24, r0
    1adc:	11 24       	eor	r1, r1
    1ade:	fc 01       	movw	r30, r24
    1ae0:	e3 55       	subi	r30, 0x53	; 83
    1ae2:	fe 4f       	sbci	r31, 0xFE	; 254
    1ae4:	e6 0f       	add	r30, r22
    1ae6:	f1 1d       	adc	r31, r1
    1ae8:	67 fd       	sbrc	r22, 7
    1aea:	fa 95       	dec	r31
    1aec:	40 83       	st	Z, r20
    1aee:	08 95       	ret

00001af0 <LCD_DrawSprite_P>:
    1af0:	2f 92       	push	r2
    1af2:	3f 92       	push	r3
    1af4:	4f 92       	push	r4
    1af6:	5f 92       	push	r5
    1af8:	6f 92       	push	r6
    1afa:	7f 92       	push	r7
    1afc:	8f 92       	push	r8
    1afe:	9f 92       	push	r9
    1b00:	af 92       	push	r10
    1b02:	bf 92       	push	r11
    1b04:	cf 92       	push	r12
    1b06:	df 92       	push	r13
    1b08:	ef 92       	push	r14
    1b0a:	ff 92       	push	r15
    1b0c:	0f 93       	push	r16
    1b0e:	1f 93       	push	r17
    1b10:	cf 93       	push	r28
    1b12:	df 93       	push	r29
    1b14:	cd b7       	in	r28, 0x3d	; 61
    1b16:	de b7       	in	r29, 0x3e	; 62
    1b18:	2b 97       	sbiw	r28, 0x0b	; 11
    1b1a:	0f b6       	in	r0, 0x3f	; 63
    1b1c:	f8 94       	cli
    1b1e:	de bf       	out	0x3e, r29	; 62
    1b20:	0f be       	out	0x3f, r0	; 63
    1b22:	cd bf       	out	0x3d, r28	; 61
    1b24:	68 2e       	mov	r6, r24
    1b26:	76 2e       	mov	r7, r22
    1b28:	7a 01       	movw	r14, r20
    1b2a:	22 2e       	mov	r2, r18
    1b2c:	10 2f       	mov	r17, r16
    1b2e:	07 ff       	sbrs	r16, 7
    1b30:	02 c0       	rjmp	.+4      	; 0x1b36 <LCD_DrawSprite_P+0x46>
    1b32:	17 e0       	ldi	r17, 0x07	; 7
    1b34:	10 0f       	add	r17, r16
    1b36:	15 95       	asr	r17
    1b38:	15 95       	asr	r17
    1b3a:	15 95       	asr	r17
    1b3c:	21 2f       	mov	r18, r17
    1b3e:	01 2e       	mov	r0, r17
    1b40:	00 0c       	add	r0, r0
    1b42:	33 0b       	sbc	r19, r19
    1b44:	3a 83       	std	Y+2, r19	; 0x02
    1b46:	29 83       	std	Y+1, r18	; 0x01
    1b48:	37 2c       	mov	r3, r7
    1b4a:	41 2c       	mov	r4, r1
    1b4c:	c2 2c       	mov	r12, r2
    1b4e:	02 2c       	mov	r0, r2
    1b50:	00 0c       	add	r0, r0
    1b52:	dd 08       	sbc	r13, r13
    1b54:	a6 2c       	mov	r10, r6
    1b56:	06 2c       	mov	r0, r6
    1b58:	00 0c       	add	r0, r0
    1b5a:	bb 08       	sbc	r11, r11
    1b5c:	87 2d       	mov	r24, r7
    1b5e:	07 2c       	mov	r0, r7
    1b60:	00 0c       	add	r0, r0
    1b62:	99 0b       	sbc	r25, r25
    1b64:	99 87       	std	Y+9, r25	; 0x09
    1b66:	88 87       	std	Y+8, r24	; 0x08
    1b68:	84 2d       	mov	r24, r4
    1b6a:	90 e0       	ldi	r25, 0x00	; 0
    1b6c:	29 81       	ldd	r18, Y+1	; 0x01
    1b6e:	3a 81       	ldd	r19, Y+2	; 0x02
    1b70:	82 17       	cp	r24, r18
    1b72:	93 07       	cpc	r25, r19
    1b74:	0c f0       	brlt	.+2      	; 0x1b78 <LCD_DrawSprite_P+0x88>
    1b76:	4e c0       	rjmp	.+156    	; 0x1c14 <LCD_DrawSprite_P+0x124>
    1b78:	34 2d       	mov	r19, r4
    1b7a:	22 2d       	mov	r18, r2
    1b7c:	23 03       	mulsu	r18, r19
    1b7e:	90 01       	movw	r18, r0
    1b80:	11 24       	eor	r1, r1
    1b82:	3c 83       	std	Y+4, r19	; 0x04
    1b84:	2b 83       	std	Y+3, r18	; 0x03
    1b86:	23 e0       	ldi	r18, 0x03	; 3
    1b88:	88 0f       	add	r24, r24
    1b8a:	99 1f       	adc	r25, r25
    1b8c:	2a 95       	dec	r18
    1b8e:	e1 f7       	brne	.-8      	; 0x1b88 <LCD_DrawSprite_P+0x98>
    1b90:	51 2c       	mov	r5, r1
    1b92:	28 85       	ldd	r18, Y+8	; 0x08
    1b94:	39 85       	ldd	r19, Y+9	; 0x09
    1b96:	28 0f       	add	r18, r24
    1b98:	39 1f       	adc	r19, r25
    1b9a:	3f 83       	std	Y+7, r19	; 0x07
    1b9c:	2e 83       	std	Y+6, r18	; 0x06
    1b9e:	e5 2d       	mov	r30, r5
    1ba0:	f0 e0       	ldi	r31, 0x00	; 0
    1ba2:	ec 15       	cp	r30, r12
    1ba4:	fd 05       	cpc	r31, r13
    1ba6:	94 f5       	brge	.+100    	; 0x1c0c <LCD_DrawSprite_P+0x11c>
    1ba8:	c5 01       	movw	r24, r10
    1baa:	8e 0f       	add	r24, r30
    1bac:	9f 1f       	adc	r25, r31
    1bae:	84 35       	cpi	r24, 0x54	; 84
    1bb0:	91 05       	cpc	r25, r1
    1bb2:	64 f5       	brge	.+88     	; 0x1c0c <LCD_DrawSprite_P+0x11c>
    1bb4:	2b 81       	ldd	r18, Y+3	; 0x03
    1bb6:	3c 81       	ldd	r19, Y+4	; 0x04
    1bb8:	e2 0f       	add	r30, r18
    1bba:	f3 1f       	adc	r31, r19
    1bbc:	ee 0d       	add	r30, r14
    1bbe:	ff 1d       	adc	r31, r15
    1bc0:	e4 91       	lpm	r30, Z
    1bc2:	81 2c       	mov	r8, r1
    1bc4:	91 2c       	mov	r9, r1
    1bc6:	8e 2f       	mov	r24, r30
    1bc8:	90 e0       	ldi	r25, 0x00	; 0
    1bca:	9b 87       	std	Y+11, r25	; 0x0b
    1bcc:	8a 87       	std	Y+10, r24	; 0x0a
    1bce:	96 2d       	mov	r25, r6
    1bd0:	95 0d       	add	r25, r5
    1bd2:	9d 83       	std	Y+5, r25	; 0x05
    1bd4:	8e 81       	ldd	r24, Y+6	; 0x06
    1bd6:	9f 81       	ldd	r25, Y+7	; 0x07
    1bd8:	88 0d       	add	r24, r8
    1bda:	99 1d       	adc	r25, r9
    1bdc:	c0 97       	sbiw	r24, 0x30	; 48
    1bde:	a4 f4       	brge	.+40     	; 0x1c08 <LCD_DrawSprite_P+0x118>
    1be0:	4a 85       	ldd	r20, Y+10	; 0x0a
    1be2:	5b 85       	ldd	r21, Y+11	; 0x0b
    1be4:	08 2c       	mov	r0, r8
    1be6:	02 c0       	rjmp	.+4      	; 0x1bec <LCD_DrawSprite_P+0xfc>
    1be8:	55 95       	asr	r21
    1bea:	47 95       	ror	r20
    1bec:	0a 94       	dec	r0
    1bee:	e2 f7       	brpl	.-8      	; 0x1be8 <LCD_DrawSprite_P+0xf8>
    1bf0:	63 2d       	mov	r22, r3
    1bf2:	68 0d       	add	r22, r8
    1bf4:	8d 81       	ldd	r24, Y+5	; 0x05
    1bf6:	0e 94 04 0d 	call	0x1a08	; 0x1a08 <LCD_SetPixel>
    1bfa:	2f ef       	ldi	r18, 0xFF	; 255
    1bfc:	82 1a       	sub	r8, r18
    1bfe:	92 0a       	sbc	r9, r18
    1c00:	38 e0       	ldi	r19, 0x08	; 8
    1c02:	83 16       	cp	r8, r19
    1c04:	91 04       	cpc	r9, r1
    1c06:	31 f7       	brne	.-52     	; 0x1bd4 <LCD_DrawSprite_P+0xe4>
    1c08:	53 94       	inc	r5
    1c0a:	c9 cf       	rjmp	.-110    	; 0x1b9e <LCD_DrawSprite_P+0xae>
    1c0c:	43 94       	inc	r4
    1c0e:	88 e0       	ldi	r24, 0x08	; 8
    1c10:	38 0e       	add	r3, r24
    1c12:	aa cf       	rjmp	.-172    	; 0x1b68 <LCD_DrawSprite_P+0x78>
    1c14:	32 2d       	mov	r19, r2
    1c16:	31 03       	mulsu	r19, r17
    1c18:	10 01       	movw	r2, r0
    1c1a:	11 24       	eor	r1, r1
    1c1c:	07 78       	andi	r16, 0x87	; 135
    1c1e:	07 ff       	sbrs	r16, 7
    1c20:	03 c0       	rjmp	.+6      	; 0x1c28 <LCD_DrawSprite_P+0x138>
    1c22:	01 50       	subi	r16, 0x01	; 1
    1c24:	08 6f       	ori	r16, 0xF8	; 248
    1c26:	0f 5f       	subi	r16, 0xFF	; 255
    1c28:	80 2e       	mov	r8, r16
    1c2a:	00 0f       	add	r16, r16
    1c2c:	99 08       	sbc	r9, r9
    1c2e:	88 e0       	ldi	r24, 0x08	; 8
    1c30:	18 9f       	mul	r17, r24
    1c32:	50 01       	movw	r10, r0
    1c34:	11 24       	eor	r1, r1
    1c36:	27 2d       	mov	r18, r7
    1c38:	98 e0       	ldi	r25, 0x08	; 8
    1c3a:	19 9f       	mul	r17, r25
    1c3c:	20 0d       	add	r18, r0
    1c3e:	11 24       	eor	r1, r1
    1c40:	29 83       	std	Y+1, r18	; 0x01
    1c42:	51 2c       	mov	r5, r1
    1c44:	86 2d       	mov	r24, r6
    1c46:	06 2c       	mov	r0, r6
    1c48:	00 0c       	add	r0, r0
    1c4a:	99 0b       	sbc	r25, r25
    1c4c:	9c 83       	std	Y+4, r25	; 0x04
    1c4e:	8b 83       	std	Y+3, r24	; 0x03
    1c50:	07 2d       	mov	r16, r7
    1c52:	77 0c       	add	r7, r7
    1c54:	11 0b       	sbc	r17, r17
    1c56:	e5 2d       	mov	r30, r5
    1c58:	f0 e0       	ldi	r31, 0x00	; 0
    1c5a:	ec 15       	cp	r30, r12
    1c5c:	fd 05       	cpc	r31, r13
    1c5e:	7c f5       	brge	.+94     	; 0x1cbe <LCD_DrawSprite_P+0x1ce>
    1c60:	8b 81       	ldd	r24, Y+3	; 0x03
    1c62:	9c 81       	ldd	r25, Y+4	; 0x04
    1c64:	8e 0f       	add	r24, r30
    1c66:	9f 1f       	adc	r25, r31
    1c68:	84 35       	cpi	r24, 0x54	; 84
    1c6a:	91 05       	cpc	r25, r1
    1c6c:	44 f5       	brge	.+80     	; 0x1cbe <LCD_DrawSprite_P+0x1ce>
    1c6e:	e2 0d       	add	r30, r2
    1c70:	f3 1d       	adc	r31, r3
    1c72:	ee 0d       	add	r30, r14
    1c74:	ff 1d       	adc	r31, r15
    1c76:	e4 91       	lpm	r30, Z
    1c78:	71 2c       	mov	r7, r1
    1c7a:	2e 2f       	mov	r18, r30
    1c7c:	30 e0       	ldi	r19, 0x00	; 0
    1c7e:	3f 83       	std	Y+7, r19	; 0x07
    1c80:	2e 83       	std	Y+6, r18	; 0x06
    1c82:	46 2c       	mov	r4, r6
    1c84:	45 0c       	add	r4, r5
    1c86:	27 2d       	mov	r18, r7
    1c88:	30 e0       	ldi	r19, 0x00	; 0
    1c8a:	28 15       	cp	r18, r8
    1c8c:	39 05       	cpc	r19, r9
    1c8e:	ac f4       	brge	.+42     	; 0x1cba <LCD_DrawSprite_P+0x1ca>
    1c90:	c8 01       	movw	r24, r16
    1c92:	82 0f       	add	r24, r18
    1c94:	93 1f       	adc	r25, r19
    1c96:	8a 0d       	add	r24, r10
    1c98:	9b 1d       	adc	r25, r11
    1c9a:	c0 97       	sbiw	r24, 0x30	; 48
    1c9c:	74 f4       	brge	.+28     	; 0x1cba <LCD_DrawSprite_P+0x1ca>
    1c9e:	4e 81       	ldd	r20, Y+6	; 0x06
    1ca0:	5f 81       	ldd	r21, Y+7	; 0x07
    1ca2:	02 c0       	rjmp	.+4      	; 0x1ca8 <LCD_DrawSprite_P+0x1b8>
    1ca4:	55 95       	asr	r21
    1ca6:	47 95       	ror	r20
    1ca8:	2a 95       	dec	r18
    1caa:	e2 f7       	brpl	.-8      	; 0x1ca4 <LCD_DrawSprite_P+0x1b4>
    1cac:	69 81       	ldd	r22, Y+1	; 0x01
    1cae:	67 0d       	add	r22, r7
    1cb0:	84 2d       	mov	r24, r4
    1cb2:	0e 94 04 0d 	call	0x1a08	; 0x1a08 <LCD_SetPixel>
    1cb6:	73 94       	inc	r7
    1cb8:	e6 cf       	rjmp	.-52     	; 0x1c86 <LCD_DrawSprite_P+0x196>
    1cba:	53 94       	inc	r5
    1cbc:	cc cf       	rjmp	.-104    	; 0x1c56 <LCD_DrawSprite_P+0x166>
    1cbe:	2b 96       	adiw	r28, 0x0b	; 11
    1cc0:	0f b6       	in	r0, 0x3f	; 63
    1cc2:	f8 94       	cli
    1cc4:	de bf       	out	0x3e, r29	; 62
    1cc6:	0f be       	out	0x3f, r0	; 63
    1cc8:	cd bf       	out	0x3d, r28	; 61
    1cca:	df 91       	pop	r29
    1ccc:	cf 91       	pop	r28
    1cce:	1f 91       	pop	r17
    1cd0:	0f 91       	pop	r16
    1cd2:	ff 90       	pop	r15
    1cd4:	ef 90       	pop	r14
    1cd6:	df 90       	pop	r13
    1cd8:	cf 90       	pop	r12
    1cda:	bf 90       	pop	r11
    1cdc:	af 90       	pop	r10
    1cde:	9f 90       	pop	r9
    1ce0:	8f 90       	pop	r8
    1ce2:	7f 90       	pop	r7
    1ce4:	6f 90       	pop	r6
    1ce6:	5f 90       	pop	r5
    1ce8:	4f 90       	pop	r4
    1cea:	3f 90       	pop	r3
    1cec:	2f 90       	pop	r2
    1cee:	08 95       	ret

00001cf0 <LCD_InvertCell>:
    1cf0:	06 2e       	mov	r0, r22
    1cf2:	00 0c       	add	r0, r0
    1cf4:	77 0b       	sbc	r23, r23
    1cf6:	94 e2       	ldi	r25, 0x24	; 36
    1cf8:	89 02       	muls	r24, r25
    1cfa:	60 0d       	add	r22, r0
    1cfc:	71 1d       	adc	r23, r1
    1cfe:	11 24       	eor	r1, r1
    1d00:	80 e0       	ldi	r24, 0x00	; 0
    1d02:	90 e0       	ldi	r25, 0x00	; 0
    1d04:	fc 01       	movw	r30, r24
    1d06:	e6 0f       	add	r30, r22
    1d08:	f7 1f       	adc	r31, r23
    1d0a:	e3 55       	subi	r30, 0x53	; 83
    1d0c:	fe 4f       	sbci	r31, 0xFE	; 254
    1d0e:	20 81       	ld	r18, Z
    1d10:	20 95       	com	r18
    1d12:	20 83       	st	Z, r18
    1d14:	06 96       	adiw	r24, 0x06	; 6
    1d16:	84 32       	cpi	r24, 0x24	; 36
    1d18:	91 05       	cpc	r25, r1
    1d1a:	a1 f7       	brne	.-24     	; 0x1d04 <LCD_InvertCell+0x14>
    1d1c:	08 95       	ret

00001d1e <LCD_Render>:
    1d1e:	ef 92       	push	r14
    1d20:	ff 92       	push	r15
    1d22:	1f 93       	push	r17
    1d24:	cf 93       	push	r28
    1d26:	df 93       	push	r29
    1d28:	2b 9a       	sbi	0x05, 3	; 5
    1d2a:	2d 98       	cbi	0x05, 5	; 5
    1d2c:	8d ea       	ldi	r24, 0xAD	; 173
    1d2e:	e8 2e       	mov	r14, r24
    1d30:	81 e0       	ldi	r24, 0x01	; 1
    1d32:	f8 2e       	mov	r15, r24
    1d34:	16 e0       	ldi	r17, 0x06	; 6
    1d36:	c0 e0       	ldi	r28, 0x00	; 0
    1d38:	d0 e0       	ldi	r29, 0x00	; 0
    1d3a:	f7 01       	movw	r30, r14
    1d3c:	ec 0f       	add	r30, r28
    1d3e:	fd 1f       	adc	r31, r29
    1d40:	80 81       	ld	r24, Z
    1d42:	0e 94 26 0c 	call	0x184c	; 0x184c <LCD_WriteByte>
    1d46:	26 96       	adiw	r28, 0x06	; 6
    1d48:	c8 3f       	cpi	r28, 0xF8	; 248
    1d4a:	81 e0       	ldi	r24, 0x01	; 1
    1d4c:	d8 07       	cpc	r29, r24
    1d4e:	a9 f7       	brne	.-22     	; 0x1d3a <LCD_Render+0x1c>
    1d50:	11 50       	subi	r17, 0x01	; 1
    1d52:	8f ef       	ldi	r24, 0xFF	; 255
    1d54:	e8 1a       	sub	r14, r24
    1d56:	f8 0a       	sbc	r15, r24
    1d58:	11 11       	cpse	r17, r1
    1d5a:	ed cf       	rjmp	.-38     	; 0x1d36 <LCD_Render+0x18>
    1d5c:	2d 9a       	sbi	0x05, 5	; 5
    1d5e:	df 91       	pop	r29
    1d60:	cf 91       	pop	r28
    1d62:	1f 91       	pop	r17
    1d64:	ff 90       	pop	r15
    1d66:	ef 90       	pop	r14
    1d68:	08 95       	ret

00001d6a <LCD_SetBrightness>:
    1d6a:	cf 93       	push	r28
    1d6c:	c8 2f       	mov	r28, r24
    1d6e:	82 34       	cpi	r24, 0x42	; 66
    1d70:	20 f4       	brcc	.+8      	; 0x1d7a <LCD_SetBrightness+0x10>
    1d72:	8d 32       	cpi	r24, 0x2D	; 45
    1d74:	18 f4       	brcc	.+6      	; 0x1d7c <LCD_SetBrightness+0x12>
    1d76:	cd e2       	ldi	r28, 0x2D	; 45
    1d78:	01 c0       	rjmp	.+2      	; 0x1d7c <LCD_SetBrightness+0x12>
    1d7a:	c1 e4       	ldi	r28, 0x41	; 65
    1d7c:	81 e2       	ldi	r24, 0x21	; 33
    1d7e:	0e 94 4f 0c 	call	0x189e	; 0x189e <LCD_SendCommand>
    1d82:	8c 2f       	mov	r24, r28
    1d84:	80 68       	ori	r24, 0x80	; 128
    1d86:	0e 94 4f 0c 	call	0x189e	; 0x189e <LCD_SendCommand>
    1d8a:	80 e2       	ldi	r24, 0x20	; 32
    1d8c:	cf 91       	pop	r28
    1d8e:	0c 94 4f 0c 	jmp	0x189e	; 0x189e <LCD_SendCommand>

00001d92 <LCD_SetupBacklight>:
    1d92:	53 9a       	sbi	0x0a, 3	; 10
    1d94:	e0 eb       	ldi	r30, 0xB0	; 176
    1d96:	f0 e0       	ldi	r31, 0x00	; 0
    1d98:	80 81       	ld	r24, Z
    1d9a:	83 62       	ori	r24, 0x23	; 35
    1d9c:	80 83       	st	Z, r24
    1d9e:	e1 eb       	ldi	r30, 0xB1	; 177
    1da0:	f0 e0       	ldi	r31, 0x00	; 0
    1da2:	80 81       	ld	r24, Z
    1da4:	8d 61       	ori	r24, 0x1D	; 29
    1da6:	80 83       	st	Z, r24
    1da8:	84 e6       	ldi	r24, 0x64	; 100
    1daa:	80 93 b3 00 	sts	0x00B3, r24	; 0x8000b3 <__DATA_REGION_ORIGIN__+0x53>
    1dae:	80 93 b4 00 	sts	0x00B4, r24	; 0x8000b4 <__DATA_REGION_ORIGIN__+0x54>
    1db2:	08 95       	ret

00001db4 <LCD_SetBacklightBrightness>:
    1db4:	85 36       	cpi	r24, 0x65	; 101
    1db6:	08 f0       	brcs	.+2      	; 0x1dba <LCD_SetBacklightBrightness+0x6>
    1db8:	84 e6       	ldi	r24, 0x64	; 100
    1dba:	94 e6       	ldi	r25, 0x64	; 100
    1dbc:	98 1b       	sub	r25, r24
    1dbe:	90 93 b4 00 	sts	0x00B4, r25	; 0x8000b4 <__DATA_REGION_ORIGIN__+0x54>
    1dc2:	08 95       	ret

00001dc4 <Screen_ManualSSID>:
    1dc4:	cf 93       	push	r28
    1dc6:	df 93       	push	r29
    1dc8:	cd b7       	in	r28, 0x3d	; 61
    1dca:	de b7       	in	r29, 0x3e	; 62
    1dcc:	a0 97       	sbiw	r28, 0x20	; 32
    1dce:	0f b6       	in	r0, 0x3f	; 63
    1dd0:	f8 94       	cli
    1dd2:	de bf       	out	0x3e, r29	; 62
    1dd4:	0f be       	out	0x3f, r0	; 63
    1dd6:	cd bf       	out	0x3d, r28	; 61
    1dd8:	40 e2       	ldi	r20, 0x20	; 32
    1dda:	50 e0       	ldi	r21, 0x00	; 0
    1ddc:	63 eb       	ldi	r22, 0xB3	; 179
    1dde:	71 e0       	ldi	r23, 0x01	; 1
    1de0:	ce 01       	movw	r24, r28
    1de2:	01 96       	adiw	r24, 0x01	; 1
    1de4:	0e 94 de 32 	call	0x65bc	; 0x65bc <eeprom_read_block>
    1de8:	4a e8       	ldi	r20, 0x8A	; 138
    1dea:	57 e0       	ldi	r21, 0x07	; 7
    1dec:	60 e2       	ldi	r22, 0x20	; 32
    1dee:	ce 01       	movw	r24, r28
    1df0:	01 96       	adiw	r24, 0x01	; 1
    1df2:	0e 94 37 08 	call	0x106e	; 0x106e <Interface_Keyboard_P>
    1df6:	01 96       	adiw	r24, 0x01	; 1
    1df8:	41 f0       	breq	.+16     	; 0x1e0a <Screen_ManualSSID+0x46>
    1dfa:	40 e2       	ldi	r20, 0x20	; 32
    1dfc:	50 e0       	ldi	r21, 0x00	; 0
    1dfe:	63 eb       	ldi	r22, 0xB3	; 179
    1e00:	71 e0       	ldi	r23, 0x01	; 1
    1e02:	ce 01       	movw	r24, r28
    1e04:	01 96       	adiw	r24, 0x01	; 1
    1e06:	0e 94 fc 32 	call	0x65f8	; 0x65f8 <eeprom_update_block>
    1e0a:	a0 96       	adiw	r28, 0x20	; 32
    1e0c:	0f b6       	in	r0, 0x3f	; 63
    1e0e:	f8 94       	cli
    1e10:	de bf       	out	0x3e, r29	; 62
    1e12:	0f be       	out	0x3f, r0	; 63
    1e14:	cd bf       	out	0x3d, r28	; 61
    1e16:	df 91       	pop	r29
    1e18:	cf 91       	pop	r28
    1e1a:	08 95       	ret

00001e1c <Screen_Password>:
    1e1c:	cf 93       	push	r28
    1e1e:	df 93       	push	r29
    1e20:	cd b7       	in	r28, 0x3d	; 61
    1e22:	de b7       	in	r29, 0x3e	; 62
    1e24:	c0 54       	subi	r28, 0x40	; 64
    1e26:	d1 09       	sbc	r29, r1
    1e28:	0f b6       	in	r0, 0x3f	; 63
    1e2a:	f8 94       	cli
    1e2c:	de bf       	out	0x3e, r29	; 62
    1e2e:	0f be       	out	0x3f, r0	; 63
    1e30:	cd bf       	out	0x3d, r28	; 61
    1e32:	40 e4       	ldi	r20, 0x40	; 64
    1e34:	50 e0       	ldi	r21, 0x00	; 0
    1e36:	63 e7       	ldi	r22, 0x73	; 115
    1e38:	71 e0       	ldi	r23, 0x01	; 1
    1e3a:	ce 01       	movw	r24, r28
    1e3c:	01 96       	adiw	r24, 0x01	; 1
    1e3e:	0e 94 de 32 	call	0x65bc	; 0x65bc <eeprom_read_block>
    1e42:	4b e7       	ldi	r20, 0x7B	; 123
    1e44:	57 e0       	ldi	r21, 0x07	; 7
    1e46:	60 e4       	ldi	r22, 0x40	; 64
    1e48:	ce 01       	movw	r24, r28
    1e4a:	01 96       	adiw	r24, 0x01	; 1
    1e4c:	0e 94 37 08 	call	0x106e	; 0x106e <Interface_Keyboard_P>
    1e50:	01 96       	adiw	r24, 0x01	; 1
    1e52:	41 f0       	breq	.+16     	; 0x1e64 <Screen_Password+0x48>
    1e54:	40 e4       	ldi	r20, 0x40	; 64
    1e56:	50 e0       	ldi	r21, 0x00	; 0
    1e58:	63 e7       	ldi	r22, 0x73	; 115
    1e5a:	71 e0       	ldi	r23, 0x01	; 1
    1e5c:	ce 01       	movw	r24, r28
    1e5e:	01 96       	adiw	r24, 0x01	; 1
    1e60:	0e 94 fc 32 	call	0x65f8	; 0x65f8 <eeprom_update_block>
    1e64:	c0 5c       	subi	r28, 0xC0	; 192
    1e66:	df 4f       	sbci	r29, 0xFF	; 255
    1e68:	0f b6       	in	r0, 0x3f	; 63
    1e6a:	f8 94       	cli
    1e6c:	de bf       	out	0x3e, r29	; 62
    1e6e:	0f be       	out	0x3f, r0	; 63
    1e70:	cd bf       	out	0x3d, r28	; 61
    1e72:	df 91       	pop	r29
    1e74:	cf 91       	pop	r28
    1e76:	08 95       	ret

00001e78 <Screen_IOName>:
    1e78:	cf 93       	push	r28
    1e7a:	df 93       	push	r29
    1e7c:	cd b7       	in	r28, 0x3d	; 61
    1e7e:	de b7       	in	r29, 0x3e	; 62
    1e80:	28 97       	sbiw	r28, 0x08	; 8
    1e82:	0f b6       	in	r0, 0x3f	; 63
    1e84:	f8 94       	cli
    1e86:	de bf       	out	0x3e, r29	; 62
    1e88:	0f be       	out	0x3f, r0	; 63
    1e8a:	cd bf       	out	0x3d, r28	; 61
    1e8c:	60 91 2d 04 	lds	r22, 0x042D	; 0x80042d <SelectedSensorOpt>
    1e90:	28 e0       	ldi	r18, 0x08	; 8
    1e92:	62 9f       	mul	r22, r18
    1e94:	b0 01       	movw	r22, r0
    1e96:	11 24       	eor	r1, r1
    1e98:	6f 5f       	subi	r22, 0xFF	; 255
    1e9a:	7e 4f       	sbci	r23, 0xFE	; 254
    1e9c:	48 e0       	ldi	r20, 0x08	; 8
    1e9e:	50 e0       	ldi	r21, 0x00	; 0
    1ea0:	ce 01       	movw	r24, r28
    1ea2:	01 96       	adiw	r24, 0x01	; 1
    1ea4:	0e 94 de 32 	call	0x65bc	; 0x65bc <eeprom_read_block>
    1ea8:	4c e3       	ldi	r20, 0x3C	; 60
    1eaa:	57 e0       	ldi	r21, 0x07	; 7
    1eac:	68 e0       	ldi	r22, 0x08	; 8
    1eae:	ce 01       	movw	r24, r28
    1eb0:	01 96       	adiw	r24, 0x01	; 1
    1eb2:	0e 94 37 08 	call	0x106e	; 0x106e <Interface_Keyboard_P>
    1eb6:	01 96       	adiw	r24, 0x01	; 1
    1eb8:	71 f0       	breq	.+28     	; 0x1ed6 <Screen_IOName+0x5e>
    1eba:	60 91 2d 04 	lds	r22, 0x042D	; 0x80042d <SelectedSensorOpt>
    1ebe:	88 e0       	ldi	r24, 0x08	; 8
    1ec0:	68 9f       	mul	r22, r24
    1ec2:	b0 01       	movw	r22, r0
    1ec4:	11 24       	eor	r1, r1
    1ec6:	6f 5f       	subi	r22, 0xFF	; 255
    1ec8:	7e 4f       	sbci	r23, 0xFE	; 254
    1eca:	48 e0       	ldi	r20, 0x08	; 8
    1ecc:	50 e0       	ldi	r21, 0x00	; 0
    1ece:	ce 01       	movw	r24, r28
    1ed0:	01 96       	adiw	r24, 0x01	; 1
    1ed2:	0e 94 fc 32 	call	0x65f8	; 0x65f8 <eeprom_update_block>
    1ed6:	28 96       	adiw	r28, 0x08	; 8
    1ed8:	0f b6       	in	r0, 0x3f	; 63
    1eda:	f8 94       	cli
    1edc:	de bf       	out	0x3e, r29	; 62
    1ede:	0f be       	out	0x3f, r0	; 63
    1ee0:	cd bf       	out	0x3d, r28	; 61
    1ee2:	df 91       	pop	r29
    1ee4:	cf 91       	pop	r28
    1ee6:	08 95       	ret

00001ee8 <Screen_IOExpression>:
    1ee8:	cf 93       	push	r28
    1eea:	df 93       	push	r29
    1eec:	cd b7       	in	r28, 0x3d	; 61
    1eee:	de b7       	in	r29, 0x3e	; 62
    1ef0:	c0 54       	subi	r28, 0x40	; 64
    1ef2:	d1 09       	sbc	r29, r1
    1ef4:	0f b6       	in	r0, 0x3f	; 63
    1ef6:	f8 94       	cli
    1ef8:	de bf       	out	0x3e, r29	; 62
    1efa:	0f be       	out	0x3f, r0	; 63
    1efc:	cd bf       	out	0x3d, r28	; 61
    1efe:	60 91 2d 04 	lds	r22, 0x042D	; 0x80042d <SelectedSensorOpt>
    1f02:	20 e4       	ldi	r18, 0x40	; 64
    1f04:	62 9f       	mul	r22, r18
    1f06:	b0 01       	movw	r22, r0
    1f08:	11 24       	eor	r1, r1
    1f0a:	6f 5f       	subi	r22, 0xFF	; 255
    1f0c:	7f 4f       	sbci	r23, 0xFF	; 255
    1f0e:	40 e4       	ldi	r20, 0x40	; 64
    1f10:	50 e0       	ldi	r21, 0x00	; 0
    1f12:	ce 01       	movw	r24, r28
    1f14:	01 96       	adiw	r24, 0x01	; 1
    1f16:	0e 94 de 32 	call	0x65bc	; 0x65bc <eeprom_read_block>
    1f1a:	41 e3       	ldi	r20, 0x31	; 49
    1f1c:	57 e0       	ldi	r21, 0x07	; 7
    1f1e:	60 e4       	ldi	r22, 0x40	; 64
    1f20:	ce 01       	movw	r24, r28
    1f22:	01 96       	adiw	r24, 0x01	; 1
    1f24:	0e 94 37 08 	call	0x106e	; 0x106e <Interface_Keyboard_P>
    1f28:	01 96       	adiw	r24, 0x01	; 1
    1f2a:	71 f0       	breq	.+28     	; 0x1f48 <Screen_IOExpression+0x60>
    1f2c:	60 91 2d 04 	lds	r22, 0x042D	; 0x80042d <SelectedSensorOpt>
    1f30:	80 e4       	ldi	r24, 0x40	; 64
    1f32:	68 9f       	mul	r22, r24
    1f34:	b0 01       	movw	r22, r0
    1f36:	11 24       	eor	r1, r1
    1f38:	6f 5f       	subi	r22, 0xFF	; 255
    1f3a:	7f 4f       	sbci	r23, 0xFF	; 255
    1f3c:	40 e4       	ldi	r20, 0x40	; 64
    1f3e:	50 e0       	ldi	r21, 0x00	; 0
    1f40:	ce 01       	movw	r24, r28
    1f42:	01 96       	adiw	r24, 0x01	; 1
    1f44:	0e 94 fc 32 	call	0x65f8	; 0x65f8 <eeprom_update_block>
    1f48:	c0 5c       	subi	r28, 0xC0	; 192
    1f4a:	df 4f       	sbci	r29, 0xFF	; 255
    1f4c:	0f b6       	in	r0, 0x3f	; 63
    1f4e:	f8 94       	cli
    1f50:	de bf       	out	0x3e, r29	; 62
    1f52:	0f be       	out	0x3f, r0	; 63
    1f54:	cd bf       	out	0x3d, r28	; 61
    1f56:	df 91       	pop	r29
    1f58:	cf 91       	pop	r28
    1f5a:	08 95       	ret

00001f5c <Screen_SystemName>:
    1f5c:	cf 93       	push	r28
    1f5e:	df 93       	push	r29
    1f60:	cd b7       	in	r28, 0x3d	; 61
    1f62:	de b7       	in	r29, 0x3e	; 62
    1f64:	60 97       	sbiw	r28, 0x10	; 16
    1f66:	0f b6       	in	r0, 0x3f	; 63
    1f68:	f8 94       	cli
    1f6a:	de bf       	out	0x3e, r29	; 62
    1f6c:	0f be       	out	0x3f, r0	; 63
    1f6e:	cd bf       	out	0x3d, r28	; 61
    1f70:	40 e1       	ldi	r20, 0x10	; 16
    1f72:	50 e0       	ldi	r21, 0x00	; 0
    1f74:	63 e2       	ldi	r22, 0x23	; 35
    1f76:	71 e0       	ldi	r23, 0x01	; 1
    1f78:	ce 01       	movw	r24, r28
    1f7a:	01 96       	adiw	r24, 0x01	; 1
    1f7c:	0e 94 de 32 	call	0x65bc	; 0x65bc <eeprom_read_block>
    1f80:	46 e2       	ldi	r20, 0x26	; 38
    1f82:	57 e0       	ldi	r21, 0x07	; 7
    1f84:	60 e1       	ldi	r22, 0x10	; 16
    1f86:	ce 01       	movw	r24, r28
    1f88:	01 96       	adiw	r24, 0x01	; 1
    1f8a:	0e 94 37 08 	call	0x106e	; 0x106e <Interface_Keyboard_P>
    1f8e:	01 96       	adiw	r24, 0x01	; 1
    1f90:	41 f0       	breq	.+16     	; 0x1fa2 <Screen_SystemName+0x46>
    1f92:	40 e1       	ldi	r20, 0x10	; 16
    1f94:	50 e0       	ldi	r21, 0x00	; 0
    1f96:	63 e2       	ldi	r22, 0x23	; 35
    1f98:	71 e0       	ldi	r23, 0x01	; 1
    1f9a:	ce 01       	movw	r24, r28
    1f9c:	01 96       	adiw	r24, 0x01	; 1
    1f9e:	0e 94 fc 32 	call	0x65f8	; 0x65f8 <eeprom_update_block>
    1fa2:	60 96       	adiw	r28, 0x10	; 16
    1fa4:	0f b6       	in	r0, 0x3f	; 63
    1fa6:	f8 94       	cli
    1fa8:	de bf       	out	0x3e, r29	; 62
    1faa:	0f be       	out	0x3f, r0	; 63
    1fac:	cd bf       	out	0x3d, r28	; 61
    1fae:	df 91       	pop	r29
    1fb0:	cf 91       	pop	r28
    1fb2:	08 95       	ret

00001fb4 <Screen_Broker>:
    1fb4:	cf 93       	push	r28
    1fb6:	df 93       	push	r29
    1fb8:	cd b7       	in	r28, 0x3d	; 61
    1fba:	de b7       	in	r29, 0x3e	; 62
    1fbc:	c0 54       	subi	r28, 0x40	; 64
    1fbe:	d1 09       	sbc	r29, r1
    1fc0:	0f b6       	in	r0, 0x3f	; 63
    1fc2:	f8 94       	cli
    1fc4:	de bf       	out	0x3e, r29	; 62
    1fc6:	0f be       	out	0x3f, r0	; 63
    1fc8:	cd bf       	out	0x3d, r28	; 61
    1fca:	40 e4       	ldi	r20, 0x40	; 64
    1fcc:	50 e0       	ldi	r21, 0x00	; 0
    1fce:	63 e3       	ldi	r22, 0x33	; 51
    1fd0:	71 e0       	ldi	r23, 0x01	; 1
    1fd2:	ce 01       	movw	r24, r28
    1fd4:	01 96       	adiw	r24, 0x01	; 1
    1fd6:	0e 94 de 32 	call	0x65bc	; 0x65bc <eeprom_read_block>
    1fda:	4d e6       	ldi	r20, 0x6D	; 109
    1fdc:	57 e0       	ldi	r21, 0x07	; 7
    1fde:	60 e4       	ldi	r22, 0x40	; 64
    1fe0:	ce 01       	movw	r24, r28
    1fe2:	01 96       	adiw	r24, 0x01	; 1
    1fe4:	0e 94 37 08 	call	0x106e	; 0x106e <Interface_Keyboard_P>
    1fe8:	01 96       	adiw	r24, 0x01	; 1
    1fea:	d9 f0       	breq	.+54     	; 0x2022 <Screen_Broker+0x6e>
    1fec:	6b e6       	ldi	r22, 0x6B	; 107
    1fee:	77 e0       	ldi	r23, 0x07	; 7
    1ff0:	ce 01       	movw	r24, r28
    1ff2:	01 96       	adiw	r24, 0x01	; 1
    1ff4:	0e 94 d1 2c 	call	0x59a2	; 0x59a2 <strtok_P>
    1ff8:	40 e4       	ldi	r20, 0x40	; 64
    1ffa:	50 e0       	ldi	r21, 0x00	; 0
    1ffc:	63 e3       	ldi	r22, 0x33	; 51
    1ffe:	71 e0       	ldi	r23, 0x01	; 1
    2000:	0e 94 fc 32 	call	0x65f8	; 0x65f8 <eeprom_update_block>
    2004:	69 e6       	ldi	r22, 0x69	; 105
    2006:	77 e0       	ldi	r23, 0x07	; 7
    2008:	80 e0       	ldi	r24, 0x00	; 0
    200a:	90 e0       	ldi	r25, 0x00	; 0
    200c:	0e 94 d1 2c 	call	0x59a2	; 0x59a2 <strtok_P>
    2010:	00 97       	sbiw	r24, 0x00	; 0
    2012:	39 f0       	breq	.+14     	; 0x2022 <Screen_Broker+0x6e>
    2014:	0e 94 aa 2c 	call	0x5954	; 0x5954 <atoi>
    2018:	bc 01       	movw	r22, r24
    201a:	81 e2       	ldi	r24, 0x21	; 33
    201c:	91 e0       	ldi	r25, 0x01	; 1
    201e:	0e 94 1e 33 	call	0x663c	; 0x663c <eeprom_update_word>
    2022:	c0 5c       	subi	r28, 0xC0	; 192
    2024:	df 4f       	sbci	r29, 0xFF	; 255
    2026:	0f b6       	in	r0, 0x3f	; 63
    2028:	f8 94       	cli
    202a:	de bf       	out	0x3e, r29	; 62
    202c:	0f be       	out	0x3f, r0	; 63
    202e:	cd bf       	out	0x3d, r28	; 61
    2030:	df 91       	pop	r29
    2032:	cf 91       	pop	r28
    2034:	08 95       	ret

00002036 <Screen_Connection>:
    2036:	cf 93       	push	r28
    2038:	df 93       	push	r29
    203a:	1f 92       	push	r1
    203c:	cd b7       	in	r28, 0x3d	; 61
    203e:	de b7       	in	r29, 0x3e	; 62
    2040:	80 e0       	ldi	r24, 0x00	; 0
    2042:	90 e0       	ldi	r25, 0x00	; 0
    2044:	0e 94 ee 32 	call	0x65dc	; 0x65dc <eeprom_read_byte>
    2048:	82 95       	swap	r24
    204a:	81 70       	andi	r24, 0x01	; 1
    204c:	89 83       	std	Y+1, r24	; 0x01
    204e:	4c ef       	ldi	r20, 0xFC	; 252
    2050:	58 e0       	ldi	r21, 0x08	; 8
    2052:	be 01       	movw	r22, r28
    2054:	6f 5f       	subi	r22, 0xFF	; 255
    2056:	7f 4f       	sbci	r23, 0xFF	; 255
    2058:	88 e5       	ldi	r24, 0x58	; 88
    205a:	97 e0       	ldi	r25, 0x07	; 7
    205c:	0e 94 91 0b 	call	0x1722	; 0x1722 <Interface_Switch_P>
    2060:	89 81       	ldd	r24, Y+1	; 0x01
    2062:	88 23       	and	r24, r24
    2064:	31 f0       	breq	.+12     	; 0x2072 <Screen_Connection+0x3c>
    2066:	80 e0       	ldi	r24, 0x00	; 0
    2068:	90 e0       	ldi	r25, 0x00	; 0
    206a:	0e 94 ee 32 	call	0x65dc	; 0x65dc <eeprom_read_byte>
    206e:	80 61       	ori	r24, 0x10	; 16
    2070:	05 c0       	rjmp	.+10     	; 0x207c <Screen_Connection+0x46>
    2072:	80 e0       	ldi	r24, 0x00	; 0
    2074:	90 e0       	ldi	r25, 0x00	; 0
    2076:	0e 94 ee 32 	call	0x65dc	; 0x65dc <eeprom_read_byte>
    207a:	8f 7e       	andi	r24, 0xEF	; 239
    207c:	89 83       	std	Y+1, r24	; 0x01
    207e:	69 81       	ldd	r22, Y+1	; 0x01
    2080:	80 e0       	ldi	r24, 0x00	; 0
    2082:	90 e0       	ldi	r25, 0x00	; 0
    2084:	0e 94 0c 33 	call	0x6618	; 0x6618 <eeprom_update_byte>
    2088:	0f 90       	pop	r0
    208a:	df 91       	pop	r29
    208c:	cf 91       	pop	r28
    208e:	08 95       	ret

00002090 <Screen_IOSwitch>:
    2090:	1f 93       	push	r17
    2092:	cf 93       	push	r28
    2094:	df 93       	push	r29
    2096:	1f 92       	push	r1
    2098:	cd b7       	in	r28, 0x3d	; 61
    209a:	de b7       	in	r29, 0x3e	; 62
    209c:	80 e0       	ldi	r24, 0x00	; 0
    209e:	90 e0       	ldi	r25, 0x00	; 0
    20a0:	0e 94 ee 32 	call	0x65dc	; 0x65dc <eeprom_read_byte>
    20a4:	90 e0       	ldi	r25, 0x00	; 0
    20a6:	00 90 2d 04 	lds	r0, 0x042D	; 0x80042d <SelectedSensorOpt>
    20aa:	02 c0       	rjmp	.+4      	; 0x20b0 <Screen_IOSwitch+0x20>
    20ac:	95 95       	asr	r25
    20ae:	87 95       	ror	r24
    20b0:	0a 94       	dec	r0
    20b2:	e2 f7       	brpl	.-8      	; 0x20ac <Screen_IOSwitch+0x1c>
    20b4:	81 70       	andi	r24, 0x01	; 1
    20b6:	89 83       	std	Y+1, r24	; 0x01
    20b8:	41 ec       	ldi	r20, 0xC1	; 193
    20ba:	58 e0       	ldi	r21, 0x08	; 8
    20bc:	be 01       	movw	r22, r28
    20be:	6f 5f       	subi	r22, 0xFF	; 255
    20c0:	7f 4f       	sbci	r23, 0xFF	; 255
    20c2:	87 e4       	ldi	r24, 0x47	; 71
    20c4:	97 e0       	ldi	r25, 0x07	; 7
    20c6:	0e 94 91 0b 	call	0x1722	; 0x1722 <Interface_Switch_P>
    20ca:	89 81       	ldd	r24, Y+1	; 0x01
    20cc:	10 91 2d 04 	lds	r17, 0x042D	; 0x80042d <SelectedSensorOpt>
    20d0:	88 23       	and	r24, r24
    20d2:	61 f0       	breq	.+24     	; 0x20ec <Screen_IOSwitch+0x5c>
    20d4:	80 e0       	ldi	r24, 0x00	; 0
    20d6:	90 e0       	ldi	r25, 0x00	; 0
    20d8:	0e 94 ee 32 	call	0x65dc	; 0x65dc <eeprom_read_byte>
    20dc:	21 e0       	ldi	r18, 0x01	; 1
    20de:	30 e0       	ldi	r19, 0x00	; 0
    20e0:	01 c0       	rjmp	.+2      	; 0x20e4 <Screen_IOSwitch+0x54>
    20e2:	22 0f       	add	r18, r18
    20e4:	1a 95       	dec	r17
    20e6:	ea f7       	brpl	.-6      	; 0x20e2 <Screen_IOSwitch+0x52>
    20e8:	82 2b       	or	r24, r18
    20ea:	0c c0       	rjmp	.+24     	; 0x2104 <Screen_IOSwitch+0x74>
    20ec:	80 e0       	ldi	r24, 0x00	; 0
    20ee:	90 e0       	ldi	r25, 0x00	; 0
    20f0:	0e 94 ee 32 	call	0x65dc	; 0x65dc <eeprom_read_byte>
    20f4:	21 e0       	ldi	r18, 0x01	; 1
    20f6:	30 e0       	ldi	r19, 0x00	; 0
    20f8:	01 c0       	rjmp	.+2      	; 0x20fc <Screen_IOSwitch+0x6c>
    20fa:	22 0f       	add	r18, r18
    20fc:	1a 95       	dec	r17
    20fe:	ea f7       	brpl	.-6      	; 0x20fa <Screen_IOSwitch+0x6a>
    2100:	20 95       	com	r18
    2102:	82 23       	and	r24, r18
    2104:	89 83       	std	Y+1, r24	; 0x01
    2106:	69 81       	ldd	r22, Y+1	; 0x01
    2108:	80 e0       	ldi	r24, 0x00	; 0
    210a:	90 e0       	ldi	r25, 0x00	; 0
    210c:	0e 94 0c 33 	call	0x6618	; 0x6618 <eeprom_update_byte>
    2110:	0f 90       	pop	r0
    2112:	df 91       	pop	r29
    2114:	cf 91       	pop	r28
    2116:	1f 91       	pop	r17
    2118:	08 95       	ret

0000211a <Screen_Sensor0>:
    211a:	10 92 2d 04 	sts	0x042D, r1	; 0x80042d <SelectedSensorOpt>
    211e:	89 e8       	ldi	r24, 0x89	; 137
    2120:	98 e0       	ldi	r25, 0x08	; 8
    2122:	0c 94 05 0a 	jmp	0x140a	; 0x140a <Interface_Menu_P>

00002126 <Screen_Sensor1>:
    2126:	81 e0       	ldi	r24, 0x01	; 1
    2128:	80 93 2d 04 	sts	0x042D, r24	; 0x80042d <SelectedSensorOpt>
    212c:	89 e8       	ldi	r24, 0x89	; 137
    212e:	98 e0       	ldi	r25, 0x08	; 8
    2130:	0c 94 05 0a 	jmp	0x140a	; 0x140a <Interface_Menu_P>

00002134 <Screen_Trigger0>:
    2134:	82 e0       	ldi	r24, 0x02	; 2
    2136:	80 93 2d 04 	sts	0x042D, r24	; 0x80042d <SelectedSensorOpt>
    213a:	89 e8       	ldi	r24, 0x89	; 137
    213c:	98 e0       	ldi	r25, 0x08	; 8
    213e:	0c 94 05 0a 	jmp	0x140a	; 0x140a <Interface_Menu_P>

00002142 <Screen_Trigger1>:
    2142:	83 e0       	ldi	r24, 0x03	; 3
    2144:	80 93 2d 04 	sts	0x042D, r24	; 0x80042d <SelectedSensorOpt>
    2148:	89 e8       	ldi	r24, 0x89	; 137
    214a:	98 e0       	ldi	r25, 0x08	; 8
    214c:	0c 94 05 0a 	jmp	0x140a	; 0x140a <Interface_Menu_P>

00002150 <Network_Menu>:
    2150:	80 ed       	ldi	r24, 0xD0	; 208
    2152:	98 e0       	ldi	r25, 0x08	; 8
    2154:	0c 94 05 0a 	jmp	0x140a	; 0x140a <Interface_Menu_P>

00002158 <Sensors_Menu>:
    2158:	88 e3       	ldi	r24, 0x38	; 56
    215a:	98 e0       	ldi	r25, 0x08	; 8
    215c:	0c 94 05 0a 	jmp	0x140a	; 0x140a <Interface_Menu_P>

00002160 <BrightnessScrollbar>:
    2160:	ef 92       	push	r14
    2162:	ff 92       	push	r15
    2164:	0f 93       	push	r16
    2166:	cf 93       	push	r28
    2168:	df 93       	push	r29
    216a:	1f 92       	push	r1
    216c:	cd b7       	in	r28, 0x3d	; 61
    216e:	de b7       	in	r29, 0x3e	; 62
    2170:	84 ef       	ldi	r24, 0xF4	; 244
    2172:	91 e0       	ldi	r25, 0x01	; 1
    2174:	0e 94 ee 32 	call	0x65dc	; 0x65dc <eeprom_read_byte>
    2178:	89 83       	std	Y+1, r24	; 0x01
    217a:	85 eb       	ldi	r24, 0xB5	; 181
    217c:	e8 2e       	mov	r14, r24
    217e:	8e e0       	ldi	r24, 0x0E	; 14
    2180:	f8 2e       	mov	r15, r24
    2182:	01 e0       	ldi	r16, 0x01	; 1
    2184:	21 e4       	ldi	r18, 0x41	; 65
    2186:	4d e2       	ldi	r20, 0x2D	; 45
    2188:	be 01       	movw	r22, r28
    218a:	6f 5f       	subi	r22, 0xFF	; 255
    218c:	7f 4f       	sbci	r23, 0xFF	; 255
    218e:	8b e1       	ldi	r24, 0x1B	; 27
    2190:	97 e0       	ldi	r25, 0x07	; 7
    2192:	0e 94 b7 0a 	call	0x156e	; 0x156e <Interface_Scrollbar_P>
    2196:	69 81       	ldd	r22, Y+1	; 0x01
    2198:	84 ef       	ldi	r24, 0xF4	; 244
    219a:	91 e0       	ldi	r25, 0x01	; 1
    219c:	0e 94 0c 33 	call	0x6618	; 0x6618 <eeprom_update_byte>
    21a0:	0f 90       	pop	r0
    21a2:	df 91       	pop	r29
    21a4:	cf 91       	pop	r28
    21a6:	0f 91       	pop	r16
    21a8:	ff 90       	pop	r15
    21aa:	ef 90       	pop	r14
    21ac:	08 95       	ret

000021ae <BacklightScrollbar>:
    21ae:	ef 92       	push	r14
    21b0:	ff 92       	push	r15
    21b2:	0f 93       	push	r16
    21b4:	cf 93       	push	r28
    21b6:	df 93       	push	r29
    21b8:	1f 92       	push	r1
    21ba:	cd b7       	in	r28, 0x3d	; 61
    21bc:	de b7       	in	r29, 0x3e	; 62
    21be:	83 ef       	ldi	r24, 0xF3	; 243
    21c0:	91 e0       	ldi	r25, 0x01	; 1
    21c2:	0e 94 ee 32 	call	0x65dc	; 0x65dc <eeprom_read_byte>
    21c6:	89 83       	std	Y+1, r24	; 0x01
    21c8:	8a ed       	ldi	r24, 0xDA	; 218
    21ca:	e8 2e       	mov	r14, r24
    21cc:	8e e0       	ldi	r24, 0x0E	; 14
    21ce:	f8 2e       	mov	r15, r24
    21d0:	0a e0       	ldi	r16, 0x0A	; 10
    21d2:	24 e6       	ldi	r18, 0x64	; 100
    21d4:	40 e0       	ldi	r20, 0x00	; 0
    21d6:	be 01       	movw	r22, r28
    21d8:	6f 5f       	subi	r22, 0xFF	; 255
    21da:	7f 4f       	sbci	r23, 0xFF	; 255
    21dc:	81 e1       	ldi	r24, 0x11	; 17
    21de:	97 e0       	ldi	r25, 0x07	; 7
    21e0:	0e 94 b7 0a 	call	0x156e	; 0x156e <Interface_Scrollbar_P>
    21e4:	69 81       	ldd	r22, Y+1	; 0x01
    21e6:	83 ef       	ldi	r24, 0xF3	; 243
    21e8:	91 e0       	ldi	r25, 0x01	; 1
    21ea:	0e 94 0c 33 	call	0x6618	; 0x6618 <eeprom_update_byte>
    21ee:	0f 90       	pop	r0
    21f0:	df 91       	pop	r29
    21f2:	cf 91       	pop	r28
    21f4:	0f 91       	pop	r16
    21f6:	ff 90       	pop	r15
    21f8:	ef 90       	pop	r14
    21fa:	08 95       	ret

000021fc <recv>:
    21fc:	cf 93       	push	r28
    21fe:	df 93       	push	r29
    2200:	eb 01       	movw	r28, r22
    2202:	6f e0       	ldi	r22, 0x0F	; 15
    2204:	77 e0       	ldi	r23, 0x07	; 7
    2206:	ce 01       	movw	r24, r28
    2208:	0e 94 d1 2c 	call	0x59a2	; 0x59a2 <strtok_P>
    220c:	45 e0       	ldi	r20, 0x05	; 5
    220e:	50 e0       	ldi	r21, 0x00	; 0
    2210:	69 e0       	ldi	r22, 0x09	; 9
    2212:	77 e0       	ldi	r23, 0x07	; 7
    2214:	ce 01       	movw	r24, r28
    2216:	0e 94 07 2d 	call	0x5a0e	; 0x5a0e <strncmp_P>
    221a:	89 2b       	or	r24, r25
    221c:	21 f4       	brne	.+8      	; 0x2226 <recv+0x2a>
    221e:	80 91 a2 01 	lds	r24, 0x01A2	; 0x8001a2 <BrokerFlags>
    2222:	82 60       	ori	r24, 0x02	; 2
    2224:	0c c0       	rjmp	.+24     	; 0x223e <recv+0x42>
    2226:	4b e0       	ldi	r20, 0x0B	; 11
    2228:	50 e0       	ldi	r21, 0x00	; 0
    222a:	6d ef       	ldi	r22, 0xFD	; 253
    222c:	76 e0       	ldi	r23, 0x06	; 6
    222e:	ce 01       	movw	r24, r28
    2230:	0e 94 07 2d 	call	0x5a0e	; 0x5a0e <strncmp_P>
    2234:	89 2b       	or	r24, r25
    2236:	29 f4       	brne	.+10     	; 0x2242 <recv+0x46>
    2238:	80 91 a2 01 	lds	r24, 0x01A2	; 0x8001a2 <BrokerFlags>
    223c:	81 60       	ori	r24, 0x01	; 1
    223e:	80 93 a2 01 	sts	0x01A2, r24	; 0x8001a2 <BrokerFlags>
    2242:	6b ef       	ldi	r22, 0xFB	; 251
    2244:	76 e0       	ldi	r23, 0x06	; 6
    2246:	80 e0       	ldi	r24, 0x00	; 0
    2248:	90 e0       	ldi	r25, 0x00	; 0
    224a:	0e 94 d1 2c 	call	0x59a2	; 0x59a2 <strtok_P>
    224e:	89 2b       	or	r24, r25
    2250:	e9 f6       	brne	.-70     	; 0x220c <recv+0x10>
    2252:	df 91       	pop	r29
    2254:	cf 91       	pop	r28
    2256:	08 95       	ret

00002258 <Screen_SelectAP>:
    2258:	2f 92       	push	r2
    225a:	3f 92       	push	r3
    225c:	4f 92       	push	r4
    225e:	5f 92       	push	r5
    2260:	6f 92       	push	r6
    2262:	7f 92       	push	r7
    2264:	8f 92       	push	r8
    2266:	9f 92       	push	r9
    2268:	af 92       	push	r10
    226a:	bf 92       	push	r11
    226c:	cf 92       	push	r12
    226e:	df 92       	push	r13
    2270:	ef 92       	push	r14
    2272:	ff 92       	push	r15
    2274:	0f 93       	push	r16
    2276:	1f 93       	push	r17
    2278:	cf 93       	push	r28
    227a:	df 93       	push	r29
    227c:	cd b7       	in	r28, 0x3d	; 61
    227e:	de b7       	in	r29, 0x3e	; 62
    2280:	c4 54       	subi	r28, 0x44	; 68
    2282:	d1 09       	sbc	r29, r1
    2284:	0f b6       	in	r0, 0x3f	; 63
    2286:	f8 94       	cli
    2288:	de bf       	out	0x3e, r29	; 62
    228a:	0f be       	out	0x3f, r0	; 63
    228c:	cd bf       	out	0x3d, r28	; 61
    228e:	0e 94 ce 22 	call	0x459c	; 0x459c <WLAN_GetState>
    2292:	80 ff       	sbrs	r24, 0
    2294:	1b c1       	rjmp	.+566    	; 0x24cc <Screen_SelectAP+0x274>
    2296:	0e 94 3b 0c 	call	0x1876	; 0x1876 <LCD_Clear>
    229a:	49 ec       	ldi	r20, 0xC9	; 201
    229c:	57 e0       	ldi	r21, 0x07	; 7
    229e:	63 e0       	ldi	r22, 0x03	; 3
    22a0:	70 e0       	ldi	r23, 0x00	; 0
    22a2:	80 e0       	ldi	r24, 0x00	; 0
    22a4:	90 e0       	ldi	r25, 0x00	; 0
    22a6:	0e 94 a9 0c 	call	0x1952	; 0x1952 <LCD_DrawText_P>
    22aa:	0e 94 8f 0e 	call	0x1d1e	; 0x1d1e <LCD_Render>
    22ae:	2f ef       	ldi	r18, 0xFF	; 255
    22b0:	39 e6       	ldi	r19, 0x69	; 105
    22b2:	88 e1       	ldi	r24, 0x18	; 24
    22b4:	21 50       	subi	r18, 0x01	; 1
    22b6:	30 40       	sbci	r19, 0x00	; 0
    22b8:	80 40       	sbci	r24, 0x00	; 0
    22ba:	e1 f7       	brne	.-8      	; 0x22b4 <Screen_SelectAP+0x5c>
    22bc:	00 c0       	rjmp	.+0      	; 0x22be <Screen_SelectAP+0x66>
    22be:	00 00       	nop
    22c0:	0e 94 2e 23 	call	0x465c	; 0x465c <WLAN_ListAccessPoints>
    22c4:	10 e0       	ldi	r17, 0x00	; 0
    22c6:	c8 2e       	mov	r12, r24
    22c8:	88 0f       	add	r24, r24
    22ca:	dd 08       	sbc	r13, r13
    22cc:	f6 01       	movw	r30, r12
    22ce:	31 97       	sbiw	r30, 0x01	; 1
    22d0:	25 96       	adiw	r28, 0x05	; 5
    22d2:	ff af       	std	Y+63, r31	; 0x3f
    22d4:	ee af       	std	Y+62, r30	; 0x3e
    22d6:	25 97       	sbiw	r28, 0x05	; 5
    22d8:	32 e2       	ldi	r19, 0x22	; 34
    22da:	23 2e       	mov	r2, r19
    22dc:	40 90 06 01 	lds	r4, 0x0106	; 0x800106 <__malloc_margin+0x2>
    22e0:	50 90 07 01 	lds	r5, 0x0107	; 0x800107 <__malloc_margin+0x3>
    22e4:	9e 01       	movw	r18, r28
    22e6:	2d 5f       	subi	r18, 0xFD	; 253
    22e8:	3f 4f       	sbci	r19, 0xFF	; 255
    22ea:	23 96       	adiw	r28, 0x03	; 3
    22ec:	3f af       	std	Y+63, r19	; 0x3f
    22ee:	2e af       	std	Y+62, r18	; 0x3e
    22f0:	23 97       	sbiw	r28, 0x03	; 3
    22f2:	0e 94 e2 07 	call	0xfc4	; 0xfc4 <Button_Return_Pressed>
    22f6:	81 11       	cpse	r24, r1
    22f8:	e9 c0       	rjmp	.+466    	; 0x24cc <Screen_SelectAP+0x274>
    22fa:	0e 94 3b 0c 	call	0x1876	; 0x1876 <LCD_Clear>
    22fe:	40 ec       	ldi	r20, 0xC0	; 192
    2300:	57 e0       	ldi	r21, 0x07	; 7
    2302:	60 e0       	ldi	r22, 0x00	; 0
    2304:	70 e0       	ldi	r23, 0x00	; 0
    2306:	80 e0       	ldi	r24, 0x00	; 0
    2308:	90 e0       	ldi	r25, 0x00	; 0
    230a:	0e 94 a9 0c 	call	0x1952	; 0x1952 <LCD_DrawText_P>
    230e:	85 ea       	ldi	r24, 0xA5	; 165
    2310:	e8 2e       	mov	r14, r24
    2312:	83 e0       	ldi	r24, 0x03	; 3
    2314:	f8 2e       	mov	r15, r24
    2316:	92 e0       	ldi	r25, 0x02	; 2
    2318:	89 2e       	mov	r8, r25
    231a:	91 2c       	mov	r9, r1
    231c:	20 e1       	ldi	r18, 0x10	; 16
    231e:	32 2e       	mov	r3, r18
    2320:	a1 2c       	mov	r10, r1
    2322:	b1 2c       	mov	r11, r1
    2324:	61 2e       	mov	r6, r17
    2326:	01 2e       	mov	r0, r17
    2328:	00 0c       	add	r0, r0
    232a:	77 08       	sbc	r7, r7
    232c:	ac 14       	cp	r10, r12
    232e:	bd 04       	cpc	r11, r13
    2330:	3c f0       	brlt	.+14     	; 0x2340 <Screen_SelectAP+0xe8>
    2332:	0e 94 8f 0e 	call	0x1d1e	; 0x1d1e <LCD_Render>
    2336:	0e 94 15 08 	call	0x102a	; 0x102a <Button_Up_Pressed>
    233a:	81 11       	cpse	r24, r1
    233c:	50 c0       	rjmp	.+160    	; 0x23de <Screen_SelectAP+0x186>
    233e:	52 c0       	rjmp	.+164    	; 0x23e4 <Screen_SelectAP+0x18c>
    2340:	90 e3       	ldi	r25, 0x30	; 48
    2342:	39 16       	cp	r3, r25
    2344:	b1 f3       	breq	.-20     	; 0x2332 <Screen_SelectAP+0xda>
    2346:	a7 01       	movw	r20, r14
    2348:	b4 01       	movw	r22, r8
    234a:	80 e0       	ldi	r24, 0x00	; 0
    234c:	90 e0       	ldi	r25, 0x00	; 0
    234e:	0e 94 73 0c 	call	0x18e6	; 0x18e6 <LCD_DrawText>
    2352:	f7 01       	movw	r30, r14
    2354:	80 a1       	ldd	r24, Z+32	; 0x20
    2356:	81 11       	cpse	r24, r1
    2358:	03 c0       	rjmp	.+6      	; 0x2360 <Screen_SelectAP+0x108>
    235a:	47 e6       	ldi	r20, 0x67	; 103
    235c:	59 e0       	ldi	r21, 0x09	; 9
    235e:	02 c0       	rjmp	.+4      	; 0x2364 <Screen_SelectAP+0x10c>
    2360:	4d e6       	ldi	r20, 0x6D	; 109
    2362:	59 e0       	ldi	r21, 0x09	; 9
    2364:	08 e0       	ldi	r16, 0x08	; 8
    2366:	26 e0       	ldi	r18, 0x06	; 6
    2368:	63 2d       	mov	r22, r3
    236a:	88 e4       	ldi	r24, 0x48	; 72
    236c:	0e 94 78 0d 	call	0x1af0	; 0x1af0 <LCD_DrawSprite_P>
    2370:	f7 01       	movw	r30, r14
    2372:	81 a1       	ldd	r24, Z+33	; 0x21
    2374:	8b 3a       	cpi	r24, 0xAB	; 171
    2376:	24 f4       	brge	.+8      	; 0x2380 <Screen_SelectAP+0x128>
    2378:	26 e0       	ldi	r18, 0x06	; 6
    237a:	41 e6       	ldi	r20, 0x61	; 97
    237c:	59 e0       	ldi	r21, 0x09	; 9
    237e:	13 c0       	rjmp	.+38     	; 0x23a6 <Screen_SelectAP+0x14e>
    2380:	95 e5       	ldi	r25, 0x55	; 85
    2382:	98 0f       	add	r25, r24
    2384:	9a 30       	cpi	r25, 0x0A	; 10
    2386:	28 f4       	brcc	.+10     	; 0x2392 <Screen_SelectAP+0x13a>
    2388:	08 e0       	ldi	r16, 0x08	; 8
    238a:	26 e0       	ldi	r18, 0x06	; 6
    238c:	4b e5       	ldi	r20, 0x5B	; 91
    238e:	59 e0       	ldi	r21, 0x09	; 9
    2390:	0a c0       	rjmp	.+20     	; 0x23a6 <Screen_SelectAP+0x14e>
    2392:	85 5b       	subi	r24, 0xB5	; 181
    2394:	08 e0       	ldi	r16, 0x08	; 8
    2396:	26 e0       	ldi	r18, 0x06	; 6
    2398:	84 31       	cpi	r24, 0x14	; 20
    239a:	18 f4       	brcc	.+6      	; 0x23a2 <Screen_SelectAP+0x14a>
    239c:	45 e5       	ldi	r20, 0x55	; 85
    239e:	59 e0       	ldi	r21, 0x09	; 9
    23a0:	02 c0       	rjmp	.+4      	; 0x23a6 <Screen_SelectAP+0x14e>
    23a2:	4f e4       	ldi	r20, 0x4F	; 79
    23a4:	59 e0       	ldi	r21, 0x09	; 9
    23a6:	63 2d       	mov	r22, r3
    23a8:	8e e4       	ldi	r24, 0x4E	; 78
    23aa:	0e 94 78 0d 	call	0x1af0	; 0x1af0 <LCD_DrawSprite_P>
    23ae:	6a 14       	cp	r6, r10
    23b0:	7b 04       	cpc	r7, r11
    23b2:	61 f0       	breq	.+24     	; 0x23cc <Screen_SelectAP+0x174>
    23b4:	ff ef       	ldi	r31, 0xFF	; 255
    23b6:	af 1a       	sub	r10, r31
    23b8:	bf 0a       	sbc	r11, r31
    23ba:	28 e0       	ldi	r18, 0x08	; 8
    23bc:	32 0e       	add	r3, r18
    23be:	32 e2       	ldi	r19, 0x22	; 34
    23c0:	e3 0e       	add	r14, r19
    23c2:	f1 1c       	adc	r15, r1
    23c4:	8f ef       	ldi	r24, 0xFF	; 255
    23c6:	88 1a       	sub	r8, r24
    23c8:	98 0a       	sbc	r9, r24
    23ca:	b0 cf       	rjmp	.-160    	; 0x232c <Screen_SelectAP+0xd4>
    23cc:	00 e0       	ldi	r16, 0x00	; 0
    23ce:	68 2d       	mov	r22, r8
    23d0:	80 2f       	mov	r24, r16
    23d2:	0e 94 78 0e 	call	0x1cf0	; 0x1cf0 <LCD_InvertCell>
    23d6:	0f 5f       	subi	r16, 0xFF	; 255
    23d8:	0e 30       	cpi	r16, 0x0E	; 14
    23da:	c9 f7       	brne	.-14     	; 0x23ce <Screen_SelectAP+0x176>
    23dc:	eb cf       	rjmp	.-42     	; 0x23b4 <Screen_SelectAP+0x15c>
    23de:	11 16       	cp	r1, r17
    23e0:	0c f4       	brge	.+2      	; 0x23e4 <Screen_SelectAP+0x18c>
    23e2:	11 50       	subi	r17, 0x01	; 1
    23e4:	0e 94 04 08 	call	0x1008	; 0x1008 <Button_Down_Pressed>
    23e8:	88 23       	and	r24, r24
    23ea:	61 f0       	breq	.+24     	; 0x2404 <Screen_SelectAP+0x1ac>
    23ec:	81 2f       	mov	r24, r17
    23ee:	01 2e       	mov	r0, r17
    23f0:	00 0c       	add	r0, r0
    23f2:	99 0b       	sbc	r25, r25
    23f4:	25 96       	adiw	r28, 0x05	; 5
    23f6:	ee ad       	ldd	r30, Y+62	; 0x3e
    23f8:	ff ad       	ldd	r31, Y+63	; 0x3f
    23fa:	25 97       	sbiw	r28, 0x05	; 5
    23fc:	8e 17       	cp	r24, r30
    23fe:	9f 07       	cpc	r25, r31
    2400:	0c f4       	brge	.+2      	; 0x2404 <Screen_SelectAP+0x1ac>
    2402:	1f 5f       	subi	r17, 0xFF	; 255
    2404:	0e 94 d1 07 	call	0xfa2	; 0xfa2 <Button_OK_Pressed>
    2408:	88 23       	and	r24, r24
    240a:	09 f4       	brne	.+2      	; 0x240e <Screen_SelectAP+0x1b6>
    240c:	72 cf       	rjmp	.-284    	; 0x22f2 <Screen_SelectAP+0x9a>
    240e:	0e 94 3b 0c 	call	0x1876	; 0x1876 <LCD_Clear>
    2412:	43 eb       	ldi	r20, 0xB3	; 179
    2414:	57 e0       	ldi	r21, 0x07	; 7
    2416:	61 e0       	ldi	r22, 0x01	; 1
    2418:	70 e0       	ldi	r23, 0x00	; 0
    241a:	80 e0       	ldi	r24, 0x00	; 0
    241c:	90 e0       	ldi	r25, 0x00	; 0
    241e:	0e 94 a9 0c 	call	0x1952	; 0x1952 <LCD_DrawText_P>
    2422:	a1 2e       	mov	r10, r17
    2424:	01 2e       	mov	r0, r17
    2426:	00 0c       	add	r0, r0
    2428:	bb 08       	sbc	r11, r11
    242a:	2a 9c       	mul	r2, r10
    242c:	c0 01       	movw	r24, r0
    242e:	2b 9c       	mul	r2, r11
    2430:	90 0d       	add	r25, r0
    2432:	11 24       	eor	r1, r1
    2434:	9c 01       	movw	r18, r24
    2436:	2b 55       	subi	r18, 0x5B	; 91
    2438:	3c 4f       	sbci	r19, 0xFC	; 252
    243a:	79 01       	movw	r14, r18
    243c:	a9 01       	movw	r20, r18
    243e:	62 e0       	ldi	r22, 0x02	; 2
    2440:	70 e0       	ldi	r23, 0x00	; 0
    2442:	80 e0       	ldi	r24, 0x00	; 0
    2444:	90 e0       	ldi	r25, 0x00	; 0
    2446:	0e 94 73 0c 	call	0x18e6	; 0x18e6 <LCD_DrawText>
    244a:	44 ea       	ldi	r20, 0xA4	; 164
    244c:	57 e0       	ldi	r21, 0x07	; 7
    244e:	64 e0       	ldi	r22, 0x04	; 4
    2450:	70 e0       	ldi	r23, 0x00	; 0
    2452:	80 e0       	ldi	r24, 0x00	; 0
    2454:	90 e0       	ldi	r25, 0x00	; 0
    2456:	0e 94 a9 0c 	call	0x1952	; 0x1952 <LCD_DrawText_P>
    245a:	0e 94 8f 0e 	call	0x1d1e	; 0x1d1e <LCD_Render>
    245e:	0e 94 e2 07 	call	0xfc4	; 0xfc4 <Button_Return_Pressed>
    2462:	81 11       	cpse	r24, r1
    2464:	46 cf       	rjmp	.-372    	; 0x22f2 <Screen_SelectAP+0x9a>
    2466:	0e 94 d1 07 	call	0xfa2	; 0xfa2 <Button_OK_Pressed>
    246a:	88 23       	and	r24, r24
    246c:	c1 f3       	breq	.-16     	; 0x245e <Screen_SelectAP+0x206>
    246e:	5a 82       	std	Y+2, r5	; 0x02
    2470:	49 82       	std	Y+1, r4	; 0x01
    2472:	23 96       	adiw	r28, 0x03	; 3
    2474:	ee ad       	ldd	r30, Y+62	; 0x3e
    2476:	ff ad       	ldd	r31, Y+63	; 0x3f
    2478:	23 97       	sbiw	r28, 0x03	; 3
    247a:	2e e3       	ldi	r18, 0x3E	; 62
    247c:	11 92       	st	Z+, r1
    247e:	2a 95       	dec	r18
    2480:	e9 f7       	brne	.-6      	; 0x247c <Screen_SelectAP+0x224>
    2482:	2a 9c       	mul	r2, r10
    2484:	f0 01       	movw	r30, r0
    2486:	2b 9c       	mul	r2, r11
    2488:	f0 0d       	add	r31, r0
    248a:	11 24       	eor	r1, r1
    248c:	eb 55       	subi	r30, 0x5B	; 91
    248e:	fc 4f       	sbci	r31, 0xFC	; 252
    2490:	80 a1       	ldd	r24, Z+32	; 0x20
    2492:	81 11       	cpse	r24, r1
    2494:	10 c0       	rjmp	.+32     	; 0x24b6 <Screen_SelectAP+0x25e>
    2496:	40 e2       	ldi	r20, 0x20	; 32
    2498:	50 e0       	ldi	r21, 0x00	; 0
    249a:	63 eb       	ldi	r22, 0xB3	; 179
    249c:	71 e0       	ldi	r23, 0x01	; 1
    249e:	c7 01       	movw	r24, r14
    24a0:	0e 94 fc 32 	call	0x65f8	; 0x65f8 <eeprom_update_block>
    24a4:	40 e4       	ldi	r20, 0x40	; 64
    24a6:	50 e0       	ldi	r21, 0x00	; 0
    24a8:	63 e7       	ldi	r22, 0x73	; 115
    24aa:	71 e0       	ldi	r23, 0x01	; 1
    24ac:	ce 01       	movw	r24, r28
    24ae:	01 96       	adiw	r24, 0x01	; 1
    24b0:	0e 94 fc 32 	call	0x65f8	; 0x65f8 <eeprom_update_block>
    24b4:	0b c0       	rjmp	.+22     	; 0x24cc <Screen_SelectAP+0x274>
    24b6:	45 e9       	ldi	r20, 0x95	; 149
    24b8:	57 e0       	ldi	r21, 0x07	; 7
    24ba:	60 e4       	ldi	r22, 0x40	; 64
    24bc:	ce 01       	movw	r24, r28
    24be:	01 96       	adiw	r24, 0x01	; 1
    24c0:	0e 94 37 08 	call	0x106e	; 0x106e <Interface_Keyboard_P>
    24c4:	01 96       	adiw	r24, 0x01	; 1
    24c6:	09 f4       	brne	.+2      	; 0x24ca <Screen_SelectAP+0x272>
    24c8:	14 cf       	rjmp	.-472    	; 0x22f2 <Screen_SelectAP+0x9a>
    24ca:	e5 cf       	rjmp	.-54     	; 0x2496 <Screen_SelectAP+0x23e>
    24cc:	cc 5b       	subi	r28, 0xBC	; 188
    24ce:	df 4f       	sbci	r29, 0xFF	; 255
    24d0:	0f b6       	in	r0, 0x3f	; 63
    24d2:	f8 94       	cli
    24d4:	de bf       	out	0x3e, r29	; 62
    24d6:	0f be       	out	0x3f, r0	; 63
    24d8:	cd bf       	out	0x3d, r28	; 61
    24da:	df 91       	pop	r29
    24dc:	cf 91       	pop	r28
    24de:	1f 91       	pop	r17
    24e0:	0f 91       	pop	r16
    24e2:	ff 90       	pop	r15
    24e4:	ef 90       	pop	r14
    24e6:	df 90       	pop	r13
    24e8:	cf 90       	pop	r12
    24ea:	bf 90       	pop	r11
    24ec:	af 90       	pop	r10
    24ee:	9f 90       	pop	r9
    24f0:	8f 90       	pop	r8
    24f2:	7f 90       	pop	r7
    24f4:	6f 90       	pop	r6
    24f6:	5f 90       	pop	r5
    24f8:	4f 90       	pop	r4
    24fa:	3f 90       	pop	r3
    24fc:	2f 90       	pop	r2
    24fe:	08 95       	ret

00002500 <Broker_Connect>:
    2500:	ef 92       	push	r14
    2502:	ff 92       	push	r15
    2504:	0f 93       	push	r16
    2506:	1f 93       	push	r17
    2508:	cf 93       	push	r28
    250a:	df 93       	push	r29
    250c:	cd b7       	in	r28, 0x3d	; 61
    250e:	de b7       	in	r29, 0x3e	; 62
    2510:	c0 55       	subi	r28, 0x50	; 80
    2512:	d1 09       	sbc	r29, r1
    2514:	0f b6       	in	r0, 0x3f	; 63
    2516:	f8 94       	cli
    2518:	de bf       	out	0x3e, r29	; 62
    251a:	0f be       	out	0x3f, r0	; 63
    251c:	cd bf       	out	0x3d, r28	; 61
    251e:	80 91 a2 01 	lds	r24, 0x01A2	; 0x8001a2 <BrokerFlags>
    2522:	8e 7f       	andi	r24, 0xFE	; 254
    2524:	80 93 a2 01 	sts	0x01A2, r24	; 0x8001a2 <BrokerFlags>
    2528:	0e 94 3b 0c 	call	0x1876	; 0x1876 <LCD_Clear>
    252c:	4e ee       	ldi	r20, 0xEE	; 238
    252e:	56 e0       	ldi	r21, 0x06	; 6
    2530:	60 e0       	ldi	r22, 0x00	; 0
    2532:	70 e0       	ldi	r23, 0x00	; 0
    2534:	80 e0       	ldi	r24, 0x00	; 0
    2536:	90 e0       	ldi	r25, 0x00	; 0
    2538:	0e 94 a9 0c 	call	0x1952	; 0x1952 <LCD_DrawText_P>
    253c:	0e 94 8f 0e 	call	0x1d1e	; 0x1d1e <LCD_Render>
    2540:	0e 94 d1 22 	call	0x45a2	; 0x45a2 <WLAN_Init>
    2544:	81 30       	cpi	r24, 0x01	; 1
    2546:	39 f0       	breq	.+14     	; 0x2556 <Broker_Connect+0x56>
    2548:	58 f0       	brcs	.+22     	; 0x2560 <Broker_Connect+0x60>
    254a:	82 30       	cpi	r24, 0x02	; 2
    254c:	09 f0       	breq	.+2      	; 0x2550 <Broker_Connect+0x50>
    254e:	a3 c0       	rjmp	.+326    	; 0x2696 <Broker_Connect+0x196>
    2550:	41 ed       	ldi	r20, 0xD1	; 209
    2552:	56 e0       	ldi	r21, 0x06	; 6
    2554:	02 c0       	rjmp	.+4      	; 0x255a <Broker_Connect+0x5a>
    2556:	4f ed       	ldi	r20, 0xDF	; 223
    2558:	56 e0       	ldi	r21, 0x06	; 6
    255a:	61 e0       	ldi	r22, 0x01	; 1
    255c:	70 e0       	ldi	r23, 0x00	; 0
    255e:	97 c0       	rjmp	.+302    	; 0x268e <Broker_Connect+0x18e>
    2560:	46 ec       	ldi	r20, 0xC6	; 198
    2562:	56 e0       	ldi	r21, 0x06	; 6
    2564:	61 e0       	ldi	r22, 0x01	; 1
    2566:	70 e0       	ldi	r23, 0x00	; 0
    2568:	80 e0       	ldi	r24, 0x00	; 0
    256a:	90 e0       	ldi	r25, 0x00	; 0
    256c:	0e 94 a9 0c 	call	0x1952	; 0x1952 <LCD_DrawText_P>
    2570:	0e 94 8f 0e 	call	0x1d1e	; 0x1d1e <LCD_Render>
    2574:	2f ef       	ldi	r18, 0xFF	; 255
    2576:	89 e6       	ldi	r24, 0x69	; 105
    2578:	98 e1       	ldi	r25, 0x18	; 24
    257a:	21 50       	subi	r18, 0x01	; 1
    257c:	80 40       	sbci	r24, 0x00	; 0
    257e:	90 40       	sbci	r25, 0x00	; 0
    2580:	e1 f7       	brne	.-8      	; 0x257a <Broker_Connect+0x7a>
    2582:	00 c0       	rjmp	.+0      	; 0x2584 <Broker_Connect+0x84>
    2584:	00 00       	nop
    2586:	80 e0       	ldi	r24, 0x00	; 0
    2588:	90 e0       	ldi	r25, 0x00	; 0
    258a:	0e 94 ee 32 	call	0x65dc	; 0x65dc <eeprom_read_byte>
    258e:	82 95       	swap	r24
    2590:	8f 70       	andi	r24, 0x0F	; 15
    2592:	09 f4       	brne	.+2      	; 0x2596 <Broker_Connect+0x96>
    2594:	8b c0       	rjmp	.+278    	; 0x26ac <Broker_Connect+0x1ac>
    2596:	40 e2       	ldi	r20, 0x20	; 32
    2598:	50 e0       	ldi	r21, 0x00	; 0
    259a:	63 eb       	ldi	r22, 0xB3	; 179
    259c:	71 e0       	ldi	r23, 0x01	; 1
    259e:	85 ea       	ldi	r24, 0xA5	; 165
    25a0:	93 e0       	ldi	r25, 0x03	; 3
    25a2:	0e 94 de 32 	call	0x65bc	; 0x65bc <eeprom_read_block>
    25a6:	40 e4       	ldi	r20, 0x40	; 64
    25a8:	50 e0       	ldi	r21, 0x00	; 0
    25aa:	63 e7       	ldi	r22, 0x73	; 115
    25ac:	71 e0       	ldi	r23, 0x01	; 1
    25ae:	8e 01       	movw	r16, r28
    25b0:	0f 5f       	subi	r16, 0xFF	; 255
    25b2:	1f 4f       	sbci	r17, 0xFF	; 255
    25b4:	c8 01       	movw	r24, r16
    25b6:	0e 94 de 32 	call	0x65bc	; 0x65bc <eeprom_read_block>
    25ba:	b8 01       	movw	r22, r16
    25bc:	85 ea       	ldi	r24, 0xA5	; 165
    25be:	93 e0       	ldi	r25, 0x03	; 3
    25c0:	0e 94 b7 23 	call	0x476e	; 0x476e <WLAN_JoinAccessPoint>
    25c4:	81 11       	cpse	r24, r1
    25c6:	5f c0       	rjmp	.+190    	; 0x2686 <Broker_Connect+0x186>
    25c8:	49 eb       	ldi	r20, 0xB9	; 185
    25ca:	56 e0       	ldi	r21, 0x06	; 6
    25cc:	62 e0       	ldi	r22, 0x02	; 2
    25ce:	70 e0       	ldi	r23, 0x00	; 0
    25d0:	80 e0       	ldi	r24, 0x00	; 0
    25d2:	90 e0       	ldi	r25, 0x00	; 0
    25d4:	0e 94 a9 0c 	call	0x1952	; 0x1952 <LCD_DrawText_P>
    25d8:	0e 94 8f 0e 	call	0x1d1e	; 0x1d1e <LCD_Render>
    25dc:	40 e4       	ldi	r20, 0x40	; 64
    25de:	50 e0       	ldi	r21, 0x00	; 0
    25e0:	63 e3       	ldi	r22, 0x33	; 51
    25e2:	71 e0       	ldi	r23, 0x01	; 1
    25e4:	c8 01       	movw	r24, r16
    25e6:	0e 94 de 32 	call	0x65bc	; 0x65bc <eeprom_read_block>
    25ea:	81 e2       	ldi	r24, 0x21	; 33
    25ec:	91 e0       	ldi	r25, 0x01	; 1
    25ee:	0e 94 f6 32 	call	0x65ec	; 0x65ec <eeprom_read_word>
    25f2:	bc 01       	movw	r22, r24
    25f4:	c8 01       	movw	r24, r16
    25f6:	0e 94 13 24 	call	0x4826	; 0x4826 <WLAN_TcpConnect>
    25fa:	81 11       	cpse	r24, r1
    25fc:	3f c0       	rjmp	.+126    	; 0x267c <Broker_Connect+0x17c>
    25fe:	7e 01       	movw	r14, r28
    2600:	21 e4       	ldi	r18, 0x41	; 65
    2602:	e2 0e       	add	r14, r18
    2604:	f1 1c       	adc	r15, r1
    2606:	40 e1       	ldi	r20, 0x10	; 16
    2608:	50 e0       	ldi	r21, 0x00	; 0
    260a:	63 e2       	ldi	r22, 0x23	; 35
    260c:	71 e0       	ldi	r23, 0x01	; 1
    260e:	c7 01       	movw	r24, r14
    2610:	0e 94 de 32 	call	0x65bc	; 0x65bc <eeprom_read_block>
    2614:	ff 92       	push	r15
    2616:	ef 92       	push	r14
    2618:	8c ea       	ldi	r24, 0xAC	; 172
    261a:	96 e0       	ldi	r25, 0x06	; 6
    261c:	9f 93       	push	r25
    261e:	8f 93       	push	r24
    2620:	1f 93       	push	r17
    2622:	0f 93       	push	r16
    2624:	0e 94 e6 2d 	call	0x5bcc	; 0x5bcc <sprintf_P>
    2628:	c8 01       	movw	r24, r16
    262a:	0e 94 77 24 	call	0x48ee	; 0x48ee <WLAN_TcpSend>
    262e:	8f ef       	ldi	r24, 0xFF	; 255
    2630:	99 e6       	ldi	r25, 0x69	; 105
    2632:	28 e1       	ldi	r18, 0x18	; 24
    2634:	81 50       	subi	r24, 0x01	; 1
    2636:	90 40       	sbci	r25, 0x00	; 0
    2638:	20 40       	sbci	r18, 0x00	; 0
    263a:	e1 f7       	brne	.-8      	; 0x2634 <Broker_Connect+0x134>
    263c:	00 c0       	rjmp	.+0      	; 0x263e <Broker_Connect+0x13e>
    263e:	00 00       	nop
    2640:	8e ef       	ldi	r24, 0xFE	; 254
    2642:	90 e1       	ldi	r25, 0x10	; 16
    2644:	0e 94 86 25 	call	0x4b0c	; 0x4b0c <WLAN_Listen>
    2648:	80 91 a2 01 	lds	r24, 0x01A2	; 0x8001a2 <BrokerFlags>
    264c:	0f 90       	pop	r0
    264e:	0f 90       	pop	r0
    2650:	0f 90       	pop	r0
    2652:	0f 90       	pop	r0
    2654:	0f 90       	pop	r0
    2656:	0f 90       	pop	r0
    2658:	80 ff       	sbrs	r24, 0
    265a:	0d c0       	rjmp	.+26     	; 0x2676 <Broker_Connect+0x176>
    265c:	4f e9       	ldi	r20, 0x9F	; 159
    265e:	56 e0       	ldi	r21, 0x06	; 6
    2660:	63 e0       	ldi	r22, 0x03	; 3
    2662:	70 e0       	ldi	r23, 0x00	; 0
    2664:	80 e0       	ldi	r24, 0x00	; 0
    2666:	90 e0       	ldi	r25, 0x00	; 0
    2668:	0e 94 a9 0c 	call	0x1952	; 0x1952 <LCD_DrawText_P>
    266c:	4c e9       	ldi	r20, 0x9C	; 156
    266e:	56 e0       	ldi	r21, 0x06	; 6
    2670:	64 e0       	ldi	r22, 0x04	; 4
    2672:	70 e0       	ldi	r23, 0x00	; 0
    2674:	0c c0       	rjmp	.+24     	; 0x268e <Broker_Connect+0x18e>
    2676:	4d e8       	ldi	r20, 0x8D	; 141
    2678:	56 e0       	ldi	r21, 0x06	; 6
    267a:	02 c0       	rjmp	.+4      	; 0x2680 <Broker_Connect+0x180>
    267c:	41 e8       	ldi	r20, 0x81	; 129
    267e:	56 e0       	ldi	r21, 0x06	; 6
    2680:	63 e0       	ldi	r22, 0x03	; 3
    2682:	70 e0       	ldi	r23, 0x00	; 0
    2684:	04 c0       	rjmp	.+8      	; 0x268e <Broker_Connect+0x18e>
    2686:	43 e7       	ldi	r20, 0x73	; 115
    2688:	56 e0       	ldi	r21, 0x06	; 6
    268a:	62 e0       	ldi	r22, 0x02	; 2
    268c:	70 e0       	ldi	r23, 0x00	; 0
    268e:	80 e0       	ldi	r24, 0x00	; 0
    2690:	90 e0       	ldi	r25, 0x00	; 0
    2692:	0e 94 a9 0c 	call	0x1952	; 0x1952 <LCD_DrawText_P>
    2696:	0e 94 8f 0e 	call	0x1d1e	; 0x1d1e <LCD_Render>
    269a:	8f ef       	ldi	r24, 0xFF	; 255
    269c:	93 ed       	ldi	r25, 0xD3	; 211
    269e:	20 e3       	ldi	r18, 0x30	; 48
    26a0:	81 50       	subi	r24, 0x01	; 1
    26a2:	90 40       	sbci	r25, 0x00	; 0
    26a4:	20 40       	sbci	r18, 0x00	; 0
    26a6:	e1 f7       	brne	.-8      	; 0x26a0 <Broker_Connect+0x1a0>
    26a8:	00 c0       	rjmp	.+0      	; 0x26aa <Broker_Connect+0x1aa>
    26aa:	00 00       	nop
    26ac:	c0 5b       	subi	r28, 0xB0	; 176
    26ae:	df 4f       	sbci	r29, 0xFF	; 255
    26b0:	0f b6       	in	r0, 0x3f	; 63
    26b2:	f8 94       	cli
    26b4:	de bf       	out	0x3e, r29	; 62
    26b6:	0f be       	out	0x3f, r0	; 63
    26b8:	cd bf       	out	0x3d, r28	; 61
    26ba:	df 91       	pop	r29
    26bc:	cf 91       	pop	r28
    26be:	1f 91       	pop	r17
    26c0:	0f 91       	pop	r16
    26c2:	ff 90       	pop	r15
    26c4:	ef 90       	pop	r14
    26c6:	08 95       	ret

000026c8 <str_replace>:
    26c8:	2f 92       	push	r2
    26ca:	3f 92       	push	r3
    26cc:	4f 92       	push	r4
    26ce:	5f 92       	push	r5
    26d0:	6f 92       	push	r6
    26d2:	7f 92       	push	r7
    26d4:	8f 92       	push	r8
    26d6:	9f 92       	push	r9
    26d8:	af 92       	push	r10
    26da:	bf 92       	push	r11
    26dc:	cf 92       	push	r12
    26de:	df 92       	push	r13
    26e0:	ef 92       	push	r14
    26e2:	ff 92       	push	r15
    26e4:	0f 93       	push	r16
    26e6:	1f 93       	push	r17
    26e8:	cf 93       	push	r28
    26ea:	df 93       	push	r29
    26ec:	cd b7       	in	r28, 0x3d	; 61
    26ee:	de b7       	in	r29, 0x3e	; 62
    26f0:	c4 58       	subi	r28, 0x84	; 132
    26f2:	d1 09       	sbc	r29, r1
    26f4:	0f b6       	in	r0, 0x3f	; 63
    26f6:	f8 94       	cli
    26f8:	de bf       	out	0x3e, r29	; 62
    26fa:	0f be       	out	0x3f, r0	; 63
    26fc:	cd bf       	out	0x3d, r28	; 61
    26fe:	1c 01       	movw	r2, r24
    2700:	4b 01       	movw	r8, r22
    2702:	2a 01       	movw	r4, r20
    2704:	ce 01       	movw	r24, r28
    2706:	01 96       	adiw	r24, 0x01	; 1
    2708:	3c 01       	movw	r6, r24
    270a:	80 e8       	ldi	r24, 0x80	; 128
    270c:	f3 01       	movw	r30, r6
    270e:	11 92       	st	Z+, r1
    2710:	8a 95       	dec	r24
    2712:	e9 f7       	brne	.-6      	; 0x270e <str_replace+0x46>
    2714:	fb 01       	movw	r30, r22
    2716:	01 90       	ld	r0, Z+
    2718:	00 20       	and	r0, r0
    271a:	e9 f7       	brne	.-6      	; 0x2716 <str_replace+0x4e>
    271c:	31 97       	sbiw	r30, 0x01	; 1
    271e:	cf 01       	movw	r24, r30
    2720:	86 1b       	sub	r24, r22
    2722:	97 0b       	sbc	r25, r23
    2724:	cd 57       	subi	r28, 0x7D	; 125
    2726:	df 4f       	sbci	r29, 0xFF	; 255
    2728:	99 83       	std	Y+1, r25	; 0x01
    272a:	88 83       	st	Y, r24
    272c:	c3 58       	subi	r28, 0x83	; 131
    272e:	d0 40       	sbci	r29, 0x00	; 0
    2730:	fa 01       	movw	r30, r20
    2732:	01 90       	ld	r0, Z+
    2734:	00 20       	and	r0, r0
    2736:	e9 f7       	brne	.-6      	; 0x2732 <str_replace+0x6a>
    2738:	31 97       	sbiw	r30, 0x01	; 1
    273a:	cf 01       	movw	r24, r30
    273c:	84 1b       	sub	r24, r20
    273e:	95 0b       	sbc	r25, r21
    2740:	cf 57       	subi	r28, 0x7F	; 127
    2742:	df 4f       	sbci	r29, 0xFF	; 255
    2744:	99 83       	std	Y+1, r25	; 0x01
    2746:	88 83       	st	Y, r24
    2748:	c1 58       	subi	r28, 0x81	; 129
    274a:	d0 40       	sbci	r29, 0x00	; 0
    274c:	81 01       	movw	r16, r2
    274e:	63 01       	movw	r12, r6
    2750:	b4 01       	movw	r22, r8
    2752:	c8 01       	movw	r24, r16
    2754:	0e 94 78 2d 	call	0x5af0	; 0x5af0 <strstr>
    2758:	5c 01       	movw	r10, r24
    275a:	00 97       	sbiw	r24, 0x00	; 0
    275c:	11 f5       	brne	.+68     	; 0x27a2 <str_replace+0xda>
    275e:	b8 01       	movw	r22, r16
    2760:	c6 01       	movw	r24, r12
    2762:	0e 94 63 2d 	call	0x5ac6	; 0x5ac6 <strcpy>
    2766:	b3 01       	movw	r22, r6
    2768:	c1 01       	movw	r24, r2
    276a:	0e 94 63 2d 	call	0x5ac6	; 0x5ac6 <strcpy>
    276e:	cc 57       	subi	r28, 0x7C	; 124
    2770:	df 4f       	sbci	r29, 0xFF	; 255
    2772:	0f b6       	in	r0, 0x3f	; 63
    2774:	f8 94       	cli
    2776:	de bf       	out	0x3e, r29	; 62
    2778:	0f be       	out	0x3f, r0	; 63
    277a:	cd bf       	out	0x3d, r28	; 61
    277c:	df 91       	pop	r29
    277e:	cf 91       	pop	r28
    2780:	1f 91       	pop	r17
    2782:	0f 91       	pop	r16
    2784:	ff 90       	pop	r15
    2786:	ef 90       	pop	r14
    2788:	df 90       	pop	r13
    278a:	cf 90       	pop	r12
    278c:	bf 90       	pop	r11
    278e:	af 90       	pop	r10
    2790:	9f 90       	pop	r9
    2792:	8f 90       	pop	r8
    2794:	7f 90       	pop	r7
    2796:	6f 90       	pop	r6
    2798:	5f 90       	pop	r5
    279a:	4f 90       	pop	r4
    279c:	3f 90       	pop	r3
    279e:	2f 90       	pop	r2
    27a0:	08 95       	ret
    27a2:	7c 01       	movw	r14, r24
    27a4:	e0 1a       	sub	r14, r16
    27a6:	f1 0a       	sbc	r15, r17
    27a8:	a7 01       	movw	r20, r14
    27aa:	b8 01       	movw	r22, r16
    27ac:	c6 01       	movw	r24, r12
    27ae:	0e 94 41 2d 	call	0x5a82	; 0x5a82 <memcpy>
    27b2:	ce 0c       	add	r12, r14
    27b4:	df 1c       	adc	r13, r15
    27b6:	cf 57       	subi	r28, 0x7F	; 127
    27b8:	df 4f       	sbci	r29, 0xFF	; 255
    27ba:	48 81       	ld	r20, Y
    27bc:	59 81       	ldd	r21, Y+1	; 0x01
    27be:	c1 58       	subi	r28, 0x81	; 129
    27c0:	d0 40       	sbci	r29, 0x00	; 0
    27c2:	b2 01       	movw	r22, r4
    27c4:	c6 01       	movw	r24, r12
    27c6:	0e 94 41 2d 	call	0x5a82	; 0x5a82 <memcpy>
    27ca:	cf 57       	subi	r28, 0x7F	; 127
    27cc:	df 4f       	sbci	r29, 0xFF	; 255
    27ce:	e8 81       	ld	r30, Y
    27d0:	f9 81       	ldd	r31, Y+1	; 0x01
    27d2:	c1 58       	subi	r28, 0x81	; 129
    27d4:	d0 40       	sbci	r29, 0x00	; 0
    27d6:	ce 0e       	add	r12, r30
    27d8:	df 1e       	adc	r13, r31
    27da:	cd 57       	subi	r28, 0x7D	; 125
    27dc:	df 4f       	sbci	r29, 0xFF	; 255
    27de:	08 81       	ld	r16, Y
    27e0:	19 81       	ldd	r17, Y+1	; 0x01
    27e2:	c3 58       	subi	r28, 0x83	; 131
    27e4:	d0 40       	sbci	r29, 0x00	; 0
    27e6:	0a 0d       	add	r16, r10
    27e8:	1b 1d       	adc	r17, r11
    27ea:	b2 cf       	rjmp	.-156    	; 0x2750 <str_replace+0x88>

000027ec <main>:
    27ec:	cf 93       	push	r28
    27ee:	df 93       	push	r29
    27f0:	cd b7       	in	r28, 0x3d	; 61
    27f2:	de b7       	in	r29, 0x3e	; 62
    27f4:	cd 58       	subi	r28, 0x8D	; 141
    27f6:	d1 09       	sbc	r29, r1
    27f8:	0f b6       	in	r0, 0x3f	; 63
    27fa:	f8 94       	cli
    27fc:	de bf       	out	0x3e, r29	; 62
    27fe:	0f be       	out	0x3f, r0	; 63
    2800:	cd bf       	out	0x3d, r28	; 61
    2802:	3c 9a       	sbi	0x07, 4	; 7
    2804:	3d 9a       	sbi	0x07, 5	; 7
    2806:	44 98       	cbi	0x08, 4	; 8
    2808:	45 98       	cbi	0x08, 5	; 8
    280a:	0e 94 61 07 	call	0xec2	; 0xec2 <SetupButtons>
    280e:	0e 94 55 0c 	call	0x18aa	; 0x18aa <LCD_Init>
    2812:	0e 94 c9 0e 	call	0x1d92	; 0x1d92 <LCD_SetupBacklight>
    2816:	84 ef       	ldi	r24, 0xF4	; 244
    2818:	91 e0       	ldi	r25, 0x01	; 1
    281a:	0e 94 ee 32 	call	0x65dc	; 0x65dc <eeprom_read_byte>
    281e:	0e 94 b5 0e 	call	0x1d6a	; 0x1d6a <LCD_SetBrightness>
    2822:	83 ef       	ldi	r24, 0xF3	; 243
    2824:	91 e0       	ldi	r25, 0x01	; 1
    2826:	0e 94 ee 32 	call	0x65dc	; 0x65dc <eeprom_read_byte>
    282a:	0e 94 da 0e 	call	0x1db4	; 0x1db4 <LCD_SetBacklightBrightness>
    282e:	0e 94 71 05 	call	0xae2	; 0xae2 <ADC_Init>
    2832:	4c e6       	ldi	r20, 0x6C	; 108
    2834:	56 e0       	ldi	r21, 0x06	; 6
    2836:	63 e0       	ldi	r22, 0x03	; 3
    2838:	70 e0       	ldi	r23, 0x00	; 0
    283a:	88 e1       	ldi	r24, 0x18	; 24
    283c:	90 e0       	ldi	r25, 0x00	; 0
    283e:	0e 94 a9 0c 	call	0x1952	; 0x1952 <LCD_DrawText_P>
    2842:	0e 94 8f 0e 	call	0x1d1e	; 0x1d1e <LCD_Render>
    2846:	2f ef       	ldi	r18, 0xFF	; 255
    2848:	87 ea       	ldi	r24, 0xA7	; 167
    284a:	91 e6       	ldi	r25, 0x61	; 97
    284c:	21 50       	subi	r18, 0x01	; 1
    284e:	80 40       	sbci	r24, 0x00	; 0
    2850:	90 40       	sbci	r25, 0x00	; 0
    2852:	e1 f7       	brne	.-8      	; 0x284c <main+0x60>
    2854:	00 c0       	rjmp	.+0      	; 0x2856 <main+0x6a>
    2856:	00 00       	nop
    2858:	0e 94 80 12 	call	0x2500	; 0x2500 <Broker_Connect>
    285c:	fe 01       	movw	r30, r28
    285e:	31 96       	adiw	r30, 0x01	; 1
    2860:	4f 01       	movw	r8, r30
    2862:	8a e5       	ldi	r24, 0x5A	; 90
    2864:	11 92       	st	Z+, r1
    2866:	8a 95       	dec	r24
    2868:	e9 f7       	brne	.-6      	; 0x2864 <main+0x78>
    286a:	3e 01       	movw	r6, r28
    286c:	fb e6       	ldi	r31, 0x6B	; 107
    286e:	6f 0e       	add	r6, r31
    2870:	71 1c       	adc	r7, r1
    2872:	80 e1       	ldi	r24, 0x10	; 16
    2874:	f3 01       	movw	r30, r6
    2876:	11 92       	st	Z+, r1
    2878:	8a 95       	dec	r24
    287a:	e9 f7       	brne	.-6      	; 0x2876 <main+0x8a>
    287c:	4c e3       	ldi	r20, 0x3C	; 60
    287e:	44 2e       	mov	r4, r20
    2880:	51 2c       	mov	r5, r1
    2882:	1e 01       	movw	r2, r28
    2884:	fb e7       	ldi	r31, 0x7B	; 123
    2886:	2f 0e       	add	r2, r31
    2888:	31 1c       	adc	r3, r1
    288a:	0e 94 3b 0c 	call	0x1876	; 0x1876 <LCD_Clear>
    288e:	55 20       	and	r5, r5
    2890:	49 f0       	breq	.+18     	; 0x28a4 <main+0xb8>
    2892:	80 e0       	ldi	r24, 0x00	; 0
    2894:	90 e0       	ldi	r25, 0x00	; 0
    2896:	0e 94 ee 32 	call	0x65dc	; 0x65dc <eeprom_read_byte>
    289a:	82 95       	swap	r24
    289c:	8f 70       	andi	r24, 0x0F	; 15
    289e:	31 f0       	breq	.+12     	; 0x28ac <main+0xc0>
    28a0:	55 24       	eor	r5, r5
    28a2:	53 94       	inc	r5
    28a4:	41 10       	cpse	r4, r1
    28a6:	05 c0       	rjmp	.+10     	; 0x28b2 <main+0xc6>
    28a8:	0e 94 80 12 	call	0x2500	; 0x2500 <Broker_Connect>
    28ac:	3c e3       	ldi	r19, 0x3C	; 60
    28ae:	43 2e       	mov	r4, r19
    28b0:	51 2c       	mov	r5, r1
    28b2:	80 e0       	ldi	r24, 0x00	; 0
    28b4:	90 e0       	ldi	r25, 0x00	; 0
    28b6:	0e 94 ee 32 	call	0x65dc	; 0x65dc <eeprom_read_byte>
    28ba:	84 ff       	sbrs	r24, 4
    28bc:	24 c0       	rjmp	.+72     	; 0x2906 <main+0x11a>
    28be:	55 20       	and	r5, r5
    28c0:	c9 f0       	breq	.+50     	; 0x28f4 <main+0x108>
    28c2:	1f 92       	push	r1
    28c4:	4f 92       	push	r4
    28c6:	8d e5       	ldi	r24, 0x5D	; 93
    28c8:	96 e0       	ldi	r25, 0x06	; 6
    28ca:	9f 93       	push	r25
    28cc:	8f 93       	push	r24
    28ce:	9f 92       	push	r9
    28d0:	8f 92       	push	r8
    28d2:	0e 94 e6 2d 	call	0x5bcc	; 0x5bcc <sprintf_P>
    28d6:	a4 01       	movw	r20, r8
    28d8:	65 e0       	ldi	r22, 0x05	; 5
    28da:	70 e0       	ldi	r23, 0x00	; 0
    28dc:	80 e0       	ldi	r24, 0x00	; 0
    28de:	90 e0       	ldi	r25, 0x00	; 0
    28e0:	0e 94 73 0c 	call	0x18e6	; 0x18e6 <LCD_DrawText>
    28e4:	4a 94       	dec	r4
    28e6:	0f 90       	pop	r0
    28e8:	0f 90       	pop	r0
    28ea:	0f 90       	pop	r0
    28ec:	0f 90       	pop	r0
    28ee:	0f 90       	pop	r0
    28f0:	0f 90       	pop	r0
    28f2:	09 c0       	rjmp	.+18     	; 0x2906 <main+0x11a>
    28f4:	80 91 a2 01 	lds	r24, 0x01A2	; 0x8001a2 <BrokerFlags>
    28f8:	88 23       	and	r24, r24
    28fa:	19 f3       	breq	.-58     	; 0x28c2 <main+0xd6>
    28fc:	0e 94 ce 22 	call	0x459c	; 0x459c <WLAN_GetState>
    2900:	82 ff       	sbrs	r24, 2
    2902:	df cf       	rjmp	.-66     	; 0x28c2 <main+0xd6>
    2904:	02 c0       	rjmp	.+4      	; 0x290a <main+0x11e>
    2906:	51 10       	cpse	r5, r1
    2908:	0a c0       	rjmp	.+20     	; 0x291e <main+0x132>
    290a:	8e ef       	ldi	r24, 0xFE	; 254
    290c:	90 e1       	ldi	r25, 0x10	; 16
    290e:	0e 94 86 25 	call	0x4b0c	; 0x4b0c <WLAN_Listen>
    2912:	55 24       	eor	r5, r5
    2914:	53 94       	inc	r5
    2916:	83 30       	cpi	r24, 0x03	; 3
    2918:	21 f0       	breq	.+8      	; 0x2922 <main+0x136>
    291a:	51 2c       	mov	r5, r1
    291c:	02 c0       	rjmp	.+4      	; 0x2922 <main+0x136>
    291e:	55 24       	eor	r5, r5
    2920:	53 94       	inc	r5
    2922:	63 e0       	ldi	r22, 0x03	; 3
    2924:	80 e0       	ldi	r24, 0x00	; 0
    2926:	0e 94 87 05 	call	0xb0e	; 0xb0e <ADC_Oversample>
    292a:	a1 2c       	mov	r10, r1
    292c:	b1 2c       	mov	r11, r1
    292e:	65 01       	movw	r12, r10
    2930:	e1 2c       	mov	r14, r1
    2932:	f1 2c       	mov	r15, r1
    2934:	00 e8       	ldi	r16, 0x80	; 128
    2936:	1f e3       	ldi	r17, 0x3F	; 63
    2938:	23 e3       	ldi	r18, 0x33	; 51
    293a:	33 e3       	ldi	r19, 0x33	; 51
    293c:	43 e5       	ldi	r20, 0x53	; 83
    293e:	50 e4       	ldi	r21, 0x40	; 64
    2940:	64 e0       	ldi	r22, 0x04	; 4
    2942:	70 e2       	ldi	r23, 0x20	; 32
    2944:	0e 94 ba 05 	call	0xb74	; 0xb74 <ADC_LinearV2U>
    2948:	6f 96       	adiw	r28, 0x1f	; 31
    294a:	6c af       	std	Y+60, r22	; 0x3c
    294c:	7d af       	std	Y+61, r23	; 0x3d
    294e:	8e af       	std	Y+62, r24	; 0x3e
    2950:	9f af       	std	Y+63, r25	; 0x3f
    2952:	6f 97       	sbiw	r28, 0x1f	; 31
    2954:	63 e0       	ldi	r22, 0x03	; 3
    2956:	81 e0       	ldi	r24, 0x01	; 1
    2958:	0e 94 87 05 	call	0xb0e	; 0xb0e <ADC_Oversample>
    295c:	23 e3       	ldi	r18, 0x33	; 51
    295e:	33 e3       	ldi	r19, 0x33	; 51
    2960:	43 e5       	ldi	r20, 0x53	; 83
    2962:	50 e4       	ldi	r21, 0x40	; 64
    2964:	64 e0       	ldi	r22, 0x04	; 4
    2966:	70 e2       	ldi	r23, 0x20	; 32
    2968:	0e 94 ba 05 	call	0xb74	; 0xb74 <ADC_LinearV2U>
    296c:	a3 96       	adiw	r28, 0x23	; 35
    296e:	6c af       	std	Y+60, r22	; 0x3c
    2970:	7d af       	std	Y+61, r23	; 0x3d
    2972:	8e af       	std	Y+62, r24	; 0x3e
    2974:	9f af       	std	Y+63, r25	; 0x3f
    2976:	a3 97       	sbiw	r28, 0x23	; 35
    2978:	44 99       	sbic	0x08, 4	; 8
    297a:	03 c0       	rjmp	.+6      	; 0x2982 <main+0x196>
    297c:	d6 01       	movw	r26, r12
    297e:	c5 01       	movw	r24, r10
    2980:	04 c0       	rjmp	.+8      	; 0x298a <main+0x19e>
    2982:	80 e0       	ldi	r24, 0x00	; 0
    2984:	90 e0       	ldi	r25, 0x00	; 0
    2986:	a0 e8       	ldi	r26, 0x80	; 128
    2988:	bf e3       	ldi	r27, 0x3F	; 63
    298a:	a7 96       	adiw	r28, 0x27	; 39
    298c:	8c af       	std	Y+60, r24	; 0x3c
    298e:	9d af       	std	Y+61, r25	; 0x3d
    2990:	ae af       	std	Y+62, r26	; 0x3e
    2992:	bf af       	std	Y+63, r27	; 0x3f
    2994:	a7 97       	sbiw	r28, 0x27	; 39
    2996:	45 99       	sbic	0x08, 5	; 8
    2998:	04 c0       	rjmp	.+8      	; 0x29a2 <main+0x1b6>
    299a:	80 e0       	ldi	r24, 0x00	; 0
    299c:	90 e0       	ldi	r25, 0x00	; 0
    299e:	dc 01       	movw	r26, r24
    29a0:	04 c0       	rjmp	.+8      	; 0x29aa <main+0x1be>
    29a2:	80 e0       	ldi	r24, 0x00	; 0
    29a4:	90 e0       	ldi	r25, 0x00	; 0
    29a6:	a0 e8       	ldi	r26, 0x80	; 128
    29a8:	bf e3       	ldi	r27, 0x3F	; 63
    29aa:	ab 96       	adiw	r28, 0x2b	; 43
    29ac:	8c af       	std	Y+60, r24	; 0x3c
    29ae:	9d af       	std	Y+61, r25	; 0x3d
    29b0:	ae af       	std	Y+62, r26	; 0x3e
    29b2:	bf af       	std	Y+63, r27	; 0x3f
    29b4:	ab 97       	sbiw	r28, 0x2b	; 43
    29b6:	81 e0       	ldi	r24, 0x01	; 1
    29b8:	90 e0       	ldi	r25, 0x00	; 0
    29ba:	c9 57       	subi	r28, 0x79	; 121
    29bc:	df 4f       	sbci	r29, 0xFF	; 255
    29be:	99 83       	std	Y+1, r25	; 0x01
    29c0:	88 83       	st	Y, r24
    29c2:	c7 58       	subi	r28, 0x87	; 135
    29c4:	d0 40       	sbci	r29, 0x00	; 0
    29c6:	fe 01       	movw	r30, r28
    29c8:	e5 5a       	subi	r30, 0xA5	; 165
    29ca:	ff 4f       	sbci	r31, 0xFF	; 255
    29cc:	cb 57       	subi	r28, 0x7B	; 123
    29ce:	df 4f       	sbci	r29, 0xFF	; 255
    29d0:	f9 83       	std	Y+1, r31	; 0x01
    29d2:	e8 83       	st	Y, r30
    29d4:	c5 58       	subi	r28, 0x85	; 133
    29d6:	d0 40       	sbci	r29, 0x00	; 0
    29d8:	81 e0       	ldi	r24, 0x01	; 1
    29da:	91 e0       	ldi	r25, 0x01	; 1
    29dc:	c7 57       	subi	r28, 0x77	; 119
    29de:	df 4f       	sbci	r29, 0xFF	; 255
    29e0:	99 83       	std	Y+1, r25	; 0x01
    29e2:	88 83       	st	Y, r24
    29e4:	c9 58       	subi	r28, 0x89	; 137
    29e6:	d0 40       	sbci	r29, 0x00	; 0
    29e8:	e1 2c       	mov	r14, r1
    29ea:	f1 2c       	mov	r15, r1
    29ec:	80 e0       	ldi	r24, 0x00	; 0
    29ee:	90 e0       	ldi	r25, 0x00	; 0
    29f0:	0e 94 ee 32 	call	0x65dc	; 0x65dc <eeprom_read_byte>
    29f4:	c4 57       	subi	r28, 0x74	; 116
    29f6:	df 4f       	sbci	r29, 0xFF	; 255
    29f8:	e8 82       	st	Y, r14
    29fa:	cc 58       	subi	r28, 0x8C	; 140
    29fc:	d0 40       	sbci	r29, 0x00	; 0
    29fe:	c3 57       	subi	r28, 0x73	; 115
    2a00:	df 4f       	sbci	r29, 0xFF	; 255
    2a02:	f8 82       	st	Y, r15
    2a04:	cd 58       	subi	r28, 0x8D	; 141
    2a06:	d0 40       	sbci	r29, 0x00	; 0
    2a08:	90 e0       	ldi	r25, 0x00	; 0
    2a0a:	0e 2c       	mov	r0, r14
    2a0c:	02 c0       	rjmp	.+4      	; 0x2a12 <main+0x226>
    2a0e:	95 95       	asr	r25
    2a10:	87 95       	ror	r24
    2a12:	0a 94       	dec	r0
    2a14:	e2 f7       	brpl	.-8      	; 0x2a0e <main+0x222>
    2a16:	80 ff       	sbrs	r24, 0
    2a18:	26 c1       	rjmp	.+588    	; 0x2c66 <main+0x47a>
    2a1a:	40 e4       	ldi	r20, 0x40	; 64
    2a1c:	50 e0       	ldi	r21, 0x00	; 0
    2a1e:	c9 57       	subi	r28, 0x79	; 121
    2a20:	df 4f       	sbci	r29, 0xFF	; 255
    2a22:	68 81       	ld	r22, Y
    2a24:	79 81       	ldd	r23, Y+1	; 0x01
    2a26:	c7 58       	subi	r28, 0x87	; 135
    2a28:	d0 40       	sbci	r29, 0x00	; 0
    2a2a:	c4 01       	movw	r24, r8
    2a2c:	0e 94 de 32 	call	0x65bc	; 0x65bc <eeprom_read_block>
    2a30:	43 e5       	ldi	r20, 0x53	; 83
    2a32:	51 e0       	ldi	r21, 0x01	; 1
    2a34:	6a e4       	ldi	r22, 0x4A	; 74
    2a36:	71 e0       	ldi	r23, 0x01	; 1
    2a38:	c4 01       	movw	r24, r8
    2a3a:	0e 94 64 13 	call	0x26c8	; 0x26c8 <str_replace>
    2a3e:	6f 96       	adiw	r28, 0x1f	; 31
    2a40:	6c ad       	ldd	r22, Y+60	; 0x3c
    2a42:	7d ad       	ldd	r23, Y+61	; 0x3d
    2a44:	8e ad       	ldd	r24, Y+62	; 0x3e
    2a46:	9f ad       	ldd	r25, Y+63	; 0x3f
    2a48:	6f 97       	sbiw	r28, 0x1f	; 31
    2a4a:	83 01       	movw	r16, r6
    2a4c:	24 e0       	ldi	r18, 0x04	; 4
    2a4e:	40 e0       	ldi	r20, 0x00	; 0
    2a50:	0e 94 1b 2a 	call	0x5436	; 0x5436 <dtostrf>
    2a54:	a3 01       	movw	r20, r6
    2a56:	67 e5       	ldi	r22, 0x57	; 87
    2a58:	71 e0       	ldi	r23, 0x01	; 1
    2a5a:	c4 01       	movw	r24, r8
    2a5c:	0e 94 64 13 	call	0x26c8	; 0x26c8 <str_replace>
    2a60:	a3 96       	adiw	r28, 0x23	; 35
    2a62:	6c ad       	ldd	r22, Y+60	; 0x3c
    2a64:	7d ad       	ldd	r23, Y+61	; 0x3d
    2a66:	8e ad       	ldd	r24, Y+62	; 0x3e
    2a68:	9f ad       	ldd	r25, Y+63	; 0x3f
    2a6a:	a3 97       	sbiw	r28, 0x23	; 35
    2a6c:	24 e0       	ldi	r18, 0x04	; 4
    2a6e:	40 e0       	ldi	r20, 0x00	; 0
    2a70:	0e 94 1b 2a 	call	0x5436	; 0x5436 <dtostrf>
    2a74:	a3 01       	movw	r20, r6
    2a76:	6a e5       	ldi	r22, 0x5A	; 90
    2a78:	71 e0       	ldi	r23, 0x01	; 1
    2a7a:	c4 01       	movw	r24, r8
    2a7c:	0e 94 64 13 	call	0x26c8	; 0x26c8 <str_replace>
    2a80:	a7 96       	adiw	r28, 0x27	; 39
    2a82:	6c ad       	ldd	r22, Y+60	; 0x3c
    2a84:	7d ad       	ldd	r23, Y+61	; 0x3d
    2a86:	8e ad       	ldd	r24, Y+62	; 0x3e
    2a88:	9f ad       	ldd	r25, Y+63	; 0x3f
    2a8a:	a7 97       	sbiw	r28, 0x27	; 39
    2a8c:	24 e0       	ldi	r18, 0x04	; 4
    2a8e:	40 e0       	ldi	r20, 0x00	; 0
    2a90:	0e 94 1b 2a 	call	0x5436	; 0x5436 <dtostrf>
    2a94:	a3 01       	movw	r20, r6
    2a96:	6d e5       	ldi	r22, 0x5D	; 93
    2a98:	71 e0       	ldi	r23, 0x01	; 1
    2a9a:	c4 01       	movw	r24, r8
    2a9c:	0e 94 64 13 	call	0x26c8	; 0x26c8 <str_replace>
    2aa0:	ab 96       	adiw	r28, 0x2b	; 43
    2aa2:	6c ad       	ldd	r22, Y+60	; 0x3c
    2aa4:	7d ad       	ldd	r23, Y+61	; 0x3d
    2aa6:	8e ad       	ldd	r24, Y+62	; 0x3e
    2aa8:	9f ad       	ldd	r25, Y+63	; 0x3f
    2aaa:	ab 97       	sbiw	r28, 0x2b	; 43
    2aac:	24 e0       	ldi	r18, 0x04	; 4
    2aae:	40 e0       	ldi	r20, 0x00	; 0
    2ab0:	0e 94 1b 2a 	call	0x5436	; 0x5436 <dtostrf>
    2ab4:	a3 01       	movw	r20, r6
    2ab6:	60 e6       	ldi	r22, 0x60	; 96
    2ab8:	71 e0       	ldi	r23, 0x01	; 1
    2aba:	c4 01       	movw	r24, r8
    2abc:	0e 94 64 13 	call	0x26c8	; 0x26c8 <str_replace>
    2ac0:	cd 57       	subi	r28, 0x7D	; 125
    2ac2:	df 4f       	sbci	r29, 0xFF	; 255
    2ac4:	19 82       	std	Y+1, r1	; 0x01
    2ac6:	18 82       	st	Y, r1
    2ac8:	c3 58       	subi	r28, 0x83	; 131
    2aca:	d0 40       	sbci	r29, 0x00	; 0
    2acc:	be 01       	movw	r22, r28
    2ace:	6d 57       	subi	r22, 0x7D	; 125
    2ad0:	7f 4f       	sbci	r23, 0xFF	; 255
    2ad2:	c4 01       	movw	r24, r8
    2ad4:	0e 94 1f 21 	call	0x423e	; 0x423e <te_interp>
    2ad8:	5b 01       	movw	r10, r22
    2ada:	6c 01       	movw	r12, r24
    2adc:	cb 57       	subi	r28, 0x7B	; 123
    2ade:	df 4f       	sbci	r29, 0xFF	; 255
    2ae0:	e8 81       	ld	r30, Y
    2ae2:	f9 81       	ldd	r31, Y+1	; 0x01
    2ae4:	c5 58       	subi	r28, 0x85	; 133
    2ae6:	d0 40       	sbci	r29, 0x00	; 0
    2ae8:	60 83       	st	Z, r22
    2aea:	71 83       	std	Z+1, r23	; 0x01
    2aec:	82 83       	std	Z+2, r24	; 0x02
    2aee:	93 83       	std	Z+3, r25	; 0x03
    2af0:	19 82       	std	Y+1, r1	; 0x01
    2af2:	48 e0       	ldi	r20, 0x08	; 8
    2af4:	50 e0       	ldi	r21, 0x00	; 0
    2af6:	c7 57       	subi	r28, 0x77	; 119
    2af8:	df 4f       	sbci	r29, 0xFF	; 255
    2afa:	68 81       	ld	r22, Y
    2afc:	79 81       	ldd	r23, Y+1	; 0x01
    2afe:	c9 58       	subi	r28, 0x89	; 137
    2b00:	d0 40       	sbci	r29, 0x00	; 0
    2b02:	c1 01       	movw	r24, r2
    2b04:	0e 94 de 32 	call	0x65bc	; 0x65bc <eeprom_read_block>
    2b08:	c5 57       	subi	r28, 0x75	; 117
    2b0a:	df 4f       	sbci	r29, 0xFF	; 255
    2b0c:	e8 82       	st	Y, r14
    2b0e:	cb 58       	subi	r28, 0x8B	; 139
    2b10:	d0 40       	sbci	r29, 0x00	; 0
    2b12:	c4 57       	subi	r28, 0x74	; 116
    2b14:	df 4f       	sbci	r29, 0xFF	; 255
    2b16:	f8 81       	ld	r31, Y
    2b18:	cc 58       	subi	r28, 0x8C	; 140
    2b1a:	d0 40       	sbci	r29, 0x00	; 0
    2b1c:	f2 30       	cpi	r31, 0x02	; 2
    2b1e:	10 f0       	brcs	.+4      	; 0x2b24 <main+0x338>
    2b20:	20 e0       	ldi	r18, 0x00	; 0
    2b22:	01 c0       	rjmp	.+2      	; 0x2b26 <main+0x33a>
    2b24:	23 e0       	ldi	r18, 0x03	; 3
    2b26:	83 01       	movw	r16, r6
    2b28:	40 e0       	ldi	r20, 0x00	; 0
    2b2a:	c6 01       	movw	r24, r12
    2b2c:	b5 01       	movw	r22, r10
    2b2e:	0e 94 1b 2a 	call	0x5436	; 0x5436 <dtostrf>
    2b32:	c5 57       	subi	r28, 0x75	; 117
    2b34:	df 4f       	sbci	r29, 0xFF	; 255
    2b36:	28 81       	ld	r18, Y
    2b38:	cb 58       	subi	r28, 0x8B	; 139
    2b3a:	d0 40       	sbci	r29, 0x00	; 0
    2b3c:	22 30       	cpi	r18, 0x02	; 2
    2b3e:	f0 f4       	brcc	.+60     	; 0x2b7c <main+0x390>
    2b40:	cd 57       	subi	r28, 0x7D	; 125
    2b42:	df 4f       	sbci	r29, 0xFF	; 255
    2b44:	88 81       	ld	r24, Y
    2b46:	99 81       	ldd	r25, Y+1	; 0x01
    2b48:	c3 58       	subi	r28, 0x83	; 131
    2b4a:	d0 40       	sbci	r29, 0x00	; 0
    2b4c:	89 2b       	or	r24, r25
    2b4e:	19 f0       	breq	.+6      	; 0x2b56 <main+0x36a>
    2b50:	88 e4       	ldi	r24, 0x48	; 72
    2b52:	91 e0       	ldi	r25, 0x01	; 1
    2b54:	01 c0       	rjmp	.+2      	; 0x2b58 <main+0x36c>
    2b56:	c3 01       	movw	r24, r6
    2b58:	9f 93       	push	r25
    2b5a:	8f 93       	push	r24
    2b5c:	3f 92       	push	r3
    2b5e:	2f 92       	push	r2
    2b60:	87 e5       	ldi	r24, 0x57	; 87
    2b62:	96 e0       	ldi	r25, 0x06	; 6
    2b64:	9f 93       	push	r25
    2b66:	8f 93       	push	r24
    2b68:	9f 92       	push	r9
    2b6a:	8f 92       	push	r8
    2b6c:	0e 94 e6 2d 	call	0x5bcc	; 0x5bcc <sprintf_P>
    2b70:	0f b6       	in	r0, 0x3f	; 63
    2b72:	f8 94       	cli
    2b74:	de bf       	out	0x3e, r29	; 62
    2b76:	0f be       	out	0x3f, r0	; 63
    2b78:	cd bf       	out	0x3d, r28	; 61
    2b7a:	37 c0       	rjmp	.+110    	; 0x2bea <main+0x3fe>
    2b7c:	20 e0       	ldi	r18, 0x00	; 0
    2b7e:	30 e0       	ldi	r19, 0x00	; 0
    2b80:	40 e8       	ldi	r20, 0x80	; 128
    2b82:	5f e3       	ldi	r21, 0x3F	; 63
    2b84:	c6 01       	movw	r24, r12
    2b86:	b5 01       	movw	r22, r10
    2b88:	0e 94 e2 27 	call	0x4fc4	; 0x4fc4 <__gesf2>
    2b8c:	87 ff       	sbrs	r24, 7
    2b8e:	03 c0       	rjmp	.+6      	; 0x2b96 <main+0x3aa>
    2b90:	8f e4       	ldi	r24, 0x4F	; 79
    2b92:	91 e0       	ldi	r25, 0x01	; 1
    2b94:	02 c0       	rjmp	.+4      	; 0x2b9a <main+0x3ae>
    2b96:	8c e4       	ldi	r24, 0x4C	; 76
    2b98:	91 e0       	ldi	r25, 0x01	; 1
    2b9a:	9f 93       	push	r25
    2b9c:	8f 93       	push	r24
    2b9e:	3f 92       	push	r3
    2ba0:	2f 92       	push	r2
    2ba2:	e0 e5       	ldi	r30, 0x50	; 80
    2ba4:	f6 e0       	ldi	r31, 0x06	; 6
    2ba6:	ff 93       	push	r31
    2ba8:	ef 93       	push	r30
    2baa:	9f 92       	push	r9
    2bac:	8f 92       	push	r8
    2bae:	0e 94 e6 2d 	call	0x5bcc	; 0x5bcc <sprintf_P>
    2bb2:	0f b6       	in	r0, 0x3f	; 63
    2bb4:	f8 94       	cli
    2bb6:	de bf       	out	0x3e, r29	; 62
    2bb8:	0f be       	out	0x3f, r0	; 63
    2bba:	cd bf       	out	0x3d, r28	; 61
    2bbc:	c5 57       	subi	r28, 0x75	; 117
    2bbe:	df 4f       	sbci	r29, 0xFF	; 255
    2bc0:	98 81       	ld	r25, Y
    2bc2:	cb 58       	subi	r28, 0x8B	; 139
    2bc4:	d0 40       	sbci	r29, 0x00	; 0
    2bc6:	92 30       	cpi	r25, 0x02	; 2
    2bc8:	81 f4       	brne	.+32     	; 0x2bea <main+0x3fe>
    2bca:	26 e6       	ldi	r18, 0x66	; 102
    2bcc:	36 e6       	ldi	r19, 0x66	; 102
    2bce:	46 e6       	ldi	r20, 0x66	; 102
    2bd0:	5f e3       	ldi	r21, 0x3F	; 63
    2bd2:	c6 01       	movw	r24, r12
    2bd4:	b5 01       	movw	r22, r10
    2bd6:	0e 94 e2 27 	call	0x4fc4	; 0x4fc4 <__gesf2>
    2bda:	18 16       	cp	r1, r24
    2bdc:	1c f4       	brge	.+6      	; 0x2be4 <main+0x3f8>
    2bde:	88 b1       	in	r24, 0x08	; 8
    2be0:	80 61       	ori	r24, 0x10	; 16
    2be2:	19 c0       	rjmp	.+50     	; 0x2c16 <main+0x42a>
    2be4:	88 b1       	in	r24, 0x08	; 8
    2be6:	8f 7e       	andi	r24, 0xEF	; 239
    2be8:	16 c0       	rjmp	.+44     	; 0x2c16 <main+0x42a>
    2bea:	c5 57       	subi	r28, 0x75	; 117
    2bec:	df 4f       	sbci	r29, 0xFF	; 255
    2bee:	e8 81       	ld	r30, Y
    2bf0:	cb 58       	subi	r28, 0x8B	; 139
    2bf2:	d0 40       	sbci	r29, 0x00	; 0
    2bf4:	e3 30       	cpi	r30, 0x03	; 3
    2bf6:	81 f4       	brne	.+32     	; 0x2c18 <main+0x42c>
    2bf8:	26 e6       	ldi	r18, 0x66	; 102
    2bfa:	36 e6       	ldi	r19, 0x66	; 102
    2bfc:	46 e6       	ldi	r20, 0x66	; 102
    2bfe:	5f e3       	ldi	r21, 0x3F	; 63
    2c00:	c6 01       	movw	r24, r12
    2c02:	b5 01       	movw	r22, r10
    2c04:	0e 94 e2 27 	call	0x4fc4	; 0x4fc4 <__gesf2>
    2c08:	18 16       	cp	r1, r24
    2c0a:	1c f4       	brge	.+6      	; 0x2c12 <main+0x426>
    2c0c:	88 b1       	in	r24, 0x08	; 8
    2c0e:	80 62       	ori	r24, 0x20	; 32
    2c10:	02 c0       	rjmp	.+4      	; 0x2c16 <main+0x42a>
    2c12:	88 b1       	in	r24, 0x08	; 8
    2c14:	8f 7d       	andi	r24, 0xDF	; 223
    2c16:	88 b9       	out	0x08, r24	; 8
    2c18:	a4 01       	movw	r20, r8
    2c1a:	c4 57       	subi	r28, 0x74	; 116
    2c1c:	df 4f       	sbci	r29, 0xFF	; 255
    2c1e:	68 81       	ld	r22, Y
    2c20:	cc 58       	subi	r28, 0x8C	; 140
    2c22:	d0 40       	sbci	r29, 0x00	; 0
    2c24:	c3 57       	subi	r28, 0x73	; 115
    2c26:	df 4f       	sbci	r29, 0xFF	; 255
    2c28:	78 81       	ld	r23, Y
    2c2a:	cd 58       	subi	r28, 0x8D	; 141
    2c2c:	d0 40       	sbci	r29, 0x00	; 0
    2c2e:	80 e0       	ldi	r24, 0x00	; 0
    2c30:	90 e0       	ldi	r25, 0x00	; 0
    2c32:	0e 94 73 0c 	call	0x18e6	; 0x18e6 <LCD_DrawText>
    2c36:	80 91 a2 01 	lds	r24, 0x01A2	; 0x8001a2 <BrokerFlags>
    2c3a:	81 ff       	sbrs	r24, 1
    2c3c:	14 c0       	rjmp	.+40     	; 0x2c66 <main+0x47a>
    2c3e:	7f 92       	push	r7
    2c40:	6f 92       	push	r6
    2c42:	3f 92       	push	r3
    2c44:	2f 92       	push	r2
    2c46:	84 e4       	ldi	r24, 0x44	; 68
    2c48:	96 e0       	ldi	r25, 0x06	; 6
    2c4a:	9f 93       	push	r25
    2c4c:	8f 93       	push	r24
    2c4e:	9f 92       	push	r9
    2c50:	8f 92       	push	r8
    2c52:	0e 94 e6 2d 	call	0x5bcc	; 0x5bcc <sprintf_P>
    2c56:	c4 01       	movw	r24, r8
    2c58:	0e 94 77 24 	call	0x48ee	; 0x48ee <WLAN_TcpSend>
    2c5c:	0f b6       	in	r0, 0x3f	; 63
    2c5e:	f8 94       	cli
    2c60:	de bf       	out	0x3e, r29	; 62
    2c62:	0f be       	out	0x3f, r0	; 63
    2c64:	cd bf       	out	0x3d, r28	; 61
    2c66:	9f ef       	ldi	r25, 0xFF	; 255
    2c68:	e9 1a       	sub	r14, r25
    2c6a:	f9 0a       	sbc	r15, r25
    2c6c:	c9 57       	subi	r28, 0x79	; 121
    2c6e:	df 4f       	sbci	r29, 0xFF	; 255
    2c70:	e8 81       	ld	r30, Y
    2c72:	f9 81       	ldd	r31, Y+1	; 0x01
    2c74:	c7 58       	subi	r28, 0x87	; 135
    2c76:	d0 40       	sbci	r29, 0x00	; 0
    2c78:	e0 5c       	subi	r30, 0xC0	; 192
    2c7a:	ff 4f       	sbci	r31, 0xFF	; 255
    2c7c:	c9 57       	subi	r28, 0x79	; 121
    2c7e:	df 4f       	sbci	r29, 0xFF	; 255
    2c80:	f9 83       	std	Y+1, r31	; 0x01
    2c82:	e8 83       	st	Y, r30
    2c84:	c7 58       	subi	r28, 0x87	; 135
    2c86:	d0 40       	sbci	r29, 0x00	; 0
    2c88:	cb 57       	subi	r28, 0x7B	; 123
    2c8a:	df 4f       	sbci	r29, 0xFF	; 255
    2c8c:	88 81       	ld	r24, Y
    2c8e:	99 81       	ldd	r25, Y+1	; 0x01
    2c90:	c5 58       	subi	r28, 0x85	; 133
    2c92:	d0 40       	sbci	r29, 0x00	; 0
    2c94:	04 96       	adiw	r24, 0x04	; 4
    2c96:	cb 57       	subi	r28, 0x7B	; 123
    2c98:	df 4f       	sbci	r29, 0xFF	; 255
    2c9a:	99 83       	std	Y+1, r25	; 0x01
    2c9c:	88 83       	st	Y, r24
    2c9e:	c5 58       	subi	r28, 0x85	; 133
    2ca0:	d0 40       	sbci	r29, 0x00	; 0
    2ca2:	c7 57       	subi	r28, 0x77	; 119
    2ca4:	df 4f       	sbci	r29, 0xFF	; 255
    2ca6:	e8 81       	ld	r30, Y
    2ca8:	f9 81       	ldd	r31, Y+1	; 0x01
    2caa:	c9 58       	subi	r28, 0x89	; 137
    2cac:	d0 40       	sbci	r29, 0x00	; 0
    2cae:	38 96       	adiw	r30, 0x08	; 8
    2cb0:	c7 57       	subi	r28, 0x77	; 119
    2cb2:	df 4f       	sbci	r29, 0xFF	; 255
    2cb4:	f9 83       	std	Y+1, r31	; 0x01
    2cb6:	e8 83       	st	Y, r30
    2cb8:	c9 58       	subi	r28, 0x89	; 137
    2cba:	d0 40       	sbci	r29, 0x00	; 0
    2cbc:	f4 e0       	ldi	r31, 0x04	; 4
    2cbe:	ef 16       	cp	r14, r31
    2cc0:	f1 04       	cpc	r15, r1
    2cc2:	09 f0       	breq	.+2      	; 0x2cc6 <main+0x4da>
    2cc4:	93 ce       	rjmp	.-730    	; 0x29ec <main+0x200>
    2cc6:	40 e4       	ldi	r20, 0x40	; 64
    2cc8:	56 e0       	ldi	r21, 0x06	; 6
    2cca:	64 e0       	ldi	r22, 0x04	; 4
    2ccc:	70 e0       	ldi	r23, 0x00	; 0
    2cce:	80 e0       	ldi	r24, 0x00	; 0
    2cd0:	90 e0       	ldi	r25, 0x00	; 0
    2cd2:	0e 94 a9 0c 	call	0x1952	; 0x1952 <LCD_DrawText_P>
    2cd6:	0e 94 ce 22 	call	0x459c	; 0x459c <WLAN_GetState>
    2cda:	81 fd       	sbrc	r24, 1
    2cdc:	03 c0       	rjmp	.+6      	; 0x2ce4 <main+0x4f8>
    2cde:	4b e3       	ldi	r20, 0x3B	; 59
    2ce0:	56 e0       	ldi	r21, 0x06	; 6
    2ce2:	02 c0       	rjmp	.+4      	; 0x2ce8 <main+0x4fc>
    2ce4:	4d e3       	ldi	r20, 0x3D	; 61
    2ce6:	56 e0       	ldi	r21, 0x06	; 6
    2ce8:	64 e0       	ldi	r22, 0x04	; 4
    2cea:	70 e0       	ldi	r23, 0x00	; 0
    2cec:	82 e1       	ldi	r24, 0x12	; 18
    2cee:	90 e0       	ldi	r25, 0x00	; 0
    2cf0:	0e 94 a9 0c 	call	0x1952	; 0x1952 <LCD_DrawText_P>
    2cf4:	47 e3       	ldi	r20, 0x37	; 55
    2cf6:	56 e0       	ldi	r21, 0x06	; 6
    2cf8:	64 e0       	ldi	r22, 0x04	; 4
    2cfa:	70 e0       	ldi	r23, 0x00	; 0
    2cfc:	88 e2       	ldi	r24, 0x28	; 40
    2cfe:	90 e0       	ldi	r25, 0x00	; 0
    2d00:	0e 94 a9 0c 	call	0x1952	; 0x1952 <LCD_DrawText_P>
    2d04:	0e 94 ce 22 	call	0x459c	; 0x459c <WLAN_GetState>
    2d08:	82 fd       	sbrc	r24, 2
    2d0a:	03 c0       	rjmp	.+6      	; 0x2d12 <main+0x526>
    2d0c:	42 e3       	ldi	r20, 0x32	; 50
    2d0e:	56 e0       	ldi	r21, 0x06	; 6
    2d10:	02 c0       	rjmp	.+4      	; 0x2d16 <main+0x52a>
    2d12:	44 e3       	ldi	r20, 0x34	; 52
    2d14:	56 e0       	ldi	r21, 0x06	; 6
    2d16:	64 e0       	ldi	r22, 0x04	; 4
    2d18:	70 e0       	ldi	r23, 0x00	; 0
    2d1a:	8a e3       	ldi	r24, 0x3A	; 58
    2d1c:	90 e0       	ldi	r25, 0x00	; 0
    2d1e:	0e 94 a9 0c 	call	0x1952	; 0x1952 <LCD_DrawText_P>
    2d22:	80 91 a2 01 	lds	r24, 0x01A2	; 0x8001a2 <BrokerFlags>
    2d26:	8d 7f       	andi	r24, 0xFD	; 253
    2d28:	80 93 a2 01 	sts	0x01A2, r24	; 0x8001a2 <BrokerFlags>
    2d2c:	0e 94 8f 0e 	call	0x1d1e	; 0x1d1e <LCD_Render>
    2d30:	0e 94 d1 07 	call	0xfa2	; 0xfa2 <Button_OK_Pressed>
    2d34:	88 23       	and	r24, r24
    2d36:	f9 f0       	breq	.+62     	; 0x2d76 <main+0x58a>
    2d38:	0e 94 3b 0c 	call	0x1876	; 0x1876 <LCD_Clear>
    2d3c:	43 e2       	ldi	r20, 0x23	; 35
    2d3e:	56 e0       	ldi	r21, 0x06	; 6
    2d40:	62 e0       	ldi	r22, 0x02	; 2
    2d42:	70 e0       	ldi	r23, 0x00	; 0
    2d44:	80 e0       	ldi	r24, 0x00	; 0
    2d46:	90 e0       	ldi	r25, 0x00	; 0
    2d48:	0e 94 a9 0c 	call	0x1952	; 0x1952 <LCD_DrawText_P>
    2d4c:	0e 94 8f 0e 	call	0x1d1e	; 0x1d1e <LCD_Render>
    2d50:	0e 94 ce 22 	call	0x459c	; 0x459c <WLAN_GetState>
    2d54:	81 ff       	sbrs	r24, 1
    2d56:	04 c0       	rjmp	.+8      	; 0x2d60 <main+0x574>
    2d58:	0e 94 32 25 	call	0x4a64	; 0x4a64 <WLAN_TcpDisconnect>
    2d5c:	0e 94 de 24 	call	0x49bc	; 0x49bc <WLAN_Disconnect>
    2d60:	88 ed       	ldi	r24, 0xD8	; 216
    2d62:	97 e0       	ldi	r25, 0x07	; 7
    2d64:	0e 94 05 0a 	call	0x140a	; 0x140a <Interface_Menu_P>
    2d68:	80 e0       	ldi	r24, 0x00	; 0
    2d6a:	90 e0       	ldi	r25, 0x00	; 0
    2d6c:	0e 94 ee 32 	call	0x65dc	; 0x65dc <eeprom_read_byte>
    2d70:	84 fd       	sbrc	r24, 4
    2d72:	0e 94 80 12 	call	0x2500	; 0x2500 <Broker_Connect>
    2d76:	2f ef       	ldi	r18, 0xFF	; 255
    2d78:	83 ec       	ldi	r24, 0xC3	; 195
    2d7a:	99 e0       	ldi	r25, 0x09	; 9
    2d7c:	21 50       	subi	r18, 0x01	; 1
    2d7e:	80 40       	sbci	r24, 0x00	; 0
    2d80:	90 40       	sbci	r25, 0x00	; 0
    2d82:	e1 f7       	brne	.-8      	; 0x2d7c <main+0x590>
    2d84:	00 c0       	rjmp	.+0      	; 0x2d86 <main+0x59a>
    2d86:	00 00       	nop
    2d88:	80 cd       	rjmp	.-1280   	; 0x288a <main+0x9e>

00002d8a <not>:
    2d8a:	20 e0       	ldi	r18, 0x00	; 0
    2d8c:	30 e0       	ldi	r19, 0x00	; 0
    2d8e:	a9 01       	movw	r20, r18
    2d90:	0e 94 57 26 	call	0x4cae	; 0x4cae <__cmpsf2>
    2d94:	88 23       	and	r24, r24
    2d96:	21 f0       	breq	.+8      	; 0x2da0 <not+0x16>
    2d98:	60 e0       	ldi	r22, 0x00	; 0
    2d9a:	70 e0       	ldi	r23, 0x00	; 0
    2d9c:	cb 01       	movw	r24, r22
    2d9e:	08 95       	ret
    2da0:	60 e0       	ldi	r22, 0x00	; 0
    2da2:	70 e0       	ldi	r23, 0x00	; 0
    2da4:	80 e8       	ldi	r24, 0x80	; 128
    2da6:	9f e3       	ldi	r25, 0x3F	; 63
    2da8:	08 95       	ret

00002daa <add>:
    2daa:	0e 94 eb 25 	call	0x4bd6	; 0x4bd6 <__addsf3>
    2dae:	08 95       	ret

00002db0 <sub>:
    2db0:	0e 94 ea 25 	call	0x4bd4	; 0x4bd4 <__subsf3>
    2db4:	08 95       	ret

00002db6 <mul>:
    2db6:	0e 94 37 28 	call	0x506e	; 0x506e <__mulsf3>
    2dba:	08 95       	ret

00002dbc <divide>:
    2dbc:	0e 94 5c 26 	call	0x4cb8	; 0x4cb8 <__divsf3>
    2dc0:	08 95       	ret

00002dc2 <gt>:
    2dc2:	0e 94 e2 27 	call	0x4fc4	; 0x4fc4 <__gesf2>
    2dc6:	18 16       	cp	r1, r24
    2dc8:	24 f0       	brlt	.+8      	; 0x2dd2 <gt+0x10>
    2dca:	60 e0       	ldi	r22, 0x00	; 0
    2dcc:	70 e0       	ldi	r23, 0x00	; 0
    2dce:	cb 01       	movw	r24, r22
    2dd0:	08 95       	ret
    2dd2:	60 e0       	ldi	r22, 0x00	; 0
    2dd4:	70 e0       	ldi	r23, 0x00	; 0
    2dd6:	80 e8       	ldi	r24, 0x80	; 128
    2dd8:	9f e3       	ldi	r25, 0x3F	; 63
    2dda:	08 95       	ret

00002ddc <lt>:
    2ddc:	0e 94 57 26 	call	0x4cae	; 0x4cae <__cmpsf2>
    2de0:	87 fd       	sbrc	r24, 7
    2de2:	04 c0       	rjmp	.+8      	; 0x2dec <lt+0x10>
    2de4:	60 e0       	ldi	r22, 0x00	; 0
    2de6:	70 e0       	ldi	r23, 0x00	; 0
    2de8:	cb 01       	movw	r24, r22
    2dea:	08 95       	ret
    2dec:	60 e0       	ldi	r22, 0x00	; 0
    2dee:	70 e0       	ldi	r23, 0x00	; 0
    2df0:	80 e8       	ldi	r24, 0x80	; 128
    2df2:	9f e3       	ldi	r25, 0x3F	; 63
    2df4:	08 95       	ret

00002df6 <eq>:
    2df6:	0e 94 57 26 	call	0x4cae	; 0x4cae <__cmpsf2>
    2dfa:	88 23       	and	r24, r24
    2dfc:	21 f0       	breq	.+8      	; 0x2e06 <eq+0x10>
    2dfe:	60 e0       	ldi	r22, 0x00	; 0
    2e00:	70 e0       	ldi	r23, 0x00	; 0
    2e02:	cb 01       	movw	r24, r22
    2e04:	08 95       	ret
    2e06:	60 e0       	ldi	r22, 0x00	; 0
    2e08:	70 e0       	ldi	r23, 0x00	; 0
    2e0a:	80 e8       	ldi	r24, 0x80	; 128
    2e0c:	9f e3       	ldi	r25, 0x3F	; 63
    2e0e:	08 95       	ret

00002e10 <and>:
    2e10:	cf 92       	push	r12
    2e12:	df 92       	push	r13
    2e14:	ef 92       	push	r14
    2e16:	ff 92       	push	r15
    2e18:	cf 93       	push	r28
    2e1a:	df 93       	push	r29
    2e1c:	69 01       	movw	r12, r18
    2e1e:	7a 01       	movw	r14, r20
    2e20:	20 e0       	ldi	r18, 0x00	; 0
    2e22:	30 e0       	ldi	r19, 0x00	; 0
    2e24:	a9 01       	movw	r20, r18
    2e26:	0e 94 57 26 	call	0x4cae	; 0x4cae <__cmpsf2>
    2e2a:	88 23       	and	r24, r24
    2e2c:	79 f0       	breq	.+30     	; 0x2e4c <and+0x3c>
    2e2e:	d1 e0       	ldi	r29, 0x01	; 1
    2e30:	c0 e0       	ldi	r28, 0x00	; 0
    2e32:	20 e0       	ldi	r18, 0x00	; 0
    2e34:	30 e0       	ldi	r19, 0x00	; 0
    2e36:	a9 01       	movw	r20, r18
    2e38:	c7 01       	movw	r24, r14
    2e3a:	b6 01       	movw	r22, r12
    2e3c:	0e 94 57 26 	call	0x4cae	; 0x4cae <__cmpsf2>
    2e40:	81 11       	cpse	r24, r1
    2e42:	01 c0       	rjmp	.+2      	; 0x2e46 <and+0x36>
    2e44:	d0 e0       	ldi	r29, 0x00	; 0
    2e46:	6d 2f       	mov	r22, r29
    2e48:	7c 2f       	mov	r23, r28
    2e4a:	02 c0       	rjmp	.+4      	; 0x2e50 <and+0x40>
    2e4c:	60 e0       	ldi	r22, 0x00	; 0
    2e4e:	70 e0       	ldi	r23, 0x00	; 0
    2e50:	07 2e       	mov	r0, r23
    2e52:	00 0c       	add	r0, r0
    2e54:	88 0b       	sbc	r24, r24
    2e56:	99 0b       	sbc	r25, r25
    2e58:	0e 94 d0 26 	call	0x4da0	; 0x4da0 <__floatsisf>
    2e5c:	df 91       	pop	r29
    2e5e:	cf 91       	pop	r28
    2e60:	ff 90       	pop	r15
    2e62:	ef 90       	pop	r14
    2e64:	df 90       	pop	r13
    2e66:	cf 90       	pop	r12
    2e68:	08 95       	ret

00002e6a <or>:
    2e6a:	cf 92       	push	r12
    2e6c:	df 92       	push	r13
    2e6e:	ef 92       	push	r14
    2e70:	ff 92       	push	r15
    2e72:	cf 93       	push	r28
    2e74:	df 93       	push	r29
    2e76:	69 01       	movw	r12, r18
    2e78:	7a 01       	movw	r14, r20
    2e7a:	20 e0       	ldi	r18, 0x00	; 0
    2e7c:	30 e0       	ldi	r19, 0x00	; 0
    2e7e:	a9 01       	movw	r20, r18
    2e80:	0e 94 57 26 	call	0x4cae	; 0x4cae <__cmpsf2>
    2e84:	81 11       	cpse	r24, r1
    2e86:	0f c0       	rjmp	.+30     	; 0x2ea6 <or+0x3c>
    2e88:	d1 e0       	ldi	r29, 0x01	; 1
    2e8a:	c0 e0       	ldi	r28, 0x00	; 0
    2e8c:	20 e0       	ldi	r18, 0x00	; 0
    2e8e:	30 e0       	ldi	r19, 0x00	; 0
    2e90:	a9 01       	movw	r20, r18
    2e92:	c7 01       	movw	r24, r14
    2e94:	b6 01       	movw	r22, r12
    2e96:	0e 94 57 26 	call	0x4cae	; 0x4cae <__cmpsf2>
    2e9a:	81 11       	cpse	r24, r1
    2e9c:	01 c0       	rjmp	.+2      	; 0x2ea0 <or+0x36>
    2e9e:	d0 e0       	ldi	r29, 0x00	; 0
    2ea0:	6d 2f       	mov	r22, r29
    2ea2:	7c 2f       	mov	r23, r28
    2ea4:	02 c0       	rjmp	.+4      	; 0x2eaa <or+0x40>
    2ea6:	61 e0       	ldi	r22, 0x01	; 1
    2ea8:	70 e0       	ldi	r23, 0x00	; 0
    2eaa:	07 2e       	mov	r0, r23
    2eac:	00 0c       	add	r0, r0
    2eae:	88 0b       	sbc	r24, r24
    2eb0:	99 0b       	sbc	r25, r25
    2eb2:	0e 94 d0 26 	call	0x4da0	; 0x4da0 <__floatsisf>
    2eb6:	df 91       	pop	r29
    2eb8:	cf 91       	pop	r28
    2eba:	ff 90       	pop	r15
    2ebc:	ef 90       	pop	r14
    2ebe:	df 90       	pop	r13
    2ec0:	cf 90       	pop	r12
    2ec2:	08 95       	ret

00002ec4 <negate>:
    2ec4:	90 58       	subi	r25, 0x80	; 128
    2ec6:	08 95       	ret

00002ec8 <comma>:
    2ec8:	ca 01       	movw	r24, r20
    2eca:	b9 01       	movw	r22, r18
    2ecc:	08 95       	ret

00002ece <new_expr>:
    2ece:	8f 92       	push	r8
    2ed0:	9f 92       	push	r9
    2ed2:	af 92       	push	r10
    2ed4:	bf 92       	push	r11
    2ed6:	cf 92       	push	r12
    2ed8:	df 92       	push	r13
    2eda:	ef 92       	push	r14
    2edc:	ff 92       	push	r15
    2ede:	0f 93       	push	r16
    2ee0:	1f 93       	push	r17
    2ee2:	cf 93       	push	r28
    2ee4:	df 93       	push	r29
    2ee6:	7c 01       	movw	r14, r24
    2ee8:	5b 01       	movw	r10, r22
    2eea:	6c 01       	movw	r12, r24
    2eec:	88 e1       	ldi	r24, 0x18	; 24
    2eee:	c8 22       	and	r12, r24
    2ef0:	dd 24       	eor	r13, r13
    2ef2:	c1 14       	cp	r12, r1
    2ef4:	d1 04       	cpc	r13, r1
    2ef6:	21 f0       	breq	.+8      	; 0x2f00 <new_expr+0x32>
    2ef8:	67 01       	movw	r12, r14
    2efa:	87 e0       	ldi	r24, 0x07	; 7
    2efc:	c8 22       	and	r12, r24
    2efe:	dd 24       	eor	r13, r13
    2f00:	46 01       	movw	r8, r12
    2f02:	88 0c       	add	r8, r8
    2f04:	99 1c       	adc	r9, r9
    2f06:	e4 fc       	sbrc	r14, 4
    2f08:	03 c0       	rjmp	.+6      	; 0x2f10 <new_expr+0x42>
    2f0a:	80 e0       	ldi	r24, 0x00	; 0
    2f0c:	90 e0       	ldi	r25, 0x00	; 0
    2f0e:	02 c0       	rjmp	.+4      	; 0x2f14 <new_expr+0x46>
    2f10:	82 e0       	ldi	r24, 0x02	; 2
    2f12:	90 e0       	ldi	r25, 0x00	; 0
    2f14:	84 01       	movw	r16, r8
    2f16:	0a 5f       	subi	r16, 0xFA	; 250
    2f18:	1f 4f       	sbci	r17, 0xFF	; 255
    2f1a:	08 0f       	add	r16, r24
    2f1c:	19 1f       	adc	r17, r25
    2f1e:	c8 01       	movw	r24, r16
    2f20:	0e 94 3b 2a 	call	0x5476	; 0x5476 <malloc>
    2f24:	ec 01       	movw	r28, r24
    2f26:	a8 01       	movw	r20, r16
    2f28:	60 e0       	ldi	r22, 0x00	; 0
    2f2a:	70 e0       	ldi	r23, 0x00	; 0
    2f2c:	0e 94 5c 2d 	call	0x5ab8	; 0x5ab8 <memset>
    2f30:	cd 28       	or	r12, r13
    2f32:	49 f0       	breq	.+18     	; 0x2f46 <new_expr+0x78>
    2f34:	a1 14       	cp	r10, r1
    2f36:	b1 04       	cpc	r11, r1
    2f38:	31 f0       	breq	.+12     	; 0x2f46 <new_expr+0x78>
    2f3a:	a4 01       	movw	r20, r8
    2f3c:	b5 01       	movw	r22, r10
    2f3e:	ce 01       	movw	r24, r28
    2f40:	06 96       	adiw	r24, 0x06	; 6
    2f42:	0e 94 41 2d 	call	0x5a82	; 0x5a82 <memcpy>
    2f46:	f9 82       	std	Y+1, r15	; 0x01
    2f48:	e8 82       	st	Y, r14
    2f4a:	1b 82       	std	Y+3, r1	; 0x03
    2f4c:	1a 82       	std	Y+2, r1	; 0x02
    2f4e:	ce 01       	movw	r24, r28
    2f50:	df 91       	pop	r29
    2f52:	cf 91       	pop	r28
    2f54:	1f 91       	pop	r17
    2f56:	0f 91       	pop	r16
    2f58:	ff 90       	pop	r15
    2f5a:	ef 90       	pop	r14
    2f5c:	df 90       	pop	r13
    2f5e:	cf 90       	pop	r12
    2f60:	bf 90       	pop	r11
    2f62:	af 90       	pop	r10
    2f64:	9f 90       	pop	r9
    2f66:	8f 90       	pop	r8
    2f68:	08 95       	ret

00002f6a <te_free>:
    2f6a:	cf 93       	push	r28
    2f6c:	df 93       	push	r29
    2f6e:	00 97       	sbiw	r24, 0x00	; 0
    2f70:	41 f0       	breq	.+16     	; 0x2f82 <te_free+0x18>
    2f72:	ec 01       	movw	r28, r24
    2f74:	0e 94 c4 17 	call	0x2f88	; 0x2f88 <te_free_parameters>
    2f78:	ce 01       	movw	r24, r28
    2f7a:	df 91       	pop	r29
    2f7c:	cf 91       	pop	r28
    2f7e:	0c 94 d3 2a 	jmp	0x55a6	; 0x55a6 <free>
    2f82:	df 91       	pop	r29
    2f84:	cf 91       	pop	r28
    2f86:	08 95       	ret

00002f88 <te_free_parameters>:
    2f88:	cf 93       	push	r28
    2f8a:	df 93       	push	r29
    2f8c:	00 97       	sbiw	r24, 0x00	; 0
    2f8e:	61 f1       	breq	.+88     	; 0x2fe8 <te_free_parameters+0x60>
    2f90:	dc 01       	movw	r26, r24
    2f92:	ed 91       	ld	r30, X+
    2f94:	fc 91       	ld	r31, X
    2f96:	ef 71       	andi	r30, 0x1F	; 31
    2f98:	ff 27       	eor	r31, r31
    2f9a:	39 97       	sbiw	r30, 0x09	; 9
    2f9c:	ef 30       	cpi	r30, 0x0F	; 15
    2f9e:	f1 05       	cpc	r31, r1
    2fa0:	18 f5       	brcc	.+70     	; 0x2fe8 <te_free_parameters+0x60>
    2fa2:	ec 01       	movw	r28, r24
    2fa4:	ec 5c       	subi	r30, 0xCC	; 204
    2fa6:	ff 4f       	sbci	r31, 0xFF	; 255
    2fa8:	0c 94 01 2a 	jmp	0x5402	; 0x5402 <__tablejump2__>
    2fac:	8a 89       	ldd	r24, Y+18	; 0x12
    2fae:	9b 89       	ldd	r25, Y+19	; 0x13
    2fb0:	0e 94 b5 17 	call	0x2f6a	; 0x2f6a <te_free>
    2fb4:	88 89       	ldd	r24, Y+16	; 0x10
    2fb6:	99 89       	ldd	r25, Y+17	; 0x11
    2fb8:	0e 94 b5 17 	call	0x2f6a	; 0x2f6a <te_free>
    2fbc:	8e 85       	ldd	r24, Y+14	; 0x0e
    2fbe:	9f 85       	ldd	r25, Y+15	; 0x0f
    2fc0:	0e 94 b5 17 	call	0x2f6a	; 0x2f6a <te_free>
    2fc4:	8c 85       	ldd	r24, Y+12	; 0x0c
    2fc6:	9d 85       	ldd	r25, Y+13	; 0x0d
    2fc8:	0e 94 b5 17 	call	0x2f6a	; 0x2f6a <te_free>
    2fcc:	8a 85       	ldd	r24, Y+10	; 0x0a
    2fce:	9b 85       	ldd	r25, Y+11	; 0x0b
    2fd0:	0e 94 b5 17 	call	0x2f6a	; 0x2f6a <te_free>
    2fd4:	88 85       	ldd	r24, Y+8	; 0x08
    2fd6:	99 85       	ldd	r25, Y+9	; 0x09
    2fd8:	0e 94 b5 17 	call	0x2f6a	; 0x2f6a <te_free>
    2fdc:	8e 81       	ldd	r24, Y+6	; 0x06
    2fde:	9f 81       	ldd	r25, Y+7	; 0x07
    2fe0:	df 91       	pop	r29
    2fe2:	cf 91       	pop	r28
    2fe4:	0c 94 b5 17 	jmp	0x2f6a	; 0x2f6a <te_free>
    2fe8:	df 91       	pop	r29
    2fea:	cf 91       	pop	r28
    2fec:	08 95       	ret

00002fee <next_token>:
    2fee:	2f 92       	push	r2
    2ff0:	3f 92       	push	r3
    2ff2:	4f 92       	push	r4
    2ff4:	5f 92       	push	r5
    2ff6:	6f 92       	push	r6
    2ff8:	7f 92       	push	r7
    2ffa:	8f 92       	push	r8
    2ffc:	9f 92       	push	r9
    2ffe:	af 92       	push	r10
    3000:	bf 92       	push	r11
    3002:	cf 92       	push	r12
    3004:	df 92       	push	r13
    3006:	ef 92       	push	r14
    3008:	ff 92       	push	r15
    300a:	0f 93       	push	r16
    300c:	1f 93       	push	r17
    300e:	cf 93       	push	r28
    3010:	df 93       	push	r29
    3012:	00 d0       	rcall	.+0      	; 0x3014 <next_token+0x26>
    3014:	00 d0       	rcall	.+0      	; 0x3016 <next_token+0x28>
    3016:	cd b7       	in	r28, 0x3d	; 61
    3018:	de b7       	in	r29, 0x3e	; 62
    301a:	9c 83       	std	Y+4, r25	; 0x04
    301c:	8b 83       	std	Y+3, r24	; 0x03
    301e:	88 e1       	ldi	r24, 0x18	; 24
    3020:	90 e0       	ldi	r25, 0x00	; 0
    3022:	ab 81       	ldd	r26, Y+3	; 0x03
    3024:	bc 81       	ldd	r27, Y+4	; 0x04
    3026:	15 96       	adiw	r26, 0x05	; 5
    3028:	9c 93       	st	X, r25
    302a:	8e 93       	st	-X, r24
    302c:	14 97       	sbiw	r26, 0x04	; 4
    302e:	12 96       	adiw	r26, 0x02	; 2
    3030:	ba 83       	std	Y+2, r27	; 0x02
    3032:	a9 83       	std	Y+1, r26	; 0x01
    3034:	29 e1       	ldi	r18, 0x19	; 25
    3036:	22 2e       	mov	r2, r18
    3038:	31 2c       	mov	r3, r1
    303a:	30 e2       	ldi	r19, 0x20	; 32
    303c:	e3 2e       	mov	r14, r19
    303e:	f1 2c       	mov	r15, r1
    3040:	eb 81       	ldd	r30, Y+3	; 0x03
    3042:	fc 81       	ldd	r31, Y+4	; 0x04
    3044:	62 80       	ldd	r6, Z+2	; 0x02
    3046:	73 80       	ldd	r7, Z+3	; 0x03
    3048:	d3 01       	movw	r26, r6
    304a:	8c 91       	ld	r24, X
    304c:	81 11       	cpse	r24, r1
    304e:	05 c0       	rjmp	.+10     	; 0x305a <next_token+0x6c>
    3050:	8a e1       	ldi	r24, 0x1A	; 26
    3052:	90 e0       	ldi	r25, 0x00	; 0
    3054:	95 83       	std	Z+5, r25	; 0x05
    3056:	84 83       	std	Z+4, r24	; 0x04
    3058:	8f c1       	rjmp	.+798    	; 0x3378 <next_token+0x38a>
    305a:	90 ed       	ldi	r25, 0xD0	; 208
    305c:	98 0f       	add	r25, r24
    305e:	9a 30       	cpi	r25, 0x0A	; 10
    3060:	10 f0       	brcs	.+4      	; 0x3066 <next_token+0x78>
    3062:	8e 32       	cpi	r24, 0x2E	; 46
    3064:	71 f4       	brne	.+28     	; 0x3082 <next_token+0x94>
    3066:	69 81       	ldd	r22, Y+1	; 0x01
    3068:	7a 81       	ldd	r23, Y+2	; 0x02
    306a:	c3 01       	movw	r24, r6
    306c:	0e 94 5c 2b 	call	0x56b8	; 0x56b8 <strtod>
    3070:	eb 81       	ldd	r30, Y+3	; 0x03
    3072:	fc 81       	ldd	r31, Y+4	; 0x04
    3074:	66 83       	std	Z+6, r22	; 0x06
    3076:	77 83       	std	Z+7, r23	; 0x07
    3078:	80 87       	std	Z+8, r24	; 0x08
    307a:	91 87       	std	Z+9, r25	; 0x09
    307c:	8e e1       	ldi	r24, 0x1E	; 30
    307e:	90 e0       	ldi	r25, 0x00	; 0
    3080:	59 c1       	rjmp	.+690    	; 0x3334 <next_token+0x346>
    3082:	81 56       	subi	r24, 0x61	; 97
    3084:	8a 31       	cpi	r24, 0x1A	; 26
    3086:	08 f0       	brcs	.+2      	; 0x308a <next_token+0x9c>
    3088:	a3 c0       	rjmp	.+326    	; 0x31d0 <next_token+0x1e2>
    308a:	ab 81       	ldd	r26, Y+3	; 0x03
    308c:	bc 81       	ldd	r27, Y+4	; 0x04
    308e:	12 96       	adiw	r26, 0x02	; 2
    3090:	ed 91       	ld	r30, X+
    3092:	fc 91       	ld	r31, X
    3094:	13 97       	sbiw	r26, 0x03	; 3
    3096:	80 81       	ld	r24, Z
    3098:	9f e9       	ldi	r25, 0x9F	; 159
    309a:	98 0f       	add	r25, r24
    309c:	9a 31       	cpi	r25, 0x1A	; 26
    309e:	58 f4       	brcc	.+22     	; 0x30b6 <next_token+0xc8>
    30a0:	2f 01       	movw	r4, r30
    30a2:	9f ef       	ldi	r25, 0xFF	; 255
    30a4:	49 1a       	sub	r4, r25
    30a6:	59 0a       	sbc	r5, r25
    30a8:	ab 81       	ldd	r26, Y+3	; 0x03
    30aa:	bc 81       	ldd	r27, Y+4	; 0x04
    30ac:	13 96       	adiw	r26, 0x03	; 3
    30ae:	5c 92       	st	X, r5
    30b0:	4e 92       	st	-X, r4
    30b2:	12 97       	sbiw	r26, 0x02	; 2
    30b4:	ea cf       	rjmp	.-44     	; 0x308a <next_token+0x9c>
    30b6:	90 ed       	ldi	r25, 0xD0	; 208
    30b8:	98 0f       	add	r25, r24
    30ba:	9a 30       	cpi	r25, 0x0A	; 10
    30bc:	88 f3       	brcs	.-30     	; 0x30a0 <next_token+0xb2>
    30be:	8f 35       	cpi	r24, 0x5F	; 95
    30c0:	79 f3       	breq	.-34     	; 0x30a0 <next_token+0xb2>
    30c2:	2f 01       	movw	r4, r30
    30c4:	46 18       	sub	r4, r6
    30c6:	57 08       	sbc	r5, r7
    30c8:	1c 96       	adiw	r26, 0x0c	; 12
    30ca:	0d 91       	ld	r16, X+
    30cc:	1c 91       	ld	r17, X
    30ce:	1d 97       	sbiw	r26, 0x0d	; 13
    30d0:	01 15       	cp	r16, r1
    30d2:	11 05       	cpc	r17, r1
    30d4:	01 f1       	breq	.+64     	; 0x3116 <next_token+0x128>
    30d6:	1e 96       	adiw	r26, 0x0e	; 14
    30d8:	ad 90       	ld	r10, X+
    30da:	bc 90       	ld	r11, X
    30dc:	1f 97       	sbiw	r26, 0x0f	; 15
    30de:	a1 14       	cp	r10, r1
    30e0:	b1 04       	cpc	r11, r1
    30e2:	c9 f0       	breq	.+50     	; 0x3116 <next_token+0x128>
    30e4:	f8 01       	movw	r30, r16
    30e6:	c0 80       	ld	r12, Z
    30e8:	d1 80       	ldd	r13, Z+1	; 0x01
    30ea:	a2 01       	movw	r20, r4
    30ec:	b6 01       	movw	r22, r12
    30ee:	c3 01       	movw	r24, r6
    30f0:	0e 94 6a 2d 	call	0x5ad4	; 0x5ad4 <strncmp>
    30f4:	89 2b       	or	r24, r25
    30f6:	31 f4       	brne	.+12     	; 0x3104 <next_token+0x116>
    30f8:	f6 01       	movw	r30, r12
    30fa:	e4 0d       	add	r30, r4
    30fc:	f5 1d       	adc	r31, r5
    30fe:	80 81       	ld	r24, Z
    3100:	88 23       	and	r24, r24
    3102:	31 f0       	breq	.+12     	; 0x3110 <next_token+0x122>
    3104:	08 5f       	subi	r16, 0xF8	; 248
    3106:	1f 4f       	sbci	r17, 0xFF	; 255
    3108:	f1 e0       	ldi	r31, 0x01	; 1
    310a:	af 1a       	sub	r10, r31
    310c:	b1 08       	sbc	r11, r1
    310e:	e7 cf       	rjmp	.-50     	; 0x30de <next_token+0xf0>
    3110:	01 15       	cp	r16, r1
    3112:	11 05       	cpc	r17, r1
    3114:	59 f5       	brne	.+86     	; 0x316c <next_token+0x17e>
    3116:	c1 2c       	mov	r12, r1
    3118:	d1 2c       	mov	r13, r1
    311a:	aa 24       	eor	r10, r10
    311c:	a3 94       	inc	r10
    311e:	b1 2c       	mov	r11, r1
    3120:	86 01       	movw	r16, r12
    3122:	83 e0       	ldi	r24, 0x03	; 3
    3124:	00 0f       	add	r16, r16
    3126:	11 1f       	adc	r17, r17
    3128:	8a 95       	dec	r24
    312a:	e1 f7       	brne	.-8      	; 0x3124 <next_token+0x136>
    312c:	0b 57       	subi	r16, 0x7B	; 123
    312e:	1e 4f       	sbci	r17, 0xFE	; 254
    3130:	d8 01       	movw	r26, r16
    3132:	8d 90       	ld	r8, X+
    3134:	9c 90       	ld	r9, X
    3136:	a2 01       	movw	r20, r4
    3138:	b4 01       	movw	r22, r8
    313a:	c3 01       	movw	r24, r6
    313c:	0e 94 6a 2d 	call	0x5ad4	; 0x5ad4 <strncmp>
    3140:	00 97       	sbiw	r24, 0x00	; 0
    3142:	09 f0       	breq	.+2      	; 0x3146 <next_token+0x158>
    3144:	11 c1       	rjmp	.+546    	; 0x3368 <next_token+0x37a>
    3146:	f4 01       	movw	r30, r8
    3148:	e4 0d       	add	r30, r4
    314a:	f5 1d       	adc	r31, r5
    314c:	80 81       	ld	r24, Z
    314e:	81 11       	cpse	r24, r1
    3150:	05 c0       	rjmp	.+10     	; 0x315c <next_token+0x16e>
    3152:	01 15       	cp	r16, r1
    3154:	11 05       	cpc	r17, r1
    3156:	09 f4       	brne	.+2      	; 0x315a <next_token+0x16c>
    3158:	f9 c0       	rjmp	.+498    	; 0x334c <next_token+0x35e>
    315a:	08 c0       	rjmp	.+16     	; 0x316c <next_token+0x17e>
    315c:	56 01       	movw	r10, r12
    315e:	e1 e0       	ldi	r30, 0x01	; 1
    3160:	ae 1a       	sub	r10, r30
    3162:	b1 08       	sbc	r11, r1
    3164:	ac 14       	cp	r10, r12
    3166:	bd 04       	cpc	r11, r13
    3168:	dc f6       	brge	.-74     	; 0x3120 <next_token+0x132>
    316a:	f0 c0       	rjmp	.+480    	; 0x334c <next_token+0x35e>
    316c:	f8 01       	movw	r30, r16
    316e:	24 81       	ldd	r18, Z+4	; 0x04
    3170:	35 81       	ldd	r19, Z+5	; 0x05
    3172:	c9 01       	movw	r24, r18
    3174:	8f 71       	andi	r24, 0x1F	; 31
    3176:	99 27       	eor	r25, r25
    3178:	80 31       	cpi	r24, 0x10	; 16
    317a:	91 05       	cpc	r25, r1
    317c:	b4 f4       	brge	.+44     	; 0x31aa <next_token+0x1bc>
    317e:	88 30       	cpi	r24, 0x08	; 8
    3180:	91 05       	cpc	r25, r1
    3182:	e4 f4       	brge	.+56     	; 0x31bc <next_token+0x1ce>
    3184:	89 2b       	or	r24, r25
    3186:	09 f0       	breq	.+2      	; 0x318a <next_token+0x19c>
    3188:	e7 c0       	rjmp	.+462    	; 0x3358 <next_token+0x36a>
    318a:	ef e1       	ldi	r30, 0x1F	; 31
    318c:	f0 e0       	ldi	r31, 0x00	; 0
    318e:	ab 81       	ldd	r26, Y+3	; 0x03
    3190:	bc 81       	ldd	r27, Y+4	; 0x04
    3192:	15 96       	adiw	r26, 0x05	; 5
    3194:	fc 93       	st	X, r31
    3196:	ee 93       	st	-X, r30
    3198:	14 97       	sbiw	r26, 0x04	; 4
    319a:	d8 01       	movw	r26, r16
    319c:	12 96       	adiw	r26, 0x02	; 2
    319e:	8d 91       	ld	r24, X+
    31a0:	9c 91       	ld	r25, X
    31a2:	13 97       	sbiw	r26, 0x03	; 3
    31a4:	eb 81       	ldd	r30, Y+3	; 0x03
    31a6:	fc 81       	ldd	r31, Y+4	; 0x04
    31a8:	93 c0       	rjmp	.+294    	; 0x32d0 <next_token+0x2e2>
    31aa:	48 97       	sbiw	r24, 0x18	; 24
    31ac:	0c f0       	brlt	.+2      	; 0x31b0 <next_token+0x1c2>
    31ae:	d4 c0       	rjmp	.+424    	; 0x3358 <next_token+0x36a>
    31b0:	86 81       	ldd	r24, Z+6	; 0x06
    31b2:	97 81       	ldd	r25, Z+7	; 0x07
    31b4:	eb 81       	ldd	r30, Y+3	; 0x03
    31b6:	fc 81       	ldd	r31, Y+4	; 0x04
    31b8:	93 87       	std	Z+11, r25	; 0x0b
    31ba:	82 87       	std	Z+10, r24	; 0x0a
    31bc:	ab 81       	ldd	r26, Y+3	; 0x03
    31be:	bc 81       	ldd	r27, Y+4	; 0x04
    31c0:	15 96       	adiw	r26, 0x05	; 5
    31c2:	3c 93       	st	X, r19
    31c4:	2e 93       	st	-X, r18
    31c6:	14 97       	sbiw	r26, 0x04	; 4
    31c8:	f8 01       	movw	r30, r16
    31ca:	82 81       	ldd	r24, Z+2	; 0x02
    31cc:	93 81       	ldd	r25, Z+3	; 0x03
    31ce:	65 c0       	rjmp	.+202    	; 0x329a <next_token+0x2ac>
    31d0:	c3 01       	movw	r24, r6
    31d2:	01 96       	adiw	r24, 0x01	; 1
    31d4:	ab 81       	ldd	r26, Y+3	; 0x03
    31d6:	bc 81       	ldd	r27, Y+4	; 0x04
    31d8:	13 96       	adiw	r26, 0x03	; 3
    31da:	9c 93       	st	X, r25
    31dc:	8e 93       	st	-X, r24
    31de:	12 97       	sbiw	r26, 0x02	; 2
    31e0:	f3 01       	movw	r30, r6
    31e2:	80 81       	ld	r24, Z
    31e4:	8a 32       	cpi	r24, 0x2A	; 42
    31e6:	09 f4       	brne	.+2      	; 0x31ea <next_token+0x1fc>
    31e8:	64 c0       	rjmp	.+200    	; 0x32b2 <next_token+0x2c4>
    31ea:	48 f5       	brcc	.+82     	; 0x323e <next_token+0x250>
    31ec:	80 32       	cpi	r24, 0x20	; 32
    31ee:	09 f4       	brne	.+2      	; 0x31f2 <next_token+0x204>
    31f0:	b3 c0       	rjmp	.+358    	; 0x3358 <next_token+0x36a>
    31f2:	50 f4       	brcc	.+20     	; 0x3208 <next_token+0x21a>
    31f4:	89 30       	cpi	r24, 0x09	; 9
    31f6:	08 f4       	brcc	.+2      	; 0x31fa <next_token+0x20c>
    31f8:	a9 c0       	rjmp	.+338    	; 0x334c <next_token+0x35e>
    31fa:	8b 30       	cpi	r24, 0x0B	; 11
    31fc:	08 f4       	brcc	.+2      	; 0x3200 <next_token+0x212>
    31fe:	ac c0       	rjmp	.+344    	; 0x3358 <next_token+0x36a>
    3200:	8d 30       	cpi	r24, 0x0D	; 13
    3202:	09 f4       	brne	.+2      	; 0x3206 <next_token+0x218>
    3204:	a9 c0       	rjmp	.+338    	; 0x3358 <next_token+0x36a>
    3206:	a2 c0       	rjmp	.+324    	; 0x334c <next_token+0x35e>
    3208:	86 32       	cpi	r24, 0x26	; 38
    320a:	09 f4       	brne	.+2      	; 0x320e <next_token+0x220>
    320c:	78 c0       	rjmp	.+240    	; 0x32fe <next_token+0x310>
    320e:	60 f4       	brcc	.+24     	; 0x3228 <next_token+0x23a>
    3210:	85 32       	cpi	r24, 0x25	; 37
    3212:	09 f0       	breq	.+2      	; 0x3216 <next_token+0x228>
    3214:	9b c0       	rjmp	.+310    	; 0x334c <next_token+0x35e>
    3216:	ab 81       	ldd	r26, Y+3	; 0x03
    3218:	bc 81       	ldd	r27, Y+4	; 0x04
    321a:	15 96       	adiw	r26, 0x05	; 5
    321c:	fc 92       	st	X, r15
    321e:	ee 92       	st	-X, r14
    3220:	14 97       	sbiw	r26, 0x04	; 4
    3222:	86 e1       	ldi	r24, 0x16	; 22
    3224:	97 e2       	ldi	r25, 0x27	; 39
    3226:	39 c0       	rjmp	.+114    	; 0x329a <next_token+0x2ac>
    3228:	88 32       	cpi	r24, 0x28	; 40
    322a:	09 f4       	brne	.+2      	; 0x322e <next_token+0x240>
    322c:	7a c0       	rjmp	.+244    	; 0x3322 <next_token+0x334>
    322e:	89 32       	cpi	r24, 0x29	; 41
    3230:	09 f0       	breq	.+2      	; 0x3234 <next_token+0x246>
    3232:	8c c0       	rjmp	.+280    	; 0x334c <next_token+0x35e>
    3234:	8d e1       	ldi	r24, 0x1D	; 29
    3236:	90 e0       	ldi	r25, 0x00	; 0
    3238:	eb 81       	ldd	r30, Y+3	; 0x03
    323a:	fc 81       	ldd	r31, Y+4	; 0x04
    323c:	7b c0       	rjmp	.+246    	; 0x3334 <next_token+0x346>
    323e:	8c 33       	cpi	r24, 0x3C	; 60
    3240:	09 f4       	brne	.+2      	; 0x3244 <next_token+0x256>
    3242:	50 c0       	rjmp	.+160    	; 0x32e4 <next_token+0x2f6>
    3244:	90 f4       	brcc	.+36     	; 0x326a <next_token+0x27c>
    3246:	8c 32       	cpi	r24, 0x2C	; 44
    3248:	09 f4       	brne	.+2      	; 0x324c <next_token+0x25e>
    324a:	77 c0       	rjmp	.+238    	; 0x333a <next_token+0x34c>
    324c:	f0 f0       	brcs	.+60     	; 0x328a <next_token+0x29c>
    324e:	8d 32       	cpi	r24, 0x2D	; 45
    3250:	49 f1       	breq	.+82     	; 0x32a4 <next_token+0x2b6>
    3252:	8f 32       	cpi	r24, 0x2F	; 47
    3254:	09 f0       	breq	.+2      	; 0x3258 <next_token+0x26a>
    3256:	7a c0       	rjmp	.+244    	; 0x334c <next_token+0x35e>
    3258:	ab 81       	ldd	r26, Y+3	; 0x03
    325a:	bc 81       	ldd	r27, Y+4	; 0x04
    325c:	15 96       	adiw	r26, 0x05	; 5
    325e:	fc 92       	st	X, r15
    3260:	ee 92       	st	-X, r14
    3262:	14 97       	sbiw	r26, 0x04	; 4
    3264:	8e ed       	ldi	r24, 0xDE	; 222
    3266:	96 e1       	ldi	r25, 0x16	; 22
    3268:	18 c0       	rjmp	.+48     	; 0x329a <next_token+0x2ac>
    326a:	8e 33       	cpi	r24, 0x3E	; 62
    326c:	a1 f1       	breq	.+104    	; 0x32d6 <next_token+0x2e8>
    326e:	08 f4       	brcc	.+2      	; 0x3272 <next_token+0x284>
    3270:	4f c0       	rjmp	.+158    	; 0x3310 <next_token+0x322>
    3272:	8e 35       	cpi	r24, 0x5E	; 94
    3274:	39 f1       	breq	.+78     	; 0x32c4 <next_token+0x2d6>
    3276:	8c 37       	cpi	r24, 0x7C	; 124
    3278:	09 f0       	breq	.+2      	; 0x327c <next_token+0x28e>
    327a:	68 c0       	rjmp	.+208    	; 0x334c <next_token+0x35e>
    327c:	eb 81       	ldd	r30, Y+3	; 0x03
    327e:	fc 81       	ldd	r31, Y+4	; 0x04
    3280:	f5 82       	std	Z+5, r15	; 0x05
    3282:	e4 82       	std	Z+4, r14	; 0x04
    3284:	85 e3       	ldi	r24, 0x35	; 53
    3286:	97 e1       	ldi	r25, 0x17	; 23
    3288:	23 c0       	rjmp	.+70     	; 0x32d0 <next_token+0x2e2>
    328a:	ab 81       	ldd	r26, Y+3	; 0x03
    328c:	bc 81       	ldd	r27, Y+4	; 0x04
    328e:	15 96       	adiw	r26, 0x05	; 5
    3290:	fc 92       	st	X, r15
    3292:	ee 92       	st	-X, r14
    3294:	14 97       	sbiw	r26, 0x04	; 4
    3296:	85 ed       	ldi	r24, 0xD5	; 213
    3298:	96 e1       	ldi	r25, 0x16	; 22
    329a:	17 96       	adiw	r26, 0x07	; 7
    329c:	9c 93       	st	X, r25
    329e:	8e 93       	st	-X, r24
    32a0:	16 97       	sbiw	r26, 0x06	; 6
    32a2:	5a c0       	rjmp	.+180    	; 0x3358 <next_token+0x36a>
    32a4:	eb 81       	ldd	r30, Y+3	; 0x03
    32a6:	fc 81       	ldd	r31, Y+4	; 0x04
    32a8:	f5 82       	std	Z+5, r15	; 0x05
    32aa:	e4 82       	std	Z+4, r14	; 0x04
    32ac:	88 ed       	ldi	r24, 0xD8	; 216
    32ae:	96 e1       	ldi	r25, 0x16	; 22
    32b0:	0f c0       	rjmp	.+30     	; 0x32d0 <next_token+0x2e2>
    32b2:	ab 81       	ldd	r26, Y+3	; 0x03
    32b4:	bc 81       	ldd	r27, Y+4	; 0x04
    32b6:	15 96       	adiw	r26, 0x05	; 5
    32b8:	fc 92       	st	X, r15
    32ba:	ee 92       	st	-X, r14
    32bc:	14 97       	sbiw	r26, 0x04	; 4
    32be:	eb ed       	ldi	r30, 0xDB	; 219
    32c0:	f6 e1       	ldi	r31, 0x16	; 22
    32c2:	18 c0       	rjmp	.+48     	; 0x32f4 <next_token+0x306>
    32c4:	eb 81       	ldd	r30, Y+3	; 0x03
    32c6:	fc 81       	ldd	r31, Y+4	; 0x04
    32c8:	f5 82       	std	Z+5, r15	; 0x05
    32ca:	e4 82       	std	Z+4, r14	; 0x04
    32cc:	84 ea       	ldi	r24, 0xA4	; 164
    32ce:	98 e2       	ldi	r25, 0x28	; 40
    32d0:	97 83       	std	Z+7, r25	; 0x07
    32d2:	86 83       	std	Z+6, r24	; 0x06
    32d4:	41 c0       	rjmp	.+130    	; 0x3358 <next_token+0x36a>
    32d6:	eb 81       	ldd	r30, Y+3	; 0x03
    32d8:	fc 81       	ldd	r31, Y+4	; 0x04
    32da:	f5 82       	std	Z+5, r15	; 0x05
    32dc:	e4 82       	std	Z+4, r14	; 0x04
    32de:	81 ee       	ldi	r24, 0xE1	; 225
    32e0:	96 e1       	ldi	r25, 0x16	; 22
    32e2:	f6 cf       	rjmp	.-20     	; 0x32d0 <next_token+0x2e2>
    32e4:	ab 81       	ldd	r26, Y+3	; 0x03
    32e6:	bc 81       	ldd	r27, Y+4	; 0x04
    32e8:	15 96       	adiw	r26, 0x05	; 5
    32ea:	fc 92       	st	X, r15
    32ec:	ee 92       	st	-X, r14
    32ee:	14 97       	sbiw	r26, 0x04	; 4
    32f0:	ee ee       	ldi	r30, 0xEE	; 238
    32f2:	f6 e1       	ldi	r31, 0x16	; 22
    32f4:	17 96       	adiw	r26, 0x07	; 7
    32f6:	fc 93       	st	X, r31
    32f8:	ee 93       	st	-X, r30
    32fa:	16 97       	sbiw	r26, 0x06	; 6
    32fc:	2d c0       	rjmp	.+90     	; 0x3358 <next_token+0x36a>
    32fe:	ab 81       	ldd	r26, Y+3	; 0x03
    3300:	bc 81       	ldd	r27, Y+4	; 0x04
    3302:	15 96       	adiw	r26, 0x05	; 5
    3304:	fc 92       	st	X, r15
    3306:	ee 92       	st	-X, r14
    3308:	14 97       	sbiw	r26, 0x04	; 4
    330a:	88 e0       	ldi	r24, 0x08	; 8
    330c:	97 e1       	ldi	r25, 0x17	; 23
    330e:	c5 cf       	rjmp	.-118    	; 0x329a <next_token+0x2ac>
    3310:	ab 81       	ldd	r26, Y+3	; 0x03
    3312:	bc 81       	ldd	r27, Y+4	; 0x04
    3314:	15 96       	adiw	r26, 0x05	; 5
    3316:	fc 92       	st	X, r15
    3318:	ee 92       	st	-X, r14
    331a:	14 97       	sbiw	r26, 0x04	; 4
    331c:	eb ef       	ldi	r30, 0xFB	; 251
    331e:	f6 e1       	ldi	r31, 0x16	; 22
    3320:	e9 cf       	rjmp	.-46     	; 0x32f4 <next_token+0x306>
    3322:	8c e1       	ldi	r24, 0x1C	; 28
    3324:	90 e0       	ldi	r25, 0x00	; 0
    3326:	ab 81       	ldd	r26, Y+3	; 0x03
    3328:	bc 81       	ldd	r27, Y+4	; 0x04
    332a:	15 96       	adiw	r26, 0x05	; 5
    332c:	9c 93       	st	X, r25
    332e:	8e 93       	st	-X, r24
    3330:	14 97       	sbiw	r26, 0x04	; 4
    3332:	12 c0       	rjmp	.+36     	; 0x3358 <next_token+0x36a>
    3334:	95 83       	std	Z+5, r25	; 0x05
    3336:	84 83       	std	Z+4, r24	; 0x04
    3338:	0f c0       	rjmp	.+30     	; 0x3358 <next_token+0x36a>
    333a:	eb e1       	ldi	r30, 0x1B	; 27
    333c:	f0 e0       	ldi	r31, 0x00	; 0
    333e:	ab 81       	ldd	r26, Y+3	; 0x03
    3340:	bc 81       	ldd	r27, Y+4	; 0x04
    3342:	15 96       	adiw	r26, 0x05	; 5
    3344:	fc 93       	st	X, r31
    3346:	ee 93       	st	-X, r30
    3348:	14 97       	sbiw	r26, 0x04	; 4
    334a:	06 c0       	rjmp	.+12     	; 0x3358 <next_token+0x36a>
    334c:	ab 81       	ldd	r26, Y+3	; 0x03
    334e:	bc 81       	ldd	r27, Y+4	; 0x04
    3350:	15 96       	adiw	r26, 0x05	; 5
    3352:	3c 92       	st	X, r3
    3354:	2e 92       	st	-X, r2
    3356:	14 97       	sbiw	r26, 0x04	; 4
    3358:	eb 81       	ldd	r30, Y+3	; 0x03
    335a:	fc 81       	ldd	r31, Y+4	; 0x04
    335c:	84 81       	ldd	r24, Z+4	; 0x04
    335e:	95 81       	ldd	r25, Z+5	; 0x05
    3360:	48 97       	sbiw	r24, 0x18	; 24
    3362:	09 f4       	brne	.+2      	; 0x3366 <next_token+0x378>
    3364:	6d ce       	rjmp	.-806    	; 0x3040 <next_token+0x52>
    3366:	08 c0       	rjmp	.+16     	; 0x3378 <next_token+0x38a>
    3368:	18 16       	cp	r1, r24
    336a:	19 06       	cpc	r1, r25
    336c:	0c f0       	brlt	.+2      	; 0x3370 <next_token+0x382>
    336e:	f6 ce       	rjmp	.-532    	; 0x315c <next_token+0x16e>
    3370:	bf ef       	ldi	r27, 0xFF	; 255
    3372:	cb 1a       	sub	r12, r27
    3374:	db 0a       	sbc	r13, r27
    3376:	f6 ce       	rjmp	.-532    	; 0x3164 <next_token+0x176>
    3378:	0f 90       	pop	r0
    337a:	0f 90       	pop	r0
    337c:	0f 90       	pop	r0
    337e:	0f 90       	pop	r0
    3380:	df 91       	pop	r29
    3382:	cf 91       	pop	r28
    3384:	1f 91       	pop	r17
    3386:	0f 91       	pop	r16
    3388:	ff 90       	pop	r15
    338a:	ef 90       	pop	r14
    338c:	df 90       	pop	r13
    338e:	cf 90       	pop	r12
    3390:	bf 90       	pop	r11
    3392:	af 90       	pop	r10
    3394:	9f 90       	pop	r9
    3396:	8f 90       	pop	r8
    3398:	7f 90       	pop	r7
    339a:	6f 90       	pop	r6
    339c:	5f 90       	pop	r5
    339e:	4f 90       	pop	r4
    33a0:	3f 90       	pop	r3
    33a2:	2f 90       	pop	r2
    33a4:	08 95       	ret

000033a6 <list>:
    33a6:	cf 92       	push	r12
    33a8:	df 92       	push	r13
    33aa:	ef 92       	push	r14
    33ac:	ff 92       	push	r15
    33ae:	0f 93       	push	r16
    33b0:	1f 93       	push	r17
    33b2:	cf 93       	push	r28
    33b4:	df 93       	push	r29
    33b6:	00 d0       	rcall	.+0      	; 0x33b8 <list+0x12>
    33b8:	00 d0       	rcall	.+0      	; 0x33ba <list+0x14>
    33ba:	cd b7       	in	r28, 0x3d	; 61
    33bc:	de b7       	in	r29, 0x3e	; 62
    33be:	7c 01       	movw	r14, r24
    33c0:	0e 94 62 1c 	call	0x38c4	; 0x38c4 <expr>
    33c4:	8c 01       	movw	r16, r24
    33c6:	84 e6       	ldi	r24, 0x64	; 100
    33c8:	c8 2e       	mov	r12, r24
    33ca:	87 e1       	ldi	r24, 0x17	; 23
    33cc:	d8 2e       	mov	r13, r24
    33ce:	f7 01       	movw	r30, r14
    33d0:	84 81       	ldd	r24, Z+4	; 0x04
    33d2:	95 81       	ldd	r25, Z+5	; 0x05
    33d4:	4b 97       	sbiw	r24, 0x1b	; 27
    33d6:	b1 f4       	brne	.+44     	; 0x3404 <list+0x5e>
    33d8:	c7 01       	movw	r24, r14
    33da:	0e 94 f7 17 	call	0x2fee	; 0x2fee <next_token>
    33de:	1a 83       	std	Y+2, r17	; 0x02
    33e0:	09 83       	std	Y+1, r16	; 0x01
    33e2:	c7 01       	movw	r24, r14
    33e4:	0e 94 62 1c 	call	0x38c4	; 0x38c4 <expr>
    33e8:	9c 83       	std	Y+4, r25	; 0x04
    33ea:	8b 83       	std	Y+3, r24	; 0x03
    33ec:	be 01       	movw	r22, r28
    33ee:	6f 5f       	subi	r22, 0xFF	; 255
    33f0:	7f 4f       	sbci	r23, 0xFF	; 255
    33f2:	8a e2       	ldi	r24, 0x2A	; 42
    33f4:	90 e0       	ldi	r25, 0x00	; 0
    33f6:	0e 94 67 17 	call	0x2ece	; 0x2ece <new_expr>
    33fa:	8c 01       	movw	r16, r24
    33fc:	fc 01       	movw	r30, r24
    33fe:	d3 82       	std	Z+3, r13	; 0x03
    3400:	c2 82       	std	Z+2, r12	; 0x02
    3402:	e5 cf       	rjmp	.-54     	; 0x33ce <list+0x28>
    3404:	c8 01       	movw	r24, r16
    3406:	0f 90       	pop	r0
    3408:	0f 90       	pop	r0
    340a:	0f 90       	pop	r0
    340c:	0f 90       	pop	r0
    340e:	df 91       	pop	r29
    3410:	cf 91       	pop	r28
    3412:	1f 91       	pop	r17
    3414:	0f 91       	pop	r16
    3416:	ff 90       	pop	r15
    3418:	ef 90       	pop	r14
    341a:	df 90       	pop	r13
    341c:	cf 90       	pop	r12
    341e:	08 95       	ret

00003420 <base>:
    3420:	af 92       	push	r10
    3422:	bf 92       	push	r11
    3424:	cf 92       	push	r12
    3426:	df 92       	push	r13
    3428:	ef 92       	push	r14
    342a:	ff 92       	push	r15
    342c:	0f 93       	push	r16
    342e:	1f 93       	push	r17
    3430:	cf 93       	push	r28
    3432:	df 93       	push	r29
    3434:	ec 01       	movw	r28, r24
    3436:	8c 81       	ldd	r24, Y+4	; 0x04
    3438:	9d 81       	ldd	r25, Y+5	; 0x05
    343a:	fc 01       	movw	r30, r24
    343c:	ef 71       	andi	r30, 0x1F	; 31
    343e:	ff 27       	eor	r31, r31
    3440:	38 97       	sbiw	r30, 0x08	; 8
    3442:	e8 31       	cpi	r30, 0x18	; 24
    3444:	f1 05       	cpc	r31, r1
    3446:	08 f0       	brcs	.+2      	; 0x344a <base+0x2a>
    3448:	bf c0       	rjmp	.+382    	; 0x35c8 <base+0x1a8>
    344a:	ed 5b       	subi	r30, 0xBD	; 189
    344c:	ff 4f       	sbci	r31, 0xFF	; 255
    344e:	0c 94 01 2a 	jmp	0x5402	; 0x5402 <__tablejump2__>
    3452:	60 e0       	ldi	r22, 0x00	; 0
    3454:	70 e0       	ldi	r23, 0x00	; 0
    3456:	81 e0       	ldi	r24, 0x01	; 1
    3458:	90 e0       	ldi	r25, 0x00	; 0
    345a:	0e 94 67 17 	call	0x2ece	; 0x2ece <new_expr>
    345e:	8c 01       	movw	r16, r24
    3460:	8e 81       	ldd	r24, Y+6	; 0x06
    3462:	9f 81       	ldd	r25, Y+7	; 0x07
    3464:	a8 85       	ldd	r26, Y+8	; 0x08
    3466:	b9 85       	ldd	r27, Y+9	; 0x09
    3468:	f8 01       	movw	r30, r16
    346a:	82 83       	std	Z+2, r24	; 0x02
    346c:	93 83       	std	Z+3, r25	; 0x03
    346e:	a4 83       	std	Z+4, r26	; 0x04
    3470:	b5 83       	std	Z+5, r27	; 0x05
    3472:	a6 c0       	rjmp	.+332    	; 0x35c0 <base+0x1a0>
    3474:	60 e0       	ldi	r22, 0x00	; 0
    3476:	70 e0       	ldi	r23, 0x00	; 0
    3478:	80 e0       	ldi	r24, 0x00	; 0
    347a:	90 e0       	ldi	r25, 0x00	; 0
    347c:	0e 94 67 17 	call	0x2ece	; 0x2ece <new_expr>
    3480:	8c 01       	movw	r16, r24
    3482:	8e 81       	ldd	r24, Y+6	; 0x06
    3484:	9f 81       	ldd	r25, Y+7	; 0x07
    3486:	f8 01       	movw	r30, r16
    3488:	93 83       	std	Z+3, r25	; 0x03
    348a:	82 83       	std	Z+2, r24	; 0x02
    348c:	99 c0       	rjmp	.+306    	; 0x35c0 <base+0x1a0>
    348e:	60 e0       	ldi	r22, 0x00	; 0
    3490:	70 e0       	ldi	r23, 0x00	; 0
    3492:	0e 94 67 17 	call	0x2ece	; 0x2ece <new_expr>
    3496:	8c 01       	movw	r16, r24
    3498:	8e 81       	ldd	r24, Y+6	; 0x06
    349a:	9f 81       	ldd	r25, Y+7	; 0x07
    349c:	f8 01       	movw	r30, r16
    349e:	93 83       	std	Z+3, r25	; 0x03
    34a0:	82 83       	std	Z+2, r24	; 0x02
    34a2:	8c 81       	ldd	r24, Y+4	; 0x04
    34a4:	84 ff       	sbrs	r24, 4
    34a6:	04 c0       	rjmp	.+8      	; 0x34b0 <base+0x90>
    34a8:	8a 85       	ldd	r24, Y+10	; 0x0a
    34aa:	9b 85       	ldd	r25, Y+11	; 0x0b
    34ac:	97 83       	std	Z+7, r25	; 0x07
    34ae:	86 83       	std	Z+6, r24	; 0x06
    34b0:	ce 01       	movw	r24, r28
    34b2:	0e 94 f7 17 	call	0x2fee	; 0x2fee <next_token>
    34b6:	8c 81       	ldd	r24, Y+4	; 0x04
    34b8:	9d 81       	ldd	r25, Y+5	; 0x05
    34ba:	4c 97       	sbiw	r24, 0x1c	; 28
    34bc:	09 f0       	breq	.+2      	; 0x34c0 <base+0xa0>
    34be:	98 c0       	rjmp	.+304    	; 0x35f0 <base+0x1d0>
    34c0:	ce 01       	movw	r24, r28
    34c2:	0e 94 f7 17 	call	0x2fee	; 0x2fee <next_token>
    34c6:	73 c0       	rjmp	.+230    	; 0x35ae <base+0x18e>
    34c8:	60 e0       	ldi	r22, 0x00	; 0
    34ca:	70 e0       	ldi	r23, 0x00	; 0
    34cc:	0e 94 67 17 	call	0x2ece	; 0x2ece <new_expr>
    34d0:	8c 01       	movw	r16, r24
    34d2:	8e 81       	ldd	r24, Y+6	; 0x06
    34d4:	9f 81       	ldd	r25, Y+7	; 0x07
    34d6:	f8 01       	movw	r30, r16
    34d8:	93 83       	std	Z+3, r25	; 0x03
    34da:	82 83       	std	Z+2, r24	; 0x02
    34dc:	8c 81       	ldd	r24, Y+4	; 0x04
    34de:	84 ff       	sbrs	r24, 4
    34e0:	04 c0       	rjmp	.+8      	; 0x34ea <base+0xca>
    34e2:	8a 85       	ldd	r24, Y+10	; 0x0a
    34e4:	9b 85       	ldd	r25, Y+11	; 0x0b
    34e6:	91 87       	std	Z+9, r25	; 0x09
    34e8:	80 87       	std	Z+8, r24	; 0x08
    34ea:	ce 01       	movw	r24, r28
    34ec:	0e 94 f7 17 	call	0x2fee	; 0x2fee <next_token>
    34f0:	ce 01       	movw	r24, r28
    34f2:	0e 94 04 1b 	call	0x3608	; 0x3608 <power>
    34f6:	f8 01       	movw	r30, r16
    34f8:	97 83       	std	Z+7, r25	; 0x07
    34fa:	86 83       	std	Z+6, r24	; 0x06
    34fc:	79 c0       	rjmp	.+242    	; 0x35f0 <base+0x1d0>
    34fe:	9c 01       	movw	r18, r24
    3500:	28 71       	andi	r18, 0x18	; 24
    3502:	33 27       	eor	r19, r19
    3504:	23 2b       	or	r18, r19
    3506:	29 f0       	breq	.+10     	; 0x3512 <base+0xf2>
    3508:	7c 01       	movw	r14, r24
    350a:	f7 e0       	ldi	r31, 0x07	; 7
    350c:	ef 22       	and	r14, r31
    350e:	ff 24       	eor	r15, r15
    3510:	02 c0       	rjmp	.+4      	; 0x3516 <base+0xf6>
    3512:	e1 2c       	mov	r14, r1
    3514:	f1 2c       	mov	r15, r1
    3516:	60 e0       	ldi	r22, 0x00	; 0
    3518:	70 e0       	ldi	r23, 0x00	; 0
    351a:	0e 94 67 17 	call	0x2ece	; 0x2ece <new_expr>
    351e:	8c 01       	movw	r16, r24
    3520:	8e 81       	ldd	r24, Y+6	; 0x06
    3522:	9f 81       	ldd	r25, Y+7	; 0x07
    3524:	f8 01       	movw	r30, r16
    3526:	93 83       	std	Z+3, r25	; 0x03
    3528:	82 83       	std	Z+2, r24	; 0x02
    352a:	8c 81       	ldd	r24, Y+4	; 0x04
    352c:	84 ff       	sbrs	r24, 4
    352e:	0a c0       	rjmp	.+20     	; 0x3544 <base+0x124>
    3530:	f7 01       	movw	r30, r14
    3532:	33 96       	adiw	r30, 0x03	; 3
    3534:	ee 0f       	add	r30, r30
    3536:	ff 1f       	adc	r31, r31
    3538:	e0 0f       	add	r30, r16
    353a:	f1 1f       	adc	r31, r17
    353c:	8a 85       	ldd	r24, Y+10	; 0x0a
    353e:	9b 85       	ldd	r25, Y+11	; 0x0b
    3540:	91 83       	std	Z+1, r25	; 0x01
    3542:	80 83       	st	Z, r24
    3544:	ce 01       	movw	r24, r28
    3546:	0e 94 f7 17 	call	0x2fee	; 0x2fee <next_token>
    354a:	8c 81       	ldd	r24, Y+4	; 0x04
    354c:	9d 81       	ldd	r25, Y+5	; 0x05
    354e:	4c 97       	sbiw	r24, 0x1c	; 28
    3550:	91 f5       	brne	.+100    	; 0x35b6 <base+0x196>
    3552:	58 01       	movw	r10, r16
    3554:	f6 e0       	ldi	r31, 0x06	; 6
    3556:	af 0e       	add	r10, r31
    3558:	b1 1c       	adc	r11, r1
    355a:	c1 2c       	mov	r12, r1
    355c:	d1 2c       	mov	r13, r1
    355e:	ce 14       	cp	r12, r14
    3560:	df 04       	cpc	r13, r15
    3562:	71 f0       	breq	.+28     	; 0x3580 <base+0x160>
    3564:	ce 01       	movw	r24, r28
    3566:	0e 94 f7 17 	call	0x2fee	; 0x2fee <next_token>
    356a:	ce 01       	movw	r24, r28
    356c:	0e 94 62 1c 	call	0x38c4	; 0x38c4 <expr>
    3570:	f5 01       	movw	r30, r10
    3572:	81 93       	st	Z+, r24
    3574:	91 93       	st	Z+, r25
    3576:	5f 01       	movw	r10, r30
    3578:	8c 81       	ldd	r24, Y+4	; 0x04
    357a:	9d 81       	ldd	r25, Y+5	; 0x05
    357c:	4b 97       	sbiw	r24, 0x1b	; 27
    357e:	29 f0       	breq	.+10     	; 0x358a <base+0x16a>
    3580:	8c 81       	ldd	r24, Y+4	; 0x04
    3582:	9d 81       	ldd	r25, Y+5	; 0x05
    3584:	4d 97       	sbiw	r24, 0x1d	; 29
    3586:	b9 f4       	brne	.+46     	; 0x35b6 <base+0x196>
    3588:	04 c0       	rjmp	.+8      	; 0x3592 <base+0x172>
    358a:	ff ef       	ldi	r31, 0xFF	; 255
    358c:	cf 1a       	sub	r12, r31
    358e:	df 0a       	sbc	r13, r31
    3590:	e6 cf       	rjmp	.-52     	; 0x355e <base+0x13e>
    3592:	21 e0       	ldi	r18, 0x01	; 1
    3594:	e2 1a       	sub	r14, r18
    3596:	f1 08       	sbc	r15, r1
    3598:	ec 14       	cp	r14, r12
    359a:	fd 04       	cpc	r15, r13
    359c:	61 f4       	brne	.+24     	; 0x35b6 <base+0x196>
    359e:	10 c0       	rjmp	.+32     	; 0x35c0 <base+0x1a0>
    35a0:	ce 01       	movw	r24, r28
    35a2:	0e 94 f7 17 	call	0x2fee	; 0x2fee <next_token>
    35a6:	ce 01       	movw	r24, r28
    35a8:	0e 94 d3 19 	call	0x33a6	; 0x33a6 <list>
    35ac:	8c 01       	movw	r16, r24
    35ae:	8c 81       	ldd	r24, Y+4	; 0x04
    35b0:	9d 81       	ldd	r25, Y+5	; 0x05
    35b2:	4d 97       	sbiw	r24, 0x1d	; 29
    35b4:	29 f0       	breq	.+10     	; 0x35c0 <base+0x1a0>
    35b6:	89 e1       	ldi	r24, 0x19	; 25
    35b8:	90 e0       	ldi	r25, 0x00	; 0
    35ba:	9d 83       	std	Y+5, r25	; 0x05
    35bc:	8c 83       	std	Y+4, r24	; 0x04
    35be:	18 c0       	rjmp	.+48     	; 0x35f0 <base+0x1d0>
    35c0:	ce 01       	movw	r24, r28
    35c2:	0e 94 f7 17 	call	0x2fee	; 0x2fee <next_token>
    35c6:	14 c0       	rjmp	.+40     	; 0x35f0 <base+0x1d0>
    35c8:	60 e0       	ldi	r22, 0x00	; 0
    35ca:	70 e0       	ldi	r23, 0x00	; 0
    35cc:	80 e0       	ldi	r24, 0x00	; 0
    35ce:	90 e0       	ldi	r25, 0x00	; 0
    35d0:	0e 94 67 17 	call	0x2ece	; 0x2ece <new_expr>
    35d4:	8c 01       	movw	r16, r24
    35d6:	89 e1       	ldi	r24, 0x19	; 25
    35d8:	90 e0       	ldi	r25, 0x00	; 0
    35da:	9d 83       	std	Y+5, r25	; 0x05
    35dc:	8c 83       	std	Y+4, r24	; 0x04
    35de:	80 e0       	ldi	r24, 0x00	; 0
    35e0:	90 e0       	ldi	r25, 0x00	; 0
    35e2:	a0 ec       	ldi	r26, 0xC0	; 192
    35e4:	bf e7       	ldi	r27, 0x7F	; 127
    35e6:	f8 01       	movw	r30, r16
    35e8:	82 83       	std	Z+2, r24	; 0x02
    35ea:	93 83       	std	Z+3, r25	; 0x03
    35ec:	a4 83       	std	Z+4, r26	; 0x04
    35ee:	b5 83       	std	Z+5, r27	; 0x05
    35f0:	c8 01       	movw	r24, r16
    35f2:	df 91       	pop	r29
    35f4:	cf 91       	pop	r28
    35f6:	1f 91       	pop	r17
    35f8:	0f 91       	pop	r16
    35fa:	ff 90       	pop	r15
    35fc:	ef 90       	pop	r14
    35fe:	df 90       	pop	r13
    3600:	cf 90       	pop	r12
    3602:	bf 90       	pop	r11
    3604:	af 90       	pop	r10
    3606:	08 95       	ret

00003608 <power>:
    3608:	ef 92       	push	r14
    360a:	ff 92       	push	r15
    360c:	0f 93       	push	r16
    360e:	1f 93       	push	r17
    3610:	cf 93       	push	r28
    3612:	df 93       	push	r29
    3614:	00 d0       	rcall	.+0      	; 0x3616 <power+0xe>
    3616:	cd b7       	in	r28, 0x3d	; 61
    3618:	de b7       	in	r29, 0x3e	; 62
    361a:	8c 01       	movw	r16, r24
    361c:	ee 24       	eor	r14, r14
    361e:	e3 94       	inc	r14
    3620:	f1 2c       	mov	r15, r1
    3622:	f8 01       	movw	r30, r16
    3624:	84 81       	ldd	r24, Z+4	; 0x04
    3626:	95 81       	ldd	r25, Z+5	; 0x05
    3628:	80 97       	sbiw	r24, 0x20	; 32
    362a:	39 f0       	breq	.+14     	; 0x363a <power+0x32>
    362c:	ea 94       	dec	r14
    362e:	ef 28       	or	r14, r15
    3630:	b1 f4       	brne	.+44     	; 0x365e <power+0x56>
    3632:	c8 01       	movw	r24, r16
    3634:	0e 94 10 1a 	call	0x3420	; 0x3420 <base>
    3638:	23 c0       	rjmp	.+70     	; 0x3680 <power+0x78>
    363a:	f8 01       	movw	r30, r16
    363c:	86 81       	ldd	r24, Z+6	; 0x06
    363e:	97 81       	ldd	r25, Z+7	; 0x07
    3640:	f6 e1       	ldi	r31, 0x16	; 22
    3642:	85 3d       	cpi	r24, 0xD5	; 213
    3644:	9f 07       	cpc	r25, r31
    3646:	21 f4       	brne	.+8      	; 0x3650 <power+0x48>
    3648:	c8 01       	movw	r24, r16
    364a:	0e 94 f7 17 	call	0x2fee	; 0x2fee <next_token>
    364e:	e9 cf       	rjmp	.-46     	; 0x3622 <power+0x1a>
    3650:	88 5d       	subi	r24, 0xD8	; 216
    3652:	96 41       	sbci	r25, 0x16	; 22
    3654:	59 f7       	brne	.-42     	; 0x362c <power+0x24>
    3656:	f1 94       	neg	r15
    3658:	e1 94       	neg	r14
    365a:	f1 08       	sbc	r15, r1
    365c:	f5 cf       	rjmp	.-22     	; 0x3648 <power+0x40>
    365e:	c8 01       	movw	r24, r16
    3660:	0e 94 10 1a 	call	0x3420	; 0x3420 <base>
    3664:	9a 83       	std	Y+2, r25	; 0x02
    3666:	89 83       	std	Y+1, r24	; 0x01
    3668:	be 01       	movw	r22, r28
    366a:	6f 5f       	subi	r22, 0xFF	; 255
    366c:	7f 4f       	sbci	r23, 0xFF	; 255
    366e:	89 e2       	ldi	r24, 0x29	; 41
    3670:	90 e0       	ldi	r25, 0x00	; 0
    3672:	0e 94 67 17 	call	0x2ece	; 0x2ece <new_expr>
    3676:	22 e6       	ldi	r18, 0x62	; 98
    3678:	37 e1       	ldi	r19, 0x17	; 23
    367a:	fc 01       	movw	r30, r24
    367c:	33 83       	std	Z+3, r19	; 0x03
    367e:	22 83       	std	Z+2, r18	; 0x02
    3680:	0f 90       	pop	r0
    3682:	0f 90       	pop	r0
    3684:	df 91       	pop	r29
    3686:	cf 91       	pop	r28
    3688:	1f 91       	pop	r17
    368a:	0f 91       	pop	r16
    368c:	ff 90       	pop	r15
    368e:	ef 90       	pop	r14
    3690:	08 95       	ret

00003692 <factor>:
    3692:	cf 92       	push	r12
    3694:	df 92       	push	r13
    3696:	ef 92       	push	r14
    3698:	ff 92       	push	r15
    369a:	0f 93       	push	r16
    369c:	1f 93       	push	r17
    369e:	cf 93       	push	r28
    36a0:	df 93       	push	r29
    36a2:	00 d0       	rcall	.+0      	; 0x36a4 <factor+0x12>
    36a4:	00 d0       	rcall	.+0      	; 0x36a6 <factor+0x14>
    36a6:	cd b7       	in	r28, 0x3d	; 61
    36a8:	de b7       	in	r29, 0x3e	; 62
    36aa:	8c 01       	movw	r16, r24
    36ac:	0e 94 04 1b 	call	0x3608	; 0x3608 <power>
    36b0:	7c 01       	movw	r14, r24
    36b2:	f8 01       	movw	r30, r16
    36b4:	84 81       	ldd	r24, Z+4	; 0x04
    36b6:	95 81       	ldd	r25, Z+5	; 0x05
    36b8:	80 97       	sbiw	r24, 0x20	; 32
    36ba:	e9 f4       	brne	.+58     	; 0x36f6 <factor+0x64>
    36bc:	c6 80       	ldd	r12, Z+6	; 0x06
    36be:	d7 80       	ldd	r13, Z+7	; 0x07
    36c0:	f4 ea       	ldi	r31, 0xA4	; 164
    36c2:	cf 16       	cp	r12, r31
    36c4:	f8 e2       	ldi	r31, 0x28	; 40
    36c6:	df 06       	cpc	r13, r31
    36c8:	b1 f4       	brne	.+44     	; 0x36f6 <factor+0x64>
    36ca:	c8 01       	movw	r24, r16
    36cc:	0e 94 f7 17 	call	0x2fee	; 0x2fee <next_token>
    36d0:	fa 82       	std	Y+2, r15	; 0x02
    36d2:	e9 82       	std	Y+1, r14	; 0x01
    36d4:	c8 01       	movw	r24, r16
    36d6:	0e 94 04 1b 	call	0x3608	; 0x3608 <power>
    36da:	9c 83       	std	Y+4, r25	; 0x04
    36dc:	8b 83       	std	Y+3, r24	; 0x03
    36de:	be 01       	movw	r22, r28
    36e0:	6f 5f       	subi	r22, 0xFF	; 255
    36e2:	7f 4f       	sbci	r23, 0xFF	; 255
    36e4:	8a e2       	ldi	r24, 0x2A	; 42
    36e6:	90 e0       	ldi	r25, 0x00	; 0
    36e8:	0e 94 67 17 	call	0x2ece	; 0x2ece <new_expr>
    36ec:	7c 01       	movw	r14, r24
    36ee:	fc 01       	movw	r30, r24
    36f0:	d3 82       	std	Z+3, r13	; 0x03
    36f2:	c2 82       	std	Z+2, r12	; 0x02
    36f4:	de cf       	rjmp	.-68     	; 0x36b2 <factor+0x20>
    36f6:	c7 01       	movw	r24, r14
    36f8:	0f 90       	pop	r0
    36fa:	0f 90       	pop	r0
    36fc:	0f 90       	pop	r0
    36fe:	0f 90       	pop	r0
    3700:	df 91       	pop	r29
    3702:	cf 91       	pop	r28
    3704:	1f 91       	pop	r17
    3706:	0f 91       	pop	r16
    3708:	ff 90       	pop	r15
    370a:	ef 90       	pop	r14
    370c:	df 90       	pop	r13
    370e:	cf 90       	pop	r12
    3710:	08 95       	ret

00003712 <term>:
    3712:	cf 92       	push	r12
    3714:	df 92       	push	r13
    3716:	ef 92       	push	r14
    3718:	ff 92       	push	r15
    371a:	0f 93       	push	r16
    371c:	1f 93       	push	r17
    371e:	cf 93       	push	r28
    3720:	df 93       	push	r29
    3722:	00 d0       	rcall	.+0      	; 0x3724 <term+0x12>
    3724:	00 d0       	rcall	.+0      	; 0x3726 <term+0x14>
    3726:	cd b7       	in	r28, 0x3d	; 61
    3728:	de b7       	in	r29, 0x3e	; 62
    372a:	8c 01       	movw	r16, r24
    372c:	0e 94 49 1b 	call	0x3692	; 0x3692 <factor>
    3730:	7c 01       	movw	r14, r24
    3732:	f8 01       	movw	r30, r16
    3734:	84 81       	ldd	r24, Z+4	; 0x04
    3736:	95 81       	ldd	r25, Z+5	; 0x05
    3738:	80 97       	sbiw	r24, 0x20	; 32
    373a:	39 f5       	brne	.+78     	; 0x378a <term+0x78>
    373c:	c6 80       	ldd	r12, Z+6	; 0x06
    373e:	d7 80       	ldd	r13, Z+7	; 0x07
    3740:	fb ed       	ldi	r31, 0xDB	; 219
    3742:	cf 16       	cp	r12, r31
    3744:	f6 e1       	ldi	r31, 0x16	; 22
    3746:	df 06       	cpc	r13, r31
    3748:	b1 f4       	brne	.+44     	; 0x3776 <term+0x64>
    374a:	c8 01       	movw	r24, r16
    374c:	0e 94 f7 17 	call	0x2fee	; 0x2fee <next_token>
    3750:	fa 82       	std	Y+2, r15	; 0x02
    3752:	e9 82       	std	Y+1, r14	; 0x01
    3754:	c8 01       	movw	r24, r16
    3756:	0e 94 49 1b 	call	0x3692	; 0x3692 <factor>
    375a:	9c 83       	std	Y+4, r25	; 0x04
    375c:	8b 83       	std	Y+3, r24	; 0x03
    375e:	be 01       	movw	r22, r28
    3760:	6f 5f       	subi	r22, 0xFF	; 255
    3762:	7f 4f       	sbci	r23, 0xFF	; 255
    3764:	8a e2       	ldi	r24, 0x2A	; 42
    3766:	90 e0       	ldi	r25, 0x00	; 0
    3768:	0e 94 67 17 	call	0x2ece	; 0x2ece <new_expr>
    376c:	7c 01       	movw	r14, r24
    376e:	fc 01       	movw	r30, r24
    3770:	d3 82       	std	Z+3, r13	; 0x03
    3772:	c2 82       	std	Z+2, r12	; 0x02
    3774:	de cf       	rjmp	.-68     	; 0x3732 <term+0x20>
    3776:	8e ed       	ldi	r24, 0xDE	; 222
    3778:	c8 16       	cp	r12, r24
    377a:	86 e1       	ldi	r24, 0x16	; 22
    377c:	d8 06       	cpc	r13, r24
    377e:	29 f3       	breq	.-54     	; 0x374a <term+0x38>
    3780:	e6 e1       	ldi	r30, 0x16	; 22
    3782:	ce 16       	cp	r12, r30
    3784:	e7 e2       	ldi	r30, 0x27	; 39
    3786:	de 06       	cpc	r13, r30
    3788:	01 f3       	breq	.-64     	; 0x374a <term+0x38>
    378a:	c7 01       	movw	r24, r14
    378c:	0f 90       	pop	r0
    378e:	0f 90       	pop	r0
    3790:	0f 90       	pop	r0
    3792:	0f 90       	pop	r0
    3794:	df 91       	pop	r29
    3796:	cf 91       	pop	r28
    3798:	1f 91       	pop	r17
    379a:	0f 91       	pop	r16
    379c:	ff 90       	pop	r15
    379e:	ef 90       	pop	r14
    37a0:	df 90       	pop	r13
    37a2:	cf 90       	pop	r12
    37a4:	08 95       	ret

000037a6 <expr3>:
    37a6:	cf 92       	push	r12
    37a8:	df 92       	push	r13
    37aa:	ef 92       	push	r14
    37ac:	ff 92       	push	r15
    37ae:	0f 93       	push	r16
    37b0:	1f 93       	push	r17
    37b2:	cf 93       	push	r28
    37b4:	df 93       	push	r29
    37b6:	00 d0       	rcall	.+0      	; 0x37b8 <expr3+0x12>
    37b8:	00 d0       	rcall	.+0      	; 0x37ba <expr3+0x14>
    37ba:	cd b7       	in	r28, 0x3d	; 61
    37bc:	de b7       	in	r29, 0x3e	; 62
    37be:	8c 01       	movw	r16, r24
    37c0:	0e 94 89 1b 	call	0x3712	; 0x3712 <term>
    37c4:	7c 01       	movw	r14, r24
    37c6:	f8 01       	movw	r30, r16
    37c8:	84 81       	ldd	r24, Z+4	; 0x04
    37ca:	95 81       	ldd	r25, Z+5	; 0x05
    37cc:	80 97       	sbiw	r24, 0x20	; 32
    37ce:	11 f5       	brne	.+68     	; 0x3814 <expr3+0x6e>
    37d0:	c6 80       	ldd	r12, Z+6	; 0x06
    37d2:	d7 80       	ldd	r13, Z+7	; 0x07
    37d4:	f5 ed       	ldi	r31, 0xD5	; 213
    37d6:	cf 16       	cp	r12, r31
    37d8:	f6 e1       	ldi	r31, 0x16	; 22
    37da:	df 06       	cpc	r13, r31
    37dc:	b1 f4       	brne	.+44     	; 0x380a <expr3+0x64>
    37de:	c8 01       	movw	r24, r16
    37e0:	0e 94 f7 17 	call	0x2fee	; 0x2fee <next_token>
    37e4:	fa 82       	std	Y+2, r15	; 0x02
    37e6:	e9 82       	std	Y+1, r14	; 0x01
    37e8:	c8 01       	movw	r24, r16
    37ea:	0e 94 89 1b 	call	0x3712	; 0x3712 <term>
    37ee:	9c 83       	std	Y+4, r25	; 0x04
    37f0:	8b 83       	std	Y+3, r24	; 0x03
    37f2:	be 01       	movw	r22, r28
    37f4:	6f 5f       	subi	r22, 0xFF	; 255
    37f6:	7f 4f       	sbci	r23, 0xFF	; 255
    37f8:	8a e2       	ldi	r24, 0x2A	; 42
    37fa:	90 e0       	ldi	r25, 0x00	; 0
    37fc:	0e 94 67 17 	call	0x2ece	; 0x2ece <new_expr>
    3800:	7c 01       	movw	r14, r24
    3802:	fc 01       	movw	r30, r24
    3804:	d3 82       	std	Z+3, r13	; 0x03
    3806:	c2 82       	std	Z+2, r12	; 0x02
    3808:	de cf       	rjmp	.-68     	; 0x37c6 <expr3+0x20>
    380a:	88 ed       	ldi	r24, 0xD8	; 216
    380c:	c8 16       	cp	r12, r24
    380e:	86 e1       	ldi	r24, 0x16	; 22
    3810:	d8 06       	cpc	r13, r24
    3812:	29 f3       	breq	.-54     	; 0x37de <expr3+0x38>
    3814:	c7 01       	movw	r24, r14
    3816:	0f 90       	pop	r0
    3818:	0f 90       	pop	r0
    381a:	0f 90       	pop	r0
    381c:	0f 90       	pop	r0
    381e:	df 91       	pop	r29
    3820:	cf 91       	pop	r28
    3822:	1f 91       	pop	r17
    3824:	0f 91       	pop	r16
    3826:	ff 90       	pop	r15
    3828:	ef 90       	pop	r14
    382a:	df 90       	pop	r13
    382c:	cf 90       	pop	r12
    382e:	08 95       	ret

00003830 <expr2>:
    3830:	cf 92       	push	r12
    3832:	df 92       	push	r13
    3834:	ef 92       	push	r14
    3836:	ff 92       	push	r15
    3838:	0f 93       	push	r16
    383a:	1f 93       	push	r17
    383c:	cf 93       	push	r28
    383e:	df 93       	push	r29
    3840:	00 d0       	rcall	.+0      	; 0x3842 <expr2+0x12>
    3842:	00 d0       	rcall	.+0      	; 0x3844 <expr2+0x14>
    3844:	cd b7       	in	r28, 0x3d	; 61
    3846:	de b7       	in	r29, 0x3e	; 62
    3848:	8c 01       	movw	r16, r24
    384a:	0e 94 d3 1b 	call	0x37a6	; 0x37a6 <expr3>
    384e:	7c 01       	movw	r14, r24
    3850:	f8 01       	movw	r30, r16
    3852:	84 81       	ldd	r24, Z+4	; 0x04
    3854:	95 81       	ldd	r25, Z+5	; 0x05
    3856:	80 97       	sbiw	r24, 0x20	; 32
    3858:	39 f5       	brne	.+78     	; 0x38a8 <expr2+0x78>
    385a:	c6 80       	ldd	r12, Z+6	; 0x06
    385c:	d7 80       	ldd	r13, Z+7	; 0x07
    385e:	fb ef       	ldi	r31, 0xFB	; 251
    3860:	cf 16       	cp	r12, r31
    3862:	f6 e1       	ldi	r31, 0x16	; 22
    3864:	df 06       	cpc	r13, r31
    3866:	b1 f4       	brne	.+44     	; 0x3894 <expr2+0x64>
    3868:	c8 01       	movw	r24, r16
    386a:	0e 94 f7 17 	call	0x2fee	; 0x2fee <next_token>
    386e:	fa 82       	std	Y+2, r15	; 0x02
    3870:	e9 82       	std	Y+1, r14	; 0x01
    3872:	c8 01       	movw	r24, r16
    3874:	0e 94 d3 1b 	call	0x37a6	; 0x37a6 <expr3>
    3878:	9c 83       	std	Y+4, r25	; 0x04
    387a:	8b 83       	std	Y+3, r24	; 0x03
    387c:	be 01       	movw	r22, r28
    387e:	6f 5f       	subi	r22, 0xFF	; 255
    3880:	7f 4f       	sbci	r23, 0xFF	; 255
    3882:	8a e2       	ldi	r24, 0x2A	; 42
    3884:	90 e0       	ldi	r25, 0x00	; 0
    3886:	0e 94 67 17 	call	0x2ece	; 0x2ece <new_expr>
    388a:	7c 01       	movw	r14, r24
    388c:	fc 01       	movw	r30, r24
    388e:	d3 82       	std	Z+3, r13	; 0x03
    3890:	c2 82       	std	Z+2, r12	; 0x02
    3892:	de cf       	rjmp	.-68     	; 0x3850 <expr2+0x20>
    3894:	81 ee       	ldi	r24, 0xE1	; 225
    3896:	c8 16       	cp	r12, r24
    3898:	86 e1       	ldi	r24, 0x16	; 22
    389a:	d8 06       	cpc	r13, r24
    389c:	29 f3       	breq	.-54     	; 0x3868 <expr2+0x38>
    389e:	ee ee       	ldi	r30, 0xEE	; 238
    38a0:	ce 16       	cp	r12, r30
    38a2:	e6 e1       	ldi	r30, 0x16	; 22
    38a4:	de 06       	cpc	r13, r30
    38a6:	01 f3       	breq	.-64     	; 0x3868 <expr2+0x38>
    38a8:	c7 01       	movw	r24, r14
    38aa:	0f 90       	pop	r0
    38ac:	0f 90       	pop	r0
    38ae:	0f 90       	pop	r0
    38b0:	0f 90       	pop	r0
    38b2:	df 91       	pop	r29
    38b4:	cf 91       	pop	r28
    38b6:	1f 91       	pop	r17
    38b8:	0f 91       	pop	r16
    38ba:	ff 90       	pop	r15
    38bc:	ef 90       	pop	r14
    38be:	df 90       	pop	r13
    38c0:	cf 90       	pop	r12
    38c2:	08 95       	ret

000038c4 <expr>:
    38c4:	cf 92       	push	r12
    38c6:	df 92       	push	r13
    38c8:	ef 92       	push	r14
    38ca:	ff 92       	push	r15
    38cc:	0f 93       	push	r16
    38ce:	1f 93       	push	r17
    38d0:	cf 93       	push	r28
    38d2:	df 93       	push	r29
    38d4:	00 d0       	rcall	.+0      	; 0x38d6 <expr+0x12>
    38d6:	00 d0       	rcall	.+0      	; 0x38d8 <expr+0x14>
    38d8:	cd b7       	in	r28, 0x3d	; 61
    38da:	de b7       	in	r29, 0x3e	; 62
    38dc:	8c 01       	movw	r16, r24
    38de:	0e 94 18 1c 	call	0x3830	; 0x3830 <expr2>
    38e2:	7c 01       	movw	r14, r24
    38e4:	f8 01       	movw	r30, r16
    38e6:	84 81       	ldd	r24, Z+4	; 0x04
    38e8:	95 81       	ldd	r25, Z+5	; 0x05
    38ea:	80 97       	sbiw	r24, 0x20	; 32
    38ec:	11 f5       	brne	.+68     	; 0x3932 <expr+0x6e>
    38ee:	c6 80       	ldd	r12, Z+6	; 0x06
    38f0:	d7 80       	ldd	r13, Z+7	; 0x07
    38f2:	f8 e0       	ldi	r31, 0x08	; 8
    38f4:	cf 16       	cp	r12, r31
    38f6:	f7 e1       	ldi	r31, 0x17	; 23
    38f8:	df 06       	cpc	r13, r31
    38fa:	b1 f4       	brne	.+44     	; 0x3928 <expr+0x64>
    38fc:	c8 01       	movw	r24, r16
    38fe:	0e 94 f7 17 	call	0x2fee	; 0x2fee <next_token>
    3902:	fa 82       	std	Y+2, r15	; 0x02
    3904:	e9 82       	std	Y+1, r14	; 0x01
    3906:	c8 01       	movw	r24, r16
    3908:	0e 94 18 1c 	call	0x3830	; 0x3830 <expr2>
    390c:	9c 83       	std	Y+4, r25	; 0x04
    390e:	8b 83       	std	Y+3, r24	; 0x03
    3910:	be 01       	movw	r22, r28
    3912:	6f 5f       	subi	r22, 0xFF	; 255
    3914:	7f 4f       	sbci	r23, 0xFF	; 255
    3916:	8a e2       	ldi	r24, 0x2A	; 42
    3918:	90 e0       	ldi	r25, 0x00	; 0
    391a:	0e 94 67 17 	call	0x2ece	; 0x2ece <new_expr>
    391e:	7c 01       	movw	r14, r24
    3920:	fc 01       	movw	r30, r24
    3922:	d3 82       	std	Z+3, r13	; 0x03
    3924:	c2 82       	std	Z+2, r12	; 0x02
    3926:	de cf       	rjmp	.-68     	; 0x38e4 <expr+0x20>
    3928:	85 e3       	ldi	r24, 0x35	; 53
    392a:	c8 16       	cp	r12, r24
    392c:	87 e1       	ldi	r24, 0x17	; 23
    392e:	d8 06       	cpc	r13, r24
    3930:	29 f3       	breq	.-54     	; 0x38fc <expr+0x38>
    3932:	c7 01       	movw	r24, r14
    3934:	0f 90       	pop	r0
    3936:	0f 90       	pop	r0
    3938:	0f 90       	pop	r0
    393a:	0f 90       	pop	r0
    393c:	df 91       	pop	r29
    393e:	cf 91       	pop	r28
    3940:	1f 91       	pop	r17
    3942:	0f 91       	pop	r16
    3944:	ff 90       	pop	r15
    3946:	ef 90       	pop	r14
    3948:	df 90       	pop	r13
    394a:	cf 90       	pop	r12
    394c:	08 95       	ret

0000394e <te_eval>:
    394e:	2f 92       	push	r2
    3950:	3f 92       	push	r3
    3952:	4f 92       	push	r4
    3954:	5f 92       	push	r5
    3956:	6f 92       	push	r6
    3958:	7f 92       	push	r7
    395a:	8f 92       	push	r8
    395c:	9f 92       	push	r9
    395e:	af 92       	push	r10
    3960:	bf 92       	push	r11
    3962:	cf 92       	push	r12
    3964:	df 92       	push	r13
    3966:	ef 92       	push	r14
    3968:	ff 92       	push	r15
    396a:	0f 93       	push	r16
    396c:	1f 93       	push	r17
    396e:	cf 93       	push	r28
    3970:	df 93       	push	r29
    3972:	cd b7       	in	r28, 0x3d	; 61
    3974:	de b7       	in	r29, 0x3e	; 62
    3976:	2f 97       	sbiw	r28, 0x0f	; 15
    3978:	0f b6       	in	r0, 0x3f	; 63
    397a:	f8 94       	cli
    397c:	de bf       	out	0x3e, r29	; 62
    397e:	0f be       	out	0x3f, r0	; 63
    3980:	cd bf       	out	0x3d, r28	; 61
    3982:	00 97       	sbiw	r24, 0x00	; 0
    3984:	09 f4       	brne	.+2      	; 0x3988 <te_eval+0x3a>
    3986:	91 c3       	rjmp	.+1826   	; 0x40aa <te_eval+0x75c>
    3988:	9f 87       	std	Y+15, r25	; 0x0f
    398a:	8e 87       	std	Y+14, r24	; 0x0e
    398c:	dc 01       	movw	r26, r24
    398e:	ed 91       	ld	r30, X+
    3990:	fc 91       	ld	r31, X
    3992:	cf 01       	movw	r24, r30
    3994:	8f 71       	andi	r24, 0x1F	; 31
    3996:	99 27       	eor	r25, r25
    3998:	80 31       	cpi	r24, 0x10	; 16
    399a:	91 05       	cpc	r25, r1
    399c:	7c f4       	brge	.+30     	; 0x39bc <te_eval+0x6e>
    399e:	88 30       	cpi	r24, 0x08	; 8
    39a0:	91 05       	cpc	r25, r1
    39a2:	dc f4       	brge	.+54     	; 0x39da <te_eval+0x8c>
    39a4:	00 97       	sbiw	r24, 0x00	; 0
    39a6:	71 f0       	breq	.+28     	; 0x39c4 <te_eval+0x76>
    39a8:	01 97       	sbiw	r24, 0x01	; 1
    39aa:	09 f0       	breq	.+2      	; 0x39ae <te_eval+0x60>
    39ac:	7e c3       	rjmp	.+1788   	; 0x40aa <te_eval+0x75c>
    39ae:	ee 85       	ldd	r30, Y+14	; 0x0e
    39b0:	ff 85       	ldd	r31, Y+15	; 0x0f
    39b2:	62 81       	ldd	r22, Z+2	; 0x02
    39b4:	73 81       	ldd	r23, Z+3	; 0x03
    39b6:	84 81       	ldd	r24, Z+4	; 0x04
    39b8:	95 81       	ldd	r25, Z+5	; 0x05
    39ba:	7b c3       	rjmp	.+1782   	; 0x40b2 <te_eval+0x764>
    39bc:	48 97       	sbiw	r24, 0x18	; 24
    39be:	0c f4       	brge	.+2      	; 0x39c2 <te_eval+0x74>
    39c0:	ae c1       	rjmp	.+860    	; 0x3d1e <te_eval+0x3d0>
    39c2:	73 c3       	rjmp	.+1766   	; 0x40aa <te_eval+0x75c>
    39c4:	ae 85       	ldd	r26, Y+14	; 0x0e
    39c6:	bf 85       	ldd	r27, Y+15	; 0x0f
    39c8:	12 96       	adiw	r26, 0x02	; 2
    39ca:	ed 91       	ld	r30, X+
    39cc:	fc 91       	ld	r31, X
    39ce:	13 97       	sbiw	r26, 0x03	; 3
    39d0:	60 81       	ld	r22, Z
    39d2:	71 81       	ldd	r23, Z+1	; 0x01
    39d4:	82 81       	ldd	r24, Z+2	; 0x02
    39d6:	93 81       	ldd	r25, Z+3	; 0x03
    39d8:	6c c3       	rjmp	.+1752   	; 0x40b2 <te_eval+0x764>
    39da:	ae 85       	ldd	r26, Y+14	; 0x0e
    39dc:	bf 85       	ldd	r27, Y+15	; 0x0f
    39de:	12 96       	adiw	r26, 0x02	; 2
    39e0:	2d 90       	ld	r2, X+
    39e2:	3c 90       	ld	r3, X
    39e4:	13 97       	sbiw	r26, 0x03	; 3
    39e6:	cf 01       	movw	r24, r30
    39e8:	88 71       	andi	r24, 0x18	; 24
    39ea:	99 27       	eor	r25, r25
    39ec:	89 2b       	or	r24, r25
    39ee:	61 f0       	breq	.+24     	; 0x3a08 <te_eval+0xba>
    39f0:	e7 70       	andi	r30, 0x07	; 7
    39f2:	ff 27       	eor	r31, r31
    39f4:	31 97       	sbiw	r30, 0x01	; 1
    39f6:	e7 30       	cpi	r30, 0x07	; 7
    39f8:	f1 05       	cpc	r31, r1
    39fa:	30 f4       	brcc	.+12     	; 0x3a08 <te_eval+0xba>
    39fc:	e5 5a       	subi	r30, 0xA5	; 165
    39fe:	ff 4f       	sbci	r31, 0xFF	; 255
    3a00:	ae 85       	ldd	r26, Y+14	; 0x0e
    3a02:	bf 85       	ldd	r27, Y+15	; 0x0f
    3a04:	0c 94 01 2a 	jmp	0x5402	; 0x5402 <__tablejump2__>
    3a08:	f1 01       	movw	r30, r2
    3a0a:	2f 96       	adiw	r28, 0x0f	; 15
    3a0c:	0f b6       	in	r0, 0x3f	; 63
    3a0e:	f8 94       	cli
    3a10:	de bf       	out	0x3e, r29	; 62
    3a12:	0f be       	out	0x3f, r0	; 63
    3a14:	cd bf       	out	0x3d, r28	; 61
    3a16:	df 91       	pop	r29
    3a18:	cf 91       	pop	r28
    3a1a:	1f 91       	pop	r17
    3a1c:	0f 91       	pop	r16
    3a1e:	ff 90       	pop	r15
    3a20:	ef 90       	pop	r14
    3a22:	df 90       	pop	r13
    3a24:	cf 90       	pop	r12
    3a26:	bf 90       	pop	r11
    3a28:	af 90       	pop	r10
    3a2a:	9f 90       	pop	r9
    3a2c:	8f 90       	pop	r8
    3a2e:	7f 90       	pop	r7
    3a30:	6f 90       	pop	r6
    3a32:	5f 90       	pop	r5
    3a34:	4f 90       	pop	r4
    3a36:	3f 90       	pop	r3
    3a38:	2f 90       	pop	r2
    3a3a:	09 94       	ijmp
    3a3c:	16 96       	adiw	r26, 0x06	; 6
    3a3e:	8d 91       	ld	r24, X+
    3a40:	9c 91       	ld	r25, X
    3a42:	17 97       	sbiw	r26, 0x07	; 7
    3a44:	0e 94 a7 1c 	call	0x394e	; 0x394e <te_eval>
    3a48:	f1 01       	movw	r30, r2
    3a4a:	2f 96       	adiw	r28, 0x0f	; 15
    3a4c:	0f b6       	in	r0, 0x3f	; 63
    3a4e:	f8 94       	cli
    3a50:	de bf       	out	0x3e, r29	; 62
    3a52:	0f be       	out	0x3f, r0	; 63
    3a54:	cd bf       	out	0x3d, r28	; 61
    3a56:	df 91       	pop	r29
    3a58:	cf 91       	pop	r28
    3a5a:	1f 91       	pop	r17
    3a5c:	0f 91       	pop	r16
    3a5e:	ff 90       	pop	r15
    3a60:	ef 90       	pop	r14
    3a62:	df 90       	pop	r13
    3a64:	cf 90       	pop	r12
    3a66:	bf 90       	pop	r11
    3a68:	af 90       	pop	r10
    3a6a:	9f 90       	pop	r9
    3a6c:	8f 90       	pop	r8
    3a6e:	7f 90       	pop	r7
    3a70:	6f 90       	pop	r6
    3a72:	5f 90       	pop	r5
    3a74:	4f 90       	pop	r4
    3a76:	3f 90       	pop	r3
    3a78:	2f 90       	pop	r2
    3a7a:	09 94       	ijmp
    3a7c:	18 96       	adiw	r26, 0x08	; 8
    3a7e:	8d 91       	ld	r24, X+
    3a80:	9c 91       	ld	r25, X
    3a82:	19 97       	sbiw	r26, 0x09	; 9
    3a84:	0e 94 a7 1c 	call	0x394e	; 0x394e <te_eval>
    3a88:	6b 01       	movw	r12, r22
    3a8a:	7c 01       	movw	r14, r24
    3a8c:	ee 85       	ldd	r30, Y+14	; 0x0e
    3a8e:	ff 85       	ldd	r31, Y+15	; 0x0f
    3a90:	86 81       	ldd	r24, Z+6	; 0x06
    3a92:	97 81       	ldd	r25, Z+7	; 0x07
    3a94:	0e 94 a7 1c 	call	0x394e	; 0x394e <te_eval>
    3a98:	a7 01       	movw	r20, r14
    3a9a:	96 01       	movw	r18, r12
    3a9c:	f1 01       	movw	r30, r2
    3a9e:	2f 96       	adiw	r28, 0x0f	; 15
    3aa0:	0f b6       	in	r0, 0x3f	; 63
    3aa2:	f8 94       	cli
    3aa4:	de bf       	out	0x3e, r29	; 62
    3aa6:	0f be       	out	0x3f, r0	; 63
    3aa8:	cd bf       	out	0x3d, r28	; 61
    3aaa:	df 91       	pop	r29
    3aac:	cf 91       	pop	r28
    3aae:	1f 91       	pop	r17
    3ab0:	0f 91       	pop	r16
    3ab2:	ff 90       	pop	r15
    3ab4:	ef 90       	pop	r14
    3ab6:	df 90       	pop	r13
    3ab8:	cf 90       	pop	r12
    3aba:	bf 90       	pop	r11
    3abc:	af 90       	pop	r10
    3abe:	9f 90       	pop	r9
    3ac0:	8f 90       	pop	r8
    3ac2:	7f 90       	pop	r7
    3ac4:	6f 90       	pop	r6
    3ac6:	5f 90       	pop	r5
    3ac8:	4f 90       	pop	r4
    3aca:	3f 90       	pop	r3
    3acc:	2f 90       	pop	r2
    3ace:	09 94       	ijmp
    3ad0:	1a 96       	adiw	r26, 0x0a	; 10
    3ad2:	8d 91       	ld	r24, X+
    3ad4:	9c 91       	ld	r25, X
    3ad6:	1b 97       	sbiw	r26, 0x0b	; 11
    3ad8:	0e 94 a7 1c 	call	0x394e	; 0x394e <te_eval>
    3adc:	6b 01       	movw	r12, r22
    3ade:	7c 01       	movw	r14, r24
    3ae0:	ee 85       	ldd	r30, Y+14	; 0x0e
    3ae2:	ff 85       	ldd	r31, Y+15	; 0x0f
    3ae4:	80 85       	ldd	r24, Z+8	; 0x08
    3ae6:	91 85       	ldd	r25, Z+9	; 0x09
    3ae8:	0e 94 a7 1c 	call	0x394e	; 0x394e <te_eval>
    3aec:	4b 01       	movw	r8, r22
    3aee:	5c 01       	movw	r10, r24
    3af0:	ae 85       	ldd	r26, Y+14	; 0x0e
    3af2:	bf 85       	ldd	r27, Y+15	; 0x0f
    3af4:	16 96       	adiw	r26, 0x06	; 6
    3af6:	8d 91       	ld	r24, X+
    3af8:	9c 91       	ld	r25, X
    3afa:	17 97       	sbiw	r26, 0x07	; 7
    3afc:	0e 94 a7 1c 	call	0x394e	; 0x394e <te_eval>
    3b00:	87 01       	movw	r16, r14
    3b02:	76 01       	movw	r14, r12
    3b04:	a5 01       	movw	r20, r10
    3b06:	94 01       	movw	r18, r8
    3b08:	f1 01       	movw	r30, r2
    3b0a:	09 95       	icall
    3b0c:	d2 c2       	rjmp	.+1444   	; 0x40b2 <te_eval+0x764>
    3b0e:	1c 96       	adiw	r26, 0x0c	; 12
    3b10:	8d 91       	ld	r24, X+
    3b12:	9c 91       	ld	r25, X
    3b14:	1d 97       	sbiw	r26, 0x0d	; 13
    3b16:	0e 94 a7 1c 	call	0x394e	; 0x394e <te_eval>
    3b1a:	5b 01       	movw	r10, r22
    3b1c:	6c 01       	movw	r12, r24
    3b1e:	ee 85       	ldd	r30, Y+14	; 0x0e
    3b20:	ff 85       	ldd	r31, Y+15	; 0x0f
    3b22:	82 85       	ldd	r24, Z+10	; 0x0a
    3b24:	93 85       	ldd	r25, Z+11	; 0x0b
    3b26:	0e 94 a7 1c 	call	0x394e	; 0x394e <te_eval>
    3b2a:	69 83       	std	Y+1, r22	; 0x01
    3b2c:	7a 83       	std	Y+2, r23	; 0x02
    3b2e:	8b 83       	std	Y+3, r24	; 0x03
    3b30:	9c 83       	std	Y+4, r25	; 0x04
    3b32:	ae 85       	ldd	r26, Y+14	; 0x0e
    3b34:	bf 85       	ldd	r27, Y+15	; 0x0f
    3b36:	18 96       	adiw	r26, 0x08	; 8
    3b38:	8d 91       	ld	r24, X+
    3b3a:	9c 91       	ld	r25, X
    3b3c:	19 97       	sbiw	r26, 0x09	; 9
    3b3e:	0e 94 a7 1c 	call	0x394e	; 0x394e <te_eval>
    3b42:	2b 01       	movw	r4, r22
    3b44:	3c 01       	movw	r6, r24
    3b46:	ee 85       	ldd	r30, Y+14	; 0x0e
    3b48:	ff 85       	ldd	r31, Y+15	; 0x0f
    3b4a:	86 81       	ldd	r24, Z+6	; 0x06
    3b4c:	97 81       	ldd	r25, Z+7	; 0x07
    3b4e:	0e 94 a7 1c 	call	0x394e	; 0x394e <te_eval>
    3b52:	e9 80       	ldd	r14, Y+1	; 0x01
    3b54:	fa 80       	ldd	r15, Y+2	; 0x02
    3b56:	0b 81       	ldd	r16, Y+3	; 0x03
    3b58:	1c 81       	ldd	r17, Y+4	; 0x04
    3b5a:	a3 01       	movw	r20, r6
    3b5c:	92 01       	movw	r18, r4
    3b5e:	f1 01       	movw	r30, r2
    3b60:	09 95       	icall
    3b62:	a7 c2       	rjmp	.+1358   	; 0x40b2 <te_eval+0x764>
    3b64:	1e 96       	adiw	r26, 0x0e	; 14
    3b66:	8d 91       	ld	r24, X+
    3b68:	9c 91       	ld	r25, X
    3b6a:	1f 97       	sbiw	r26, 0x0f	; 15
    3b6c:	0e 94 a7 1c 	call	0x394e	; 0x394e <te_eval>
    3b70:	7b 01       	movw	r14, r22
    3b72:	8c 01       	movw	r16, r24
    3b74:	ee 85       	ldd	r30, Y+14	; 0x0e
    3b76:	ff 85       	ldd	r31, Y+15	; 0x0f
    3b78:	84 85       	ldd	r24, Z+12	; 0x0c
    3b7a:	95 85       	ldd	r25, Z+13	; 0x0d
    3b7c:	0e 94 a7 1c 	call	0x394e	; 0x394e <te_eval>
    3b80:	5b 01       	movw	r10, r22
    3b82:	6c 01       	movw	r12, r24
    3b84:	ae 85       	ldd	r26, Y+14	; 0x0e
    3b86:	bf 85       	ldd	r27, Y+15	; 0x0f
    3b88:	1a 96       	adiw	r26, 0x0a	; 10
    3b8a:	8d 91       	ld	r24, X+
    3b8c:	9c 91       	ld	r25, X
    3b8e:	1b 97       	sbiw	r26, 0x0b	; 11
    3b90:	0e 94 a7 1c 	call	0x394e	; 0x394e <te_eval>
    3b94:	69 83       	std	Y+1, r22	; 0x01
    3b96:	7a 83       	std	Y+2, r23	; 0x02
    3b98:	8b 83       	std	Y+3, r24	; 0x03
    3b9a:	9c 83       	std	Y+4, r25	; 0x04
    3b9c:	ee 85       	ldd	r30, Y+14	; 0x0e
    3b9e:	ff 85       	ldd	r31, Y+15	; 0x0f
    3ba0:	80 85       	ldd	r24, Z+8	; 0x08
    3ba2:	91 85       	ldd	r25, Z+9	; 0x09
    3ba4:	0e 94 a7 1c 	call	0x394e	; 0x394e <te_eval>
    3ba8:	2b 01       	movw	r4, r22
    3baa:	3c 01       	movw	r6, r24
    3bac:	ae 85       	ldd	r26, Y+14	; 0x0e
    3bae:	bf 85       	ldd	r27, Y+15	; 0x0f
    3bb0:	16 96       	adiw	r26, 0x06	; 6
    3bb2:	8d 91       	ld	r24, X+
    3bb4:	9c 91       	ld	r25, X
    3bb6:	17 97       	sbiw	r26, 0x07	; 7
    3bb8:	0e 94 a7 1c 	call	0x394e	; 0x394e <te_eval>
    3bbc:	1f 93       	push	r17
    3bbe:	0f 93       	push	r16
    3bc0:	ff 92       	push	r15
    3bc2:	ef 92       	push	r14
    3bc4:	e9 80       	ldd	r14, Y+1	; 0x01
    3bc6:	fa 80       	ldd	r15, Y+2	; 0x02
    3bc8:	0b 81       	ldd	r16, Y+3	; 0x03
    3bca:	1c 81       	ldd	r17, Y+4	; 0x04
    3bcc:	a3 01       	movw	r20, r6
    3bce:	92 01       	movw	r18, r4
    3bd0:	f1 01       	movw	r30, r2
    3bd2:	09 95       	icall
    3bd4:	ac c1       	rjmp	.+856    	; 0x3f2e <te_eval+0x5e0>
    3bd6:	50 96       	adiw	r26, 0x10	; 16
    3bd8:	8d 91       	ld	r24, X+
    3bda:	9c 91       	ld	r25, X
    3bdc:	51 97       	sbiw	r26, 0x11	; 17
    3bde:	0e 94 a7 1c 	call	0x394e	; 0x394e <te_eval>
    3be2:	7b 01       	movw	r14, r22
    3be4:	8c 01       	movw	r16, r24
    3be6:	ee 85       	ldd	r30, Y+14	; 0x0e
    3be8:	ff 85       	ldd	r31, Y+15	; 0x0f
    3bea:	86 85       	ldd	r24, Z+14	; 0x0e
    3bec:	97 85       	ldd	r25, Z+15	; 0x0f
    3bee:	0e 94 a7 1c 	call	0x394e	; 0x394e <te_eval>
    3bf2:	6d 83       	std	Y+5, r22	; 0x05
    3bf4:	79 87       	std	Y+9, r23	; 0x09
    3bf6:	4c 01       	movw	r8, r24
    3bf8:	ae 85       	ldd	r26, Y+14	; 0x0e
    3bfa:	bf 85       	ldd	r27, Y+15	; 0x0f
    3bfc:	1c 96       	adiw	r26, 0x0c	; 12
    3bfe:	8d 91       	ld	r24, X+
    3c00:	9c 91       	ld	r25, X
    3c02:	1d 97       	sbiw	r26, 0x0d	; 13
    3c04:	0e 94 a7 1c 	call	0x394e	; 0x394e <te_eval>
    3c08:	5b 01       	movw	r10, r22
    3c0a:	6c 01       	movw	r12, r24
    3c0c:	ee 85       	ldd	r30, Y+14	; 0x0e
    3c0e:	ff 85       	ldd	r31, Y+15	; 0x0f
    3c10:	82 85       	ldd	r24, Z+10	; 0x0a
    3c12:	93 85       	ldd	r25, Z+11	; 0x0b
    3c14:	0e 94 a7 1c 	call	0x394e	; 0x394e <te_eval>
    3c18:	69 83       	std	Y+1, r22	; 0x01
    3c1a:	7a 83       	std	Y+2, r23	; 0x02
    3c1c:	8b 83       	std	Y+3, r24	; 0x03
    3c1e:	9c 83       	std	Y+4, r25	; 0x04
    3c20:	ae 85       	ldd	r26, Y+14	; 0x0e
    3c22:	bf 85       	ldd	r27, Y+15	; 0x0f
    3c24:	18 96       	adiw	r26, 0x08	; 8
    3c26:	8d 91       	ld	r24, X+
    3c28:	9c 91       	ld	r25, X
    3c2a:	19 97       	sbiw	r26, 0x09	; 9
    3c2c:	0e 94 a7 1c 	call	0x394e	; 0x394e <te_eval>
    3c30:	2b 01       	movw	r4, r22
    3c32:	3c 01       	movw	r6, r24
    3c34:	ee 85       	ldd	r30, Y+14	; 0x0e
    3c36:	ff 85       	ldd	r31, Y+15	; 0x0f
    3c38:	86 81       	ldd	r24, Z+6	; 0x06
    3c3a:	97 81       	ldd	r25, Z+7	; 0x07
    3c3c:	0e 94 a7 1c 	call	0x394e	; 0x394e <te_eval>
    3c40:	1f 93       	push	r17
    3c42:	0f 93       	push	r16
    3c44:	ff 92       	push	r15
    3c46:	ef 92       	push	r14
    3c48:	9f 92       	push	r9
    3c4a:	8f 92       	push	r8
    3c4c:	f9 85       	ldd	r31, Y+9	; 0x09
    3c4e:	ff 93       	push	r31
    3c50:	2d 81       	ldd	r18, Y+5	; 0x05
    3c52:	2f 93       	push	r18
    3c54:	e9 80       	ldd	r14, Y+1	; 0x01
    3c56:	fa 80       	ldd	r15, Y+2	; 0x02
    3c58:	0b 81       	ldd	r16, Y+3	; 0x03
    3c5a:	1c 81       	ldd	r17, Y+4	; 0x04
    3c5c:	a3 01       	movw	r20, r6
    3c5e:	92 01       	movw	r18, r4
    3c60:	f1 01       	movw	r30, r2
    3c62:	09 95       	icall
    3c64:	1c c2       	rjmp	.+1080   	; 0x409e <te_eval+0x750>
    3c66:	52 96       	adiw	r26, 0x12	; 18
    3c68:	8d 91       	ld	r24, X+
    3c6a:	9c 91       	ld	r25, X
    3c6c:	53 97       	sbiw	r26, 0x13	; 19
    3c6e:	0e 94 a7 1c 	call	0x394e	; 0x394e <te_eval>
    3c72:	7b 01       	movw	r14, r22
    3c74:	8c 01       	movw	r16, r24
    3c76:	ee 85       	ldd	r30, Y+14	; 0x0e
    3c78:	ff 85       	ldd	r31, Y+15	; 0x0f
    3c7a:	80 89       	ldd	r24, Z+16	; 0x10
    3c7c:	91 89       	ldd	r25, Z+17	; 0x11
    3c7e:	0e 94 a7 1c 	call	0x394e	; 0x394e <te_eval>
    3c82:	6d 83       	std	Y+5, r22	; 0x05
    3c84:	79 87       	std	Y+9, r23	; 0x09
    3c86:	4c 01       	movw	r8, r24
    3c88:	ae 85       	ldd	r26, Y+14	; 0x0e
    3c8a:	bf 85       	ldd	r27, Y+15	; 0x0f
    3c8c:	1e 96       	adiw	r26, 0x0e	; 14
    3c8e:	8d 91       	ld	r24, X+
    3c90:	9c 91       	ld	r25, X
    3c92:	1f 97       	sbiw	r26, 0x0f	; 15
    3c94:	0e 94 a7 1c 	call	0x394e	; 0x394e <te_eval>
    3c98:	6a 87       	std	Y+10, r22	; 0x0a
    3c9a:	7b 87       	std	Y+11, r23	; 0x0b
    3c9c:	8c 87       	std	Y+12, r24	; 0x0c
    3c9e:	9d 87       	std	Y+13, r25	; 0x0d
    3ca0:	ee 85       	ldd	r30, Y+14	; 0x0e
    3ca2:	ff 85       	ldd	r31, Y+15	; 0x0f
    3ca4:	84 85       	ldd	r24, Z+12	; 0x0c
    3ca6:	95 85       	ldd	r25, Z+13	; 0x0d
    3ca8:	0e 94 a7 1c 	call	0x394e	; 0x394e <te_eval>
    3cac:	5b 01       	movw	r10, r22
    3cae:	6c 01       	movw	r12, r24
    3cb0:	ae 85       	ldd	r26, Y+14	; 0x0e
    3cb2:	bf 85       	ldd	r27, Y+15	; 0x0f
    3cb4:	1a 96       	adiw	r26, 0x0a	; 10
    3cb6:	8d 91       	ld	r24, X+
    3cb8:	9c 91       	ld	r25, X
    3cba:	1b 97       	sbiw	r26, 0x0b	; 11
    3cbc:	0e 94 a7 1c 	call	0x394e	; 0x394e <te_eval>
    3cc0:	69 83       	std	Y+1, r22	; 0x01
    3cc2:	7a 83       	std	Y+2, r23	; 0x02
    3cc4:	8b 83       	std	Y+3, r24	; 0x03
    3cc6:	9c 83       	std	Y+4, r25	; 0x04
    3cc8:	ee 85       	ldd	r30, Y+14	; 0x0e
    3cca:	ff 85       	ldd	r31, Y+15	; 0x0f
    3ccc:	80 85       	ldd	r24, Z+8	; 0x08
    3cce:	91 85       	ldd	r25, Z+9	; 0x09
    3cd0:	0e 94 a7 1c 	call	0x394e	; 0x394e <te_eval>
    3cd4:	2b 01       	movw	r4, r22
    3cd6:	3c 01       	movw	r6, r24
    3cd8:	ae 85       	ldd	r26, Y+14	; 0x0e
    3cda:	bf 85       	ldd	r27, Y+15	; 0x0f
    3cdc:	16 96       	adiw	r26, 0x06	; 6
    3cde:	8d 91       	ld	r24, X+
    3ce0:	9c 91       	ld	r25, X
    3ce2:	17 97       	sbiw	r26, 0x07	; 7
    3ce4:	0e 94 a7 1c 	call	0x394e	; 0x394e <te_eval>
    3ce8:	1f 93       	push	r17
    3cea:	0f 93       	push	r16
    3cec:	ff 92       	push	r15
    3cee:	ef 92       	push	r14
    3cf0:	9f 92       	push	r9
    3cf2:	8f 92       	push	r8
    3cf4:	b9 85       	ldd	r27, Y+9	; 0x09
    3cf6:	bf 93       	push	r27
    3cf8:	ed 81       	ldd	r30, Y+5	; 0x05
    3cfa:	ef 93       	push	r30
    3cfc:	fd 85       	ldd	r31, Y+13	; 0x0d
    3cfe:	ff 93       	push	r31
    3d00:	2c 85       	ldd	r18, Y+12	; 0x0c
    3d02:	2f 93       	push	r18
    3d04:	3b 85       	ldd	r19, Y+11	; 0x0b
    3d06:	3f 93       	push	r19
    3d08:	aa 85       	ldd	r26, Y+10	; 0x0a
    3d0a:	af 93       	push	r26
    3d0c:	e9 80       	ldd	r14, Y+1	; 0x01
    3d0e:	fa 80       	ldd	r15, Y+2	; 0x02
    3d10:	0b 81       	ldd	r16, Y+3	; 0x03
    3d12:	1c 81       	ldd	r17, Y+4	; 0x04
    3d14:	a3 01       	movw	r20, r6
    3d16:	92 01       	movw	r18, r4
    3d18:	f1 01       	movw	r30, r2
    3d1a:	09 95       	icall
    3d1c:	c0 c1       	rjmp	.+896    	; 0x409e <te_eval+0x750>
    3d1e:	ae 85       	ldd	r26, Y+14	; 0x0e
    3d20:	bf 85       	ldd	r27, Y+15	; 0x0f
    3d22:	12 96       	adiw	r26, 0x02	; 2
    3d24:	0d 90       	ld	r0, X+
    3d26:	bc 91       	ld	r27, X
    3d28:	a0 2d       	mov	r26, r0
    3d2a:	ba 83       	std	Y+2, r27	; 0x02
    3d2c:	a9 83       	std	Y+1, r26	; 0x01
    3d2e:	cf 01       	movw	r24, r30
    3d30:	88 71       	andi	r24, 0x18	; 24
    3d32:	99 27       	eor	r25, r25
    3d34:	89 2b       	or	r24, r25
    3d36:	61 f0       	breq	.+24     	; 0x3d50 <te_eval+0x402>
    3d38:	e7 70       	andi	r30, 0x07	; 7
    3d3a:	ff 27       	eor	r31, r31
    3d3c:	31 97       	sbiw	r30, 0x01	; 1
    3d3e:	e7 30       	cpi	r30, 0x07	; 7
    3d40:	f1 05       	cpc	r31, r1
    3d42:	30 f4       	brcc	.+12     	; 0x3d50 <te_eval+0x402>
    3d44:	ee 59       	subi	r30, 0x9E	; 158
    3d46:	ff 4f       	sbci	r31, 0xFF	; 255
    3d48:	ae 85       	ldd	r26, Y+14	; 0x0e
    3d4a:	bf 85       	ldd	r27, Y+15	; 0x0f
    3d4c:	0c 94 01 2a 	jmp	0x5402	; 0x5402 <__tablejump2__>
    3d50:	ee 85       	ldd	r30, Y+14	; 0x0e
    3d52:	ff 85       	ldd	r31, Y+15	; 0x0f
    3d54:	86 81       	ldd	r24, Z+6	; 0x06
    3d56:	97 81       	ldd	r25, Z+7	; 0x07
    3d58:	e9 81       	ldd	r30, Y+1	; 0x01
    3d5a:	fa 81       	ldd	r31, Y+2	; 0x02
    3d5c:	2f 96       	adiw	r28, 0x0f	; 15
    3d5e:	0f b6       	in	r0, 0x3f	; 63
    3d60:	f8 94       	cli
    3d62:	de bf       	out	0x3e, r29	; 62
    3d64:	0f be       	out	0x3f, r0	; 63
    3d66:	cd bf       	out	0x3d, r28	; 61
    3d68:	df 91       	pop	r29
    3d6a:	cf 91       	pop	r28
    3d6c:	1f 91       	pop	r17
    3d6e:	0f 91       	pop	r16
    3d70:	ff 90       	pop	r15
    3d72:	ef 90       	pop	r14
    3d74:	df 90       	pop	r13
    3d76:	cf 90       	pop	r12
    3d78:	bf 90       	pop	r11
    3d7a:	af 90       	pop	r10
    3d7c:	9f 90       	pop	r9
    3d7e:	8f 90       	pop	r8
    3d80:	7f 90       	pop	r7
    3d82:	6f 90       	pop	r6
    3d84:	5f 90       	pop	r5
    3d86:	4f 90       	pop	r4
    3d88:	3f 90       	pop	r3
    3d8a:	2f 90       	pop	r2
    3d8c:	09 94       	ijmp
    3d8e:	16 96       	adiw	r26, 0x06	; 6
    3d90:	8d 91       	ld	r24, X+
    3d92:	9c 91       	ld	r25, X
    3d94:	17 97       	sbiw	r26, 0x07	; 7
    3d96:	0e 94 a7 1c 	call	0x394e	; 0x394e <te_eval>
    3d9a:	ab 01       	movw	r20, r22
    3d9c:	bc 01       	movw	r22, r24
    3d9e:	ee 85       	ldd	r30, Y+14	; 0x0e
    3da0:	ff 85       	ldd	r31, Y+15	; 0x0f
    3da2:	80 85       	ldd	r24, Z+8	; 0x08
    3da4:	91 85       	ldd	r25, Z+9	; 0x09
    3da6:	e9 81       	ldd	r30, Y+1	; 0x01
    3da8:	fa 81       	ldd	r31, Y+2	; 0x02
    3daa:	2f 96       	adiw	r28, 0x0f	; 15
    3dac:	0f b6       	in	r0, 0x3f	; 63
    3dae:	f8 94       	cli
    3db0:	de bf       	out	0x3e, r29	; 62
    3db2:	0f be       	out	0x3f, r0	; 63
    3db4:	cd bf       	out	0x3d, r28	; 61
    3db6:	df 91       	pop	r29
    3db8:	cf 91       	pop	r28
    3dba:	1f 91       	pop	r17
    3dbc:	0f 91       	pop	r16
    3dbe:	ff 90       	pop	r15
    3dc0:	ef 90       	pop	r14
    3dc2:	df 90       	pop	r13
    3dc4:	cf 90       	pop	r12
    3dc6:	bf 90       	pop	r11
    3dc8:	af 90       	pop	r10
    3dca:	9f 90       	pop	r9
    3dcc:	8f 90       	pop	r8
    3dce:	7f 90       	pop	r7
    3dd0:	6f 90       	pop	r6
    3dd2:	5f 90       	pop	r5
    3dd4:	4f 90       	pop	r4
    3dd6:	3f 90       	pop	r3
    3dd8:	2f 90       	pop	r2
    3dda:	09 94       	ijmp
    3ddc:	18 96       	adiw	r26, 0x08	; 8
    3dde:	8d 91       	ld	r24, X+
    3de0:	9c 91       	ld	r25, X
    3de2:	19 97       	sbiw	r26, 0x09	; 9
    3de4:	0e 94 a7 1c 	call	0x394e	; 0x394e <te_eval>
    3de8:	6b 01       	movw	r12, r22
    3dea:	7c 01       	movw	r14, r24
    3dec:	ee 85       	ldd	r30, Y+14	; 0x0e
    3dee:	ff 85       	ldd	r31, Y+15	; 0x0f
    3df0:	86 81       	ldd	r24, Z+6	; 0x06
    3df2:	97 81       	ldd	r25, Z+7	; 0x07
    3df4:	0e 94 a7 1c 	call	0x394e	; 0x394e <te_eval>
    3df8:	ab 01       	movw	r20, r22
    3dfa:	bc 01       	movw	r22, r24
    3dfc:	97 01       	movw	r18, r14
    3dfe:	86 01       	movw	r16, r12
    3e00:	ae 85       	ldd	r26, Y+14	; 0x0e
    3e02:	bf 85       	ldd	r27, Y+15	; 0x0f
    3e04:	1a 96       	adiw	r26, 0x0a	; 10
    3e06:	8d 91       	ld	r24, X+
    3e08:	9c 91       	ld	r25, X
    3e0a:	1b 97       	sbiw	r26, 0x0b	; 11
    3e0c:	e9 81       	ldd	r30, Y+1	; 0x01
    3e0e:	fa 81       	ldd	r31, Y+2	; 0x02
    3e10:	09 95       	icall
    3e12:	4f c1       	rjmp	.+670    	; 0x40b2 <te_eval+0x764>
    3e14:	1a 96       	adiw	r26, 0x0a	; 10
    3e16:	8d 91       	ld	r24, X+
    3e18:	9c 91       	ld	r25, X
    3e1a:	1b 97       	sbiw	r26, 0x0b	; 11
    3e1c:	0e 94 a7 1c 	call	0x394e	; 0x394e <te_eval>
    3e20:	6b 01       	movw	r12, r22
    3e22:	7c 01       	movw	r14, r24
    3e24:	ee 85       	ldd	r30, Y+14	; 0x0e
    3e26:	ff 85       	ldd	r31, Y+15	; 0x0f
    3e28:	80 85       	ldd	r24, Z+8	; 0x08
    3e2a:	91 85       	ldd	r25, Z+9	; 0x09
    3e2c:	0e 94 a7 1c 	call	0x394e	; 0x394e <te_eval>
    3e30:	4b 01       	movw	r8, r22
    3e32:	5c 01       	movw	r10, r24
    3e34:	ae 85       	ldd	r26, Y+14	; 0x0e
    3e36:	bf 85       	ldd	r27, Y+15	; 0x0f
    3e38:	16 96       	adiw	r26, 0x06	; 6
    3e3a:	8d 91       	ld	r24, X+
    3e3c:	9c 91       	ld	r25, X
    3e3e:	17 97       	sbiw	r26, 0x07	; 7
    3e40:	0e 94 a7 1c 	call	0x394e	; 0x394e <te_eval>
    3e44:	ab 01       	movw	r20, r22
    3e46:	bc 01       	movw	r22, r24
    3e48:	95 01       	movw	r18, r10
    3e4a:	84 01       	movw	r16, r8
    3e4c:	ee 85       	ldd	r30, Y+14	; 0x0e
    3e4e:	ff 85       	ldd	r31, Y+15	; 0x0f
    3e50:	84 85       	ldd	r24, Z+12	; 0x0c
    3e52:	95 85       	ldd	r25, Z+13	; 0x0d
    3e54:	e9 81       	ldd	r30, Y+1	; 0x01
    3e56:	fa 81       	ldd	r31, Y+2	; 0x02
    3e58:	09 95       	icall
    3e5a:	2b c1       	rjmp	.+598    	; 0x40b2 <te_eval+0x764>
    3e5c:	1c 96       	adiw	r26, 0x0c	; 12
    3e5e:	8d 91       	ld	r24, X+
    3e60:	9c 91       	ld	r25, X
    3e62:	1d 97       	sbiw	r26, 0x0d	; 13
    3e64:	0e 94 a7 1c 	call	0x394e	; 0x394e <te_eval>
    3e68:	4b 01       	movw	r8, r22
    3e6a:	5c 01       	movw	r10, r24
    3e6c:	ee 85       	ldd	r30, Y+14	; 0x0e
    3e6e:	ff 85       	ldd	r31, Y+15	; 0x0f
    3e70:	82 85       	ldd	r24, Z+10	; 0x0a
    3e72:	93 85       	ldd	r25, Z+11	; 0x0b
    3e74:	0e 94 a7 1c 	call	0x394e	; 0x394e <te_eval>
    3e78:	6b 01       	movw	r12, r22
    3e7a:	7c 01       	movw	r14, r24
    3e7c:	ae 85       	ldd	r26, Y+14	; 0x0e
    3e7e:	bf 85       	ldd	r27, Y+15	; 0x0f
    3e80:	18 96       	adiw	r26, 0x08	; 8
    3e82:	8d 91       	ld	r24, X+
    3e84:	9c 91       	ld	r25, X
    3e86:	19 97       	sbiw	r26, 0x09	; 9
    3e88:	0e 94 a7 1c 	call	0x394e	; 0x394e <te_eval>
    3e8c:	2b 01       	movw	r4, r22
    3e8e:	3c 01       	movw	r6, r24
    3e90:	ee 85       	ldd	r30, Y+14	; 0x0e
    3e92:	ff 85       	ldd	r31, Y+15	; 0x0f
    3e94:	86 81       	ldd	r24, Z+6	; 0x06
    3e96:	97 81       	ldd	r25, Z+7	; 0x07
    3e98:	0e 94 a7 1c 	call	0x394e	; 0x394e <te_eval>
    3e9c:	ab 01       	movw	r20, r22
    3e9e:	bc 01       	movw	r22, r24
    3ea0:	93 01       	movw	r18, r6
    3ea2:	82 01       	movw	r16, r4
    3ea4:	ae 85       	ldd	r26, Y+14	; 0x0e
    3ea6:	bf 85       	ldd	r27, Y+15	; 0x0f
    3ea8:	1e 96       	adiw	r26, 0x0e	; 14
    3eaa:	8d 91       	ld	r24, X+
    3eac:	9c 91       	ld	r25, X
    3eae:	1f 97       	sbiw	r26, 0x0f	; 15
    3eb0:	e9 81       	ldd	r30, Y+1	; 0x01
    3eb2:	fa 81       	ldd	r31, Y+2	; 0x02
    3eb4:	09 95       	icall
    3eb6:	fd c0       	rjmp	.+506    	; 0x40b2 <te_eval+0x764>
    3eb8:	1e 96       	adiw	r26, 0x0e	; 14
    3eba:	8d 91       	ld	r24, X+
    3ebc:	9c 91       	ld	r25, X
    3ebe:	1f 97       	sbiw	r26, 0x0f	; 15
    3ec0:	0e 94 a7 1c 	call	0x394e	; 0x394e <te_eval>
    3ec4:	36 2e       	mov	r3, r22
    3ec6:	27 2e       	mov	r2, r23
    3ec8:	18 2f       	mov	r17, r24
    3eca:	09 2f       	mov	r16, r25
    3ecc:	ee 85       	ldd	r30, Y+14	; 0x0e
    3ece:	ff 85       	ldd	r31, Y+15	; 0x0f
    3ed0:	84 85       	ldd	r24, Z+12	; 0x0c
    3ed2:	95 85       	ldd	r25, Z+13	; 0x0d
    3ed4:	0e 94 a7 1c 	call	0x394e	; 0x394e <te_eval>
    3ed8:	4b 01       	movw	r8, r22
    3eda:	5c 01       	movw	r10, r24
    3edc:	ae 85       	ldd	r26, Y+14	; 0x0e
    3ede:	bf 85       	ldd	r27, Y+15	; 0x0f
    3ee0:	1a 96       	adiw	r26, 0x0a	; 10
    3ee2:	8d 91       	ld	r24, X+
    3ee4:	9c 91       	ld	r25, X
    3ee6:	1b 97       	sbiw	r26, 0x0b	; 11
    3ee8:	0e 94 a7 1c 	call	0x394e	; 0x394e <te_eval>
    3eec:	6b 01       	movw	r12, r22
    3eee:	7c 01       	movw	r14, r24
    3ef0:	ee 85       	ldd	r30, Y+14	; 0x0e
    3ef2:	ff 85       	ldd	r31, Y+15	; 0x0f
    3ef4:	80 85       	ldd	r24, Z+8	; 0x08
    3ef6:	91 85       	ldd	r25, Z+9	; 0x09
    3ef8:	0e 94 a7 1c 	call	0x394e	; 0x394e <te_eval>
    3efc:	2b 01       	movw	r4, r22
    3efe:	3c 01       	movw	r6, r24
    3f00:	ae 85       	ldd	r26, Y+14	; 0x0e
    3f02:	bf 85       	ldd	r27, Y+15	; 0x0f
    3f04:	16 96       	adiw	r26, 0x06	; 6
    3f06:	8d 91       	ld	r24, X+
    3f08:	9c 91       	ld	r25, X
    3f0a:	17 97       	sbiw	r26, 0x07	; 7
    3f0c:	0e 94 a7 1c 	call	0x394e	; 0x394e <te_eval>
    3f10:	ab 01       	movw	r20, r22
    3f12:	bc 01       	movw	r22, r24
    3f14:	0f 93       	push	r16
    3f16:	1f 93       	push	r17
    3f18:	2f 92       	push	r2
    3f1a:	3f 92       	push	r3
    3f1c:	93 01       	movw	r18, r6
    3f1e:	82 01       	movw	r16, r4
    3f20:	ee 85       	ldd	r30, Y+14	; 0x0e
    3f22:	ff 85       	ldd	r31, Y+15	; 0x0f
    3f24:	80 89       	ldd	r24, Z+16	; 0x10
    3f26:	91 89       	ldd	r25, Z+17	; 0x11
    3f28:	e9 81       	ldd	r30, Y+1	; 0x01
    3f2a:	fa 81       	ldd	r31, Y+2	; 0x02
    3f2c:	09 95       	icall
    3f2e:	0f 90       	pop	r0
    3f30:	0f 90       	pop	r0
    3f32:	0f 90       	pop	r0
    3f34:	0f 90       	pop	r0
    3f36:	bd c0       	rjmp	.+378    	; 0x40b2 <te_eval+0x764>
    3f38:	50 96       	adiw	r26, 0x10	; 16
    3f3a:	8d 91       	ld	r24, X+
    3f3c:	9c 91       	ld	r25, X
    3f3e:	51 97       	sbiw	r26, 0x11	; 17
    3f40:	0e 94 a7 1c 	call	0x394e	; 0x394e <te_eval>
    3f44:	76 2e       	mov	r7, r22
    3f46:	67 2e       	mov	r6, r23
    3f48:	8d 83       	std	Y+5, r24	; 0x05
    3f4a:	99 87       	std	Y+9, r25	; 0x09
    3f4c:	ee 85       	ldd	r30, Y+14	; 0x0e
    3f4e:	ff 85       	ldd	r31, Y+15	; 0x0f
    3f50:	86 85       	ldd	r24, Z+14	; 0x0e
    3f52:	97 85       	ldd	r25, Z+15	; 0x0f
    3f54:	0e 94 a7 1c 	call	0x394e	; 0x394e <te_eval>
    3f58:	6a 87       	std	Y+10, r22	; 0x0a
    3f5a:	7b 87       	std	Y+11, r23	; 0x0b
    3f5c:	18 2f       	mov	r17, r24
    3f5e:	09 2f       	mov	r16, r25
    3f60:	ae 85       	ldd	r26, Y+14	; 0x0e
    3f62:	bf 85       	ldd	r27, Y+15	; 0x0f
    3f64:	1c 96       	adiw	r26, 0x0c	; 12
    3f66:	8d 91       	ld	r24, X+
    3f68:	9c 91       	ld	r25, X
    3f6a:	1d 97       	sbiw	r26, 0x0d	; 13
    3f6c:	0e 94 a7 1c 	call	0x394e	; 0x394e <te_eval>
    3f70:	4b 01       	movw	r8, r22
    3f72:	5c 01       	movw	r10, r24
    3f74:	ee 85       	ldd	r30, Y+14	; 0x0e
    3f76:	ff 85       	ldd	r31, Y+15	; 0x0f
    3f78:	82 85       	ldd	r24, Z+10	; 0x0a
    3f7a:	93 85       	ldd	r25, Z+11	; 0x0b
    3f7c:	0e 94 a7 1c 	call	0x394e	; 0x394e <te_eval>
    3f80:	6b 01       	movw	r12, r22
    3f82:	7c 01       	movw	r14, r24
    3f84:	ae 85       	ldd	r26, Y+14	; 0x0e
    3f86:	bf 85       	ldd	r27, Y+15	; 0x0f
    3f88:	18 96       	adiw	r26, 0x08	; 8
    3f8a:	8d 91       	ld	r24, X+
    3f8c:	9c 91       	ld	r25, X
    3f8e:	19 97       	sbiw	r26, 0x09	; 9
    3f90:	0e 94 a7 1c 	call	0x394e	; 0x394e <te_eval>
    3f94:	1b 01       	movw	r2, r22
    3f96:	2c 01       	movw	r4, r24
    3f98:	ee 85       	ldd	r30, Y+14	; 0x0e
    3f9a:	ff 85       	ldd	r31, Y+15	; 0x0f
    3f9c:	86 81       	ldd	r24, Z+6	; 0x06
    3f9e:	97 81       	ldd	r25, Z+7	; 0x07
    3fa0:	0e 94 a7 1c 	call	0x394e	; 0x394e <te_eval>
    3fa4:	ab 01       	movw	r20, r22
    3fa6:	bc 01       	movw	r22, r24
    3fa8:	f9 85       	ldd	r31, Y+9	; 0x09
    3faa:	ff 93       	push	r31
    3fac:	2d 81       	ldd	r18, Y+5	; 0x05
    3fae:	2f 93       	push	r18
    3fb0:	6f 92       	push	r6
    3fb2:	7f 92       	push	r7
    3fb4:	0f 93       	push	r16
    3fb6:	1f 93       	push	r17
    3fb8:	3b 85       	ldd	r19, Y+11	; 0x0b
    3fba:	3f 93       	push	r19
    3fbc:	8a 85       	ldd	r24, Y+10	; 0x0a
    3fbe:	8f 93       	push	r24
    3fc0:	92 01       	movw	r18, r4
    3fc2:	81 01       	movw	r16, r2
    3fc4:	ae 85       	ldd	r26, Y+14	; 0x0e
    3fc6:	bf 85       	ldd	r27, Y+15	; 0x0f
    3fc8:	52 96       	adiw	r26, 0x12	; 18
    3fca:	8d 91       	ld	r24, X+
    3fcc:	9c 91       	ld	r25, X
    3fce:	53 97       	sbiw	r26, 0x13	; 19
    3fd0:	e9 81       	ldd	r30, Y+1	; 0x01
    3fd2:	fa 81       	ldd	r31, Y+2	; 0x02
    3fd4:	09 95       	icall
    3fd6:	63 c0       	rjmp	.+198    	; 0x409e <te_eval+0x750>
    3fd8:	52 96       	adiw	r26, 0x12	; 18
    3fda:	8d 91       	ld	r24, X+
    3fdc:	9c 91       	ld	r25, X
    3fde:	53 97       	sbiw	r26, 0x13	; 19
    3fe0:	0e 94 a7 1c 	call	0x394e	; 0x394e <te_eval>
    3fe4:	69 87       	std	Y+9, r22	; 0x09
    3fe6:	7a 87       	std	Y+10, r23	; 0x0a
    3fe8:	8b 87       	std	Y+11, r24	; 0x0b
    3fea:	9c 87       	std	Y+12, r25	; 0x0c
    3fec:	ee 85       	ldd	r30, Y+14	; 0x0e
    3fee:	ff 85       	ldd	r31, Y+15	; 0x0f
    3ff0:	80 89       	ldd	r24, Z+16	; 0x10
    3ff2:	91 89       	ldd	r25, Z+17	; 0x11
    3ff4:	0e 94 a7 1c 	call	0x394e	; 0x394e <te_eval>
    3ff8:	56 2e       	mov	r5, r22
    3ffa:	47 2e       	mov	r4, r23
    3ffc:	38 2e       	mov	r3, r24
    3ffe:	29 2e       	mov	r2, r25
    4000:	ae 85       	ldd	r26, Y+14	; 0x0e
    4002:	bf 85       	ldd	r27, Y+15	; 0x0f
    4004:	1e 96       	adiw	r26, 0x0e	; 14
    4006:	8d 91       	ld	r24, X+
    4008:	9c 91       	ld	r25, X
    400a:	1f 97       	sbiw	r26, 0x0f	; 15
    400c:	0e 94 a7 1c 	call	0x394e	; 0x394e <te_eval>
    4010:	76 2e       	mov	r7, r22
    4012:	67 2e       	mov	r6, r23
    4014:	18 2f       	mov	r17, r24
    4016:	09 2f       	mov	r16, r25
    4018:	ee 85       	ldd	r30, Y+14	; 0x0e
    401a:	ff 85       	ldd	r31, Y+15	; 0x0f
    401c:	84 85       	ldd	r24, Z+12	; 0x0c
    401e:	95 85       	ldd	r25, Z+13	; 0x0d
    4020:	0e 94 a7 1c 	call	0x394e	; 0x394e <te_eval>
    4024:	4b 01       	movw	r8, r22
    4026:	5c 01       	movw	r10, r24
    4028:	ae 85       	ldd	r26, Y+14	; 0x0e
    402a:	bf 85       	ldd	r27, Y+15	; 0x0f
    402c:	1a 96       	adiw	r26, 0x0a	; 10
    402e:	8d 91       	ld	r24, X+
    4030:	9c 91       	ld	r25, X
    4032:	1b 97       	sbiw	r26, 0x0b	; 11
    4034:	0e 94 a7 1c 	call	0x394e	; 0x394e <te_eval>
    4038:	6b 01       	movw	r12, r22
    403a:	7c 01       	movw	r14, r24
    403c:	ee 85       	ldd	r30, Y+14	; 0x0e
    403e:	ff 85       	ldd	r31, Y+15	; 0x0f
    4040:	80 85       	ldd	r24, Z+8	; 0x08
    4042:	91 85       	ldd	r25, Z+9	; 0x09
    4044:	0e 94 a7 1c 	call	0x394e	; 0x394e <te_eval>
    4048:	6d 83       	std	Y+5, r22	; 0x05
    404a:	7e 83       	std	Y+6, r23	; 0x06
    404c:	8f 83       	std	Y+7, r24	; 0x07
    404e:	98 87       	std	Y+8, r25	; 0x08
    4050:	ae 85       	ldd	r26, Y+14	; 0x0e
    4052:	bf 85       	ldd	r27, Y+15	; 0x0f
    4054:	16 96       	adiw	r26, 0x06	; 6
    4056:	8d 91       	ld	r24, X+
    4058:	9c 91       	ld	r25, X
    405a:	17 97       	sbiw	r26, 0x07	; 7
    405c:	0e 94 a7 1c 	call	0x394e	; 0x394e <te_eval>
    4060:	ab 01       	movw	r20, r22
    4062:	bc 01       	movw	r22, r24
    4064:	bc 85       	ldd	r27, Y+12	; 0x0c
    4066:	bf 93       	push	r27
    4068:	eb 85       	ldd	r30, Y+11	; 0x0b
    406a:	ef 93       	push	r30
    406c:	fa 85       	ldd	r31, Y+10	; 0x0a
    406e:	ff 93       	push	r31
    4070:	29 85       	ldd	r18, Y+9	; 0x09
    4072:	2f 93       	push	r18
    4074:	2f 92       	push	r2
    4076:	3f 92       	push	r3
    4078:	4f 92       	push	r4
    407a:	5f 92       	push	r5
    407c:	0f 93       	push	r16
    407e:	1f 93       	push	r17
    4080:	6f 92       	push	r6
    4082:	7f 92       	push	r7
    4084:	0d 81       	ldd	r16, Y+5	; 0x05
    4086:	1e 81       	ldd	r17, Y+6	; 0x06
    4088:	2f 81       	ldd	r18, Y+7	; 0x07
    408a:	38 85       	ldd	r19, Y+8	; 0x08
    408c:	ae 85       	ldd	r26, Y+14	; 0x0e
    408e:	bf 85       	ldd	r27, Y+15	; 0x0f
    4090:	54 96       	adiw	r26, 0x14	; 20
    4092:	8d 91       	ld	r24, X+
    4094:	9c 91       	ld	r25, X
    4096:	55 97       	sbiw	r26, 0x15	; 21
    4098:	e9 81       	ldd	r30, Y+1	; 0x01
    409a:	fa 81       	ldd	r31, Y+2	; 0x02
    409c:	09 95       	icall
    409e:	0f b6       	in	r0, 0x3f	; 63
    40a0:	f8 94       	cli
    40a2:	de bf       	out	0x3e, r29	; 62
    40a4:	0f be       	out	0x3f, r0	; 63
    40a6:	cd bf       	out	0x3d, r28	; 61
    40a8:	04 c0       	rjmp	.+8      	; 0x40b2 <te_eval+0x764>
    40aa:	60 e0       	ldi	r22, 0x00	; 0
    40ac:	70 e0       	ldi	r23, 0x00	; 0
    40ae:	80 ec       	ldi	r24, 0xC0	; 192
    40b0:	9f e7       	ldi	r25, 0x7F	; 127
    40b2:	2f 96       	adiw	r28, 0x0f	; 15
    40b4:	0f b6       	in	r0, 0x3f	; 63
    40b6:	f8 94       	cli
    40b8:	de bf       	out	0x3e, r29	; 62
    40ba:	0f be       	out	0x3f, r0	; 63
    40bc:	cd bf       	out	0x3d, r28	; 61
    40be:	df 91       	pop	r29
    40c0:	cf 91       	pop	r28
    40c2:	1f 91       	pop	r17
    40c4:	0f 91       	pop	r16
    40c6:	ff 90       	pop	r15
    40c8:	ef 90       	pop	r14
    40ca:	df 90       	pop	r13
    40cc:	cf 90       	pop	r12
    40ce:	bf 90       	pop	r11
    40d0:	af 90       	pop	r10
    40d2:	9f 90       	pop	r9
    40d4:	8f 90       	pop	r8
    40d6:	7f 90       	pop	r7
    40d8:	6f 90       	pop	r6
    40da:	5f 90       	pop	r5
    40dc:	4f 90       	pop	r4
    40de:	3f 90       	pop	r3
    40e0:	2f 90       	pop	r2
    40e2:	08 95       	ret

000040e4 <optimize>:
    40e4:	8f 92       	push	r8
    40e6:	9f 92       	push	r9
    40e8:	af 92       	push	r10
    40ea:	bf 92       	push	r11
    40ec:	cf 92       	push	r12
    40ee:	df 92       	push	r13
    40f0:	ef 92       	push	r14
    40f2:	ff 92       	push	r15
    40f4:	0f 93       	push	r16
    40f6:	1f 93       	push	r17
    40f8:	cf 93       	push	r28
    40fa:	df 93       	push	r29
    40fc:	dc 01       	movw	r26, r24
    40fe:	2d 91       	ld	r18, X+
    4100:	3c 91       	ld	r19, X
    4102:	22 30       	cpi	r18, 0x02	; 2
    4104:	31 05       	cpc	r19, r1
    4106:	f0 f1       	brcs	.+124    	; 0x4184 <optimize+0xa0>
    4108:	25 ff       	sbrs	r18, 5
    410a:	3c c0       	rjmp	.+120    	; 0x4184 <optimize+0xa0>
    410c:	89 01       	movw	r16, r18
    410e:	08 71       	andi	r16, 0x18	; 24
    4110:	11 27       	eor	r17, r17
    4112:	01 15       	cp	r16, r1
    4114:	11 05       	cpc	r17, r1
    4116:	19 f0       	breq	.+6      	; 0x411e <optimize+0x3a>
    4118:	89 01       	movw	r16, r18
    411a:	07 70       	andi	r16, 0x07	; 7
    411c:	11 27       	eor	r17, r17
    411e:	ec 01       	movw	r28, r24
    4120:	6c 01       	movw	r12, r24
    4122:	b6 e0       	ldi	r27, 0x06	; 6
    4124:	cb 0e       	add	r12, r27
    4126:	d1 1c       	adc	r13, r1
    4128:	e1 2c       	mov	r14, r1
    412a:	f1 2c       	mov	r15, r1
    412c:	88 24       	eor	r8, r8
    412e:	83 94       	inc	r8
    4130:	91 2c       	mov	r9, r1
    4132:	e0 16       	cp	r14, r16
    4134:	f1 06       	cpc	r15, r17
    4136:	a1 f0       	breq	.+40     	; 0x4160 <optimize+0x7c>
    4138:	56 01       	movw	r10, r12
    413a:	f6 01       	movw	r30, r12
    413c:	81 91       	ld	r24, Z+
    413e:	91 91       	ld	r25, Z+
    4140:	6f 01       	movw	r12, r30
    4142:	0e 94 72 20 	call	0x40e4	; 0x40e4 <optimize>
    4146:	d5 01       	movw	r26, r10
    4148:	ed 91       	ld	r30, X+
    414a:	fc 91       	ld	r31, X
    414c:	80 81       	ld	r24, Z
    414e:	91 81       	ldd	r25, Z+1	; 0x01
    4150:	01 97       	sbiw	r24, 0x01	; 1
    4152:	11 f0       	breq	.+4      	; 0x4158 <optimize+0x74>
    4154:	81 2c       	mov	r8, r1
    4156:	91 2c       	mov	r9, r1
    4158:	bf ef       	ldi	r27, 0xFF	; 255
    415a:	eb 1a       	sub	r14, r27
    415c:	fb 0a       	sbc	r15, r27
    415e:	e9 cf       	rjmp	.-46     	; 0x4132 <optimize+0x4e>
    4160:	89 28       	or	r8, r9
    4162:	81 f0       	breq	.+32     	; 0x4184 <optimize+0xa0>
    4164:	ce 01       	movw	r24, r28
    4166:	0e 94 a7 1c 	call	0x394e	; 0x394e <te_eval>
    416a:	6b 01       	movw	r12, r22
    416c:	7c 01       	movw	r14, r24
    416e:	ce 01       	movw	r24, r28
    4170:	0e 94 c4 17 	call	0x2f88	; 0x2f88 <te_free_parameters>
    4174:	81 e0       	ldi	r24, 0x01	; 1
    4176:	90 e0       	ldi	r25, 0x00	; 0
    4178:	99 83       	std	Y+1, r25	; 0x01
    417a:	88 83       	st	Y, r24
    417c:	ca 82       	std	Y+2, r12	; 0x02
    417e:	db 82       	std	Y+3, r13	; 0x03
    4180:	ec 82       	std	Y+4, r14	; 0x04
    4182:	fd 82       	std	Y+5, r15	; 0x05
    4184:	df 91       	pop	r29
    4186:	cf 91       	pop	r28
    4188:	1f 91       	pop	r17
    418a:	0f 91       	pop	r16
    418c:	ff 90       	pop	r15
    418e:	ef 90       	pop	r14
    4190:	df 90       	pop	r13
    4192:	cf 90       	pop	r12
    4194:	bf 90       	pop	r11
    4196:	af 90       	pop	r10
    4198:	9f 90       	pop	r9
    419a:	8f 90       	pop	r8
    419c:	08 95       	ret

0000419e <te_compile>:
    419e:	ef 92       	push	r14
    41a0:	ff 92       	push	r15
    41a2:	0f 93       	push	r16
    41a4:	1f 93       	push	r17
    41a6:	cf 93       	push	r28
    41a8:	df 93       	push	r29
    41aa:	cd b7       	in	r28, 0x3d	; 61
    41ac:	de b7       	in	r29, 0x3e	; 62
    41ae:	60 97       	sbiw	r28, 0x10	; 16
    41b0:	0f b6       	in	r0, 0x3f	; 63
    41b2:	f8 94       	cli
    41b4:	de bf       	out	0x3e, r29	; 62
    41b6:	0f be       	out	0x3f, r0	; 63
    41b8:	cd bf       	out	0x3d, r28	; 61
    41ba:	79 01       	movw	r14, r18
    41bc:	9c 83       	std	Y+4, r25	; 0x04
    41be:	8b 83       	std	Y+3, r24	; 0x03
    41c0:	9a 83       	std	Y+2, r25	; 0x02
    41c2:	89 83       	std	Y+1, r24	; 0x01
    41c4:	7e 87       	std	Y+14, r23	; 0x0e
    41c6:	6d 87       	std	Y+13, r22	; 0x0d
    41c8:	58 8b       	std	Y+16, r21	; 0x10
    41ca:	4f 87       	std	Y+15, r20	; 0x0f
    41cc:	ce 01       	movw	r24, r28
    41ce:	01 96       	adiw	r24, 0x01	; 1
    41d0:	0e 94 f7 17 	call	0x2fee	; 0x2fee <next_token>
    41d4:	ce 01       	movw	r24, r28
    41d6:	01 96       	adiw	r24, 0x01	; 1
    41d8:	0e 94 d3 19 	call	0x33a6	; 0x33a6 <list>
    41dc:	8c 01       	movw	r16, r24
    41de:	8d 81       	ldd	r24, Y+5	; 0x05
    41e0:	9e 81       	ldd	r25, Y+6	; 0x06
    41e2:	4a 97       	sbiw	r24, 0x1a	; 26
    41e4:	a9 f0       	breq	.+42     	; 0x4210 <te_compile+0x72>
    41e6:	c8 01       	movw	r24, r16
    41e8:	0e 94 b5 17 	call	0x2f6a	; 0x2f6a <te_free>
    41ec:	e1 14       	cp	r14, r1
    41ee:	f1 04       	cpc	r15, r1
    41f0:	61 f0       	breq	.+24     	; 0x420a <te_compile+0x6c>
    41f2:	8b 81       	ldd	r24, Y+3	; 0x03
    41f4:	9c 81       	ldd	r25, Y+4	; 0x04
    41f6:	29 81       	ldd	r18, Y+1	; 0x01
    41f8:	3a 81       	ldd	r19, Y+2	; 0x02
    41fa:	82 1b       	sub	r24, r18
    41fc:	93 0b       	sbc	r25, r19
    41fe:	11 f4       	brne	.+4      	; 0x4204 <te_compile+0x66>
    4200:	81 e0       	ldi	r24, 0x01	; 1
    4202:	90 e0       	ldi	r25, 0x00	; 0
    4204:	f7 01       	movw	r30, r14
    4206:	91 83       	std	Z+1, r25	; 0x01
    4208:	80 83       	st	Z, r24
    420a:	80 e0       	ldi	r24, 0x00	; 0
    420c:	90 e0       	ldi	r25, 0x00	; 0
    420e:	0a c0       	rjmp	.+20     	; 0x4224 <te_compile+0x86>
    4210:	c8 01       	movw	r24, r16
    4212:	0e 94 72 20 	call	0x40e4	; 0x40e4 <optimize>
    4216:	e1 14       	cp	r14, r1
    4218:	f1 04       	cpc	r15, r1
    421a:	19 f0       	breq	.+6      	; 0x4222 <te_compile+0x84>
    421c:	f7 01       	movw	r30, r14
    421e:	11 82       	std	Z+1, r1	; 0x01
    4220:	10 82       	st	Z, r1
    4222:	c8 01       	movw	r24, r16
    4224:	60 96       	adiw	r28, 0x10	; 16
    4226:	0f b6       	in	r0, 0x3f	; 63
    4228:	f8 94       	cli
    422a:	de bf       	out	0x3e, r29	; 62
    422c:	0f be       	out	0x3f, r0	; 63
    422e:	cd bf       	out	0x3d, r28	; 61
    4230:	df 91       	pop	r29
    4232:	cf 91       	pop	r28
    4234:	1f 91       	pop	r17
    4236:	0f 91       	pop	r16
    4238:	ff 90       	pop	r15
    423a:	ef 90       	pop	r14
    423c:	08 95       	ret

0000423e <te_interp>:
    423e:	cf 92       	push	r12
    4240:	df 92       	push	r13
    4242:	ef 92       	push	r14
    4244:	ff 92       	push	r15
    4246:	cf 93       	push	r28
    4248:	df 93       	push	r29
    424a:	9b 01       	movw	r18, r22
    424c:	40 e0       	ldi	r20, 0x00	; 0
    424e:	50 e0       	ldi	r21, 0x00	; 0
    4250:	60 e0       	ldi	r22, 0x00	; 0
    4252:	70 e0       	ldi	r23, 0x00	; 0
    4254:	0e 94 cf 20 	call	0x419e	; 0x419e <te_compile>
    4258:	ec 01       	movw	r28, r24
    425a:	00 97       	sbiw	r24, 0x00	; 0
    425c:	41 f0       	breq	.+16     	; 0x426e <te_interp+0x30>
    425e:	0e 94 a7 1c 	call	0x394e	; 0x394e <te_eval>
    4262:	6b 01       	movw	r12, r22
    4264:	7c 01       	movw	r14, r24
    4266:	ce 01       	movw	r24, r28
    4268:	0e 94 b5 17 	call	0x2f6a	; 0x2f6a <te_free>
    426c:	06 c0       	rjmp	.+12     	; 0x427a <te_interp+0x3c>
    426e:	c1 2c       	mov	r12, r1
    4270:	d1 2c       	mov	r13, r1
    4272:	80 ec       	ldi	r24, 0xC0	; 192
    4274:	e8 2e       	mov	r14, r24
    4276:	8f e7       	ldi	r24, 0x7F	; 127
    4278:	f8 2e       	mov	r15, r24
    427a:	c7 01       	movw	r24, r14
    427c:	b6 01       	movw	r22, r12
    427e:	df 91       	pop	r29
    4280:	cf 91       	pop	r28
    4282:	ff 90       	pop	r15
    4284:	ef 90       	pop	r14
    4286:	df 90       	pop	r13
    4288:	cf 90       	pop	r12
    428a:	08 95       	ret

0000428c <__vector_18>:
    428c:	1f 92       	push	r1
    428e:	0f 92       	push	r0
    4290:	0f b6       	in	r0, 0x3f	; 63
    4292:	0f 92       	push	r0
    4294:	11 24       	eor	r1, r1
    4296:	2f 93       	push	r18
    4298:	8f 93       	push	r24
    429a:	9f 93       	push	r25
    429c:	ef 93       	push	r30
    429e:	ff 93       	push	r31
    42a0:	80 91 a5 01 	lds	r24, 0x01A5	; 0x8001a5 <Head>
    42a4:	90 e0       	ldi	r25, 0x00	; 0
    42a6:	20 91 c6 00 	lds	r18, 0x00C6	; 0x8000c6 <__DATA_REGION_ORIGIN__+0x66>
    42aa:	fc 01       	movw	r30, r24
    42ac:	e2 5d       	subi	r30, 0xD2	; 210
    42ae:	fb 4f       	sbci	r31, 0xFB	; 251
    42b0:	20 83       	st	Z, r18
    42b2:	01 96       	adiw	r24, 0x01	; 1
    42b4:	8f 77       	andi	r24, 0x7F	; 127
    42b6:	99 27       	eor	r25, r25
    42b8:	80 93 a5 01 	sts	0x01A5, r24	; 0x8001a5 <Head>
    42bc:	90 91 a4 01 	lds	r25, 0x01A4	; 0x8001a4 <Tail>
    42c0:	98 13       	cpse	r25, r24
    42c2:	03 c0       	rjmp	.+6      	; 0x42ca <__vector_18+0x3e>
    42c4:	81 e0       	ldi	r24, 0x01	; 1
    42c6:	80 93 a3 01 	sts	0x01A3, r24	; 0x8001a3 <OverflowFlag>
    42ca:	ff 91       	pop	r31
    42cc:	ef 91       	pop	r30
    42ce:	9f 91       	pop	r25
    42d0:	8f 91       	pop	r24
    42d2:	2f 91       	pop	r18
    42d4:	0f 90       	pop	r0
    42d6:	0f be       	out	0x3f, r0	; 63
    42d8:	0f 90       	pop	r0
    42da:	1f 90       	pop	r1
    42dc:	18 95       	reti

000042de <UART_Init>:
    42de:	cf 92       	push	r12
    42e0:	df 92       	push	r13
    42e2:	ef 92       	push	r14
    42e4:	ff 92       	push	r15
    42e6:	6b 01       	movw	r12, r22
    42e8:	7c 01       	movw	r14, r24
    42ea:	9b 01       	movw	r18, r22
    42ec:	ac 01       	movw	r20, r24
    42ee:	84 e0       	ldi	r24, 0x04	; 4
    42f0:	22 0f       	add	r18, r18
    42f2:	33 1f       	adc	r19, r19
    42f4:	44 1f       	adc	r20, r20
    42f6:	55 1f       	adc	r21, r21
    42f8:	8a 95       	dec	r24
    42fa:	d1 f7       	brne	.-12     	; 0x42f0 <UART_Init+0x12>
    42fc:	60 e0       	ldi	r22, 0x00	; 0
    42fe:	74 e2       	ldi	r23, 0x24	; 36
    4300:	84 ef       	ldi	r24, 0xF4	; 244
    4302:	90 e0       	ldi	r25, 0x00	; 0
    4304:	0e 94 df 29 	call	0x53be	; 0x53be <__udivmodsi4>
    4308:	ba 01       	movw	r22, r20
    430a:	a9 01       	movw	r20, r18
    430c:	41 50       	subi	r20, 0x01	; 1
    430e:	51 09       	sbc	r21, r1
    4310:	61 09       	sbc	r22, r1
    4312:	71 09       	sbc	r23, r1
    4314:	f8 94       	cli
    4316:	e5 ec       	ldi	r30, 0xC5	; 197
    4318:	f0 e0       	ldi	r31, 0x00	; 0
    431a:	80 81       	ld	r24, Z
    431c:	85 2b       	or	r24, r21
    431e:	80 83       	st	Z, r24
    4320:	40 93 c4 00 	sts	0x00C4, r20	; 0x8000c4 <__DATA_REGION_ORIGIN__+0x64>
    4324:	60 e4       	ldi	r22, 0x40	; 64
    4326:	72 e4       	ldi	r23, 0x42	; 66
    4328:	8f e0       	ldi	r24, 0x0F	; 15
    432a:	90 e0       	ldi	r25, 0x00	; 0
    432c:	a7 01       	movw	r20, r14
    432e:	96 01       	movw	r18, r12
    4330:	0e 94 df 29 	call	0x53be	; 0x53be <__udivmodsi4>
    4334:	6a e0       	ldi	r22, 0x0A	; 10
    4336:	62 9f       	mul	r22, r18
    4338:	c0 01       	movw	r24, r0
    433a:	63 9f       	mul	r22, r19
    433c:	90 0d       	add	r25, r0
    433e:	11 24       	eor	r1, r1
    4340:	c3 96       	adiw	r24, 0x33	; 51
    4342:	90 93 af 04 	sts	0x04AF, r25	; 0x8004af <FrameTime+0x1>
    4346:	80 93 ae 04 	sts	0x04AE, r24	; 0x8004ae <FrameTime>
    434a:	e1 ec       	ldi	r30, 0xC1	; 193
    434c:	f0 e0       	ldi	r31, 0x00	; 0
    434e:	80 81       	ld	r24, Z
    4350:	88 61       	ori	r24, 0x18	; 24
    4352:	80 83       	st	Z, r24
    4354:	a2 ec       	ldi	r26, 0xC2	; 194
    4356:	b0 e0       	ldi	r27, 0x00	; 0
    4358:	8c 91       	ld	r24, X
    435a:	86 60       	ori	r24, 0x06	; 6
    435c:	8c 93       	st	X, r24
    435e:	80 81       	ld	r24, Z
    4360:	80 68       	ori	r24, 0x80	; 128
    4362:	80 83       	st	Z, r24
    4364:	78 94       	sei
    4366:	ff 90       	pop	r15
    4368:	ef 90       	pop	r14
    436a:	df 90       	pop	r13
    436c:	cf 90       	pop	r12
    436e:	08 95       	ret

00004370 <UART_Pending>:
    4370:	81 e0       	ldi	r24, 0x01	; 1
    4372:	20 91 a5 01 	lds	r18, 0x01A5	; 0x8001a5 <Head>
    4376:	90 91 a4 01 	lds	r25, 0x01A4	; 0x8001a4 <Tail>
    437a:	29 13       	cpse	r18, r25
    437c:	01 c0       	rjmp	.+2      	; 0x4380 <UART_Pending+0x10>
    437e:	80 e0       	ldi	r24, 0x00	; 0
    4380:	08 95       	ret

00004382 <UART_Getc>:
    4382:	80 91 a3 01 	lds	r24, 0x01A3	; 0x8001a3 <OverflowFlag>
    4386:	88 23       	and	r24, r24
    4388:	29 f0       	breq	.+10     	; 0x4394 <UART_Getc+0x12>
    438a:	10 92 a3 01 	sts	0x01A3, r1	; 0x8001a3 <OverflowFlag>
    438e:	80 e0       	ldi	r24, 0x00	; 0
    4390:	9a ef       	ldi	r25, 0xFA	; 250
    4392:	08 95       	ret
    4394:	20 91 a4 01 	lds	r18, 0x01A4	; 0x8001a4 <Tail>
    4398:	80 91 a5 01 	lds	r24, 0x01A5	; 0x8001a5 <Head>
    439c:	28 17       	cp	r18, r24
    439e:	69 f0       	breq	.+26     	; 0x43ba <UART_Getc+0x38>
    43a0:	30 e0       	ldi	r19, 0x00	; 0
    43a2:	f9 01       	movw	r30, r18
    43a4:	e2 5d       	subi	r30, 0xD2	; 210
    43a6:	fb 4f       	sbci	r31, 0xFB	; 251
    43a8:	80 81       	ld	r24, Z
    43aa:	2f 5f       	subi	r18, 0xFF	; 255
    43ac:	3f 4f       	sbci	r19, 0xFF	; 255
    43ae:	2f 77       	andi	r18, 0x7F	; 127
    43b0:	33 27       	eor	r19, r19
    43b2:	20 93 a4 01 	sts	0x01A4, r18	; 0x8001a4 <Tail>
    43b6:	90 e0       	ldi	r25, 0x00	; 0
    43b8:	08 95       	ret
    43ba:	80 e0       	ldi	r24, 0x00	; 0
    43bc:	9b ef       	ldi	r25, 0xFB	; 251
    43be:	08 95       	ret

000043c0 <UART_Putc>:
    43c0:	90 91 c0 00 	lds	r25, 0x00C0	; 0x8000c0 <__DATA_REGION_ORIGIN__+0x60>
    43c4:	95 ff       	sbrs	r25, 5
    43c6:	fc cf       	rjmp	.-8      	; 0x43c0 <UART_Putc>
    43c8:	80 93 c6 00 	sts	0x00C6, r24	; 0x8000c6 <__DATA_REGION_ORIGIN__+0x66>
    43cc:	08 95       	ret

000043ce <UART_Puts_P>:
    43ce:	cf 93       	push	r28
    43d0:	df 93       	push	r29
    43d2:	ec 01       	movw	r28, r24
    43d4:	fe 01       	movw	r30, r28
    43d6:	84 91       	lpm	r24, Z
    43d8:	88 23       	and	r24, r24
    43da:	21 f0       	breq	.+8      	; 0x43e4 <UART_Puts_P+0x16>
    43dc:	0e 94 e0 21 	call	0x43c0	; 0x43c0 <UART_Putc>
    43e0:	21 96       	adiw	r28, 0x01	; 1
    43e2:	f8 cf       	rjmp	.-16     	; 0x43d4 <UART_Puts_P+0x6>
    43e4:	df 91       	pop	r29
    43e6:	cf 91       	pop	r28
    43e8:	08 95       	ret

000043ea <UART_Puts>:
    43ea:	cf 93       	push	r28
    43ec:	df 93       	push	r29
    43ee:	ec 01       	movw	r28, r24
    43f0:	89 91       	ld	r24, Y+
    43f2:	88 23       	and	r24, r24
    43f4:	19 f0       	breq	.+6      	; 0x43fc <UART_Puts+0x12>
    43f6:	0e 94 e0 21 	call	0x43c0	; 0x43c0 <UART_Putc>
    43fa:	fa cf       	rjmp	.-12     	; 0x43f0 <UART_Puts+0x6>
    43fc:	df 91       	pop	r29
    43fe:	cf 91       	pop	r28
    4400:	08 95       	ret

00004402 <UART_ReadUntil_P>:
    4402:	8f 92       	push	r8
    4404:	9f 92       	push	r9
    4406:	af 92       	push	r10
    4408:	bf 92       	push	r11
    440a:	cf 92       	push	r12
    440c:	df 92       	push	r13
    440e:	ef 92       	push	r14
    4410:	ff 92       	push	r15
    4412:	0f 93       	push	r16
    4414:	1f 93       	push	r17
    4416:	cf 93       	push	r28
    4418:	df 93       	push	r29
    441a:	66 23       	and	r22, r22
    441c:	09 f4       	brne	.+2      	; 0x4420 <UART_ReadUntil_P+0x1e>
    441e:	3e c0       	rjmp	.+124    	; 0x449c <UART_ReadUntil_P+0x9a>
    4420:	c3 2e       	mov	r12, r19
    4422:	d2 2e       	mov	r13, r18
    4424:	a4 2e       	mov	r10, r20
    4426:	e6 2e       	mov	r14, r22
    4428:	ec 01       	movw	r28, r24
    442a:	82 2f       	mov	r24, r18
    442c:	93 2f       	mov	r25, r19
    442e:	0e 94 e6 2c 	call	0x59cc	; 0x59cc <__strlen_P>
    4432:	98 2e       	mov	r9, r24
    4434:	b1 2c       	mov	r11, r1
    4436:	f1 2c       	mov	r15, r1
    4438:	21 e0       	ldi	r18, 0x01	; 1
    443a:	e2 1a       	sub	r14, r18
    443c:	f1 08       	sbc	r15, r1
    443e:	8d 2c       	mov	r8, r13
    4440:	0b 2d       	mov	r16, r11
    4442:	10 e0       	ldi	r17, 0x00	; 0
    4444:	0e 15       	cp	r16, r14
    4446:	1f 05       	cpc	r17, r15
    4448:	24 f0       	brlt	.+8      	; 0x4452 <UART_ReadUntil_P+0x50>
    444a:	c0 0f       	add	r28, r16
    444c:	d1 1f       	adc	r29, r17
    444e:	18 82       	st	Y, r1
    4450:	27 c0       	rjmp	.+78     	; 0x44a0 <UART_ReadUntil_P+0x9e>
    4452:	0e 94 c1 21 	call	0x4382	; 0x4382 <UART_Getc>
    4456:	81 15       	cp	r24, r1
    4458:	2a ef       	ldi	r18, 0xFA	; 250
    445a:	92 07       	cpc	r25, r18
    445c:	b1 f3       	breq	.-20     	; 0x444a <UART_ReadUntil_P+0x48>
    445e:	81 15       	cp	r24, r1
    4460:	2b ef       	ldi	r18, 0xFB	; 251
    4462:	92 07       	cpc	r25, r18
    4464:	41 f4       	brne	.+16     	; 0x4476 <UART_ReadUntil_P+0x74>
    4466:	aa 20       	and	r10, r10
    4468:	81 f3       	breq	.-32     	; 0x444a <UART_ReadUntil_P+0x48>
    446a:	0e 94 c1 21 	call	0x4382	; 0x4382 <UART_Getc>
    446e:	81 15       	cp	r24, r1
    4470:	2b ef       	ldi	r18, 0xFB	; 251
    4472:	92 07       	cpc	r25, r18
    4474:	d1 f3       	breq	.-12     	; 0x446a <UART_ReadUntil_P+0x68>
    4476:	ed 2d       	mov	r30, r13
    4478:	fc 2d       	mov	r31, r12
    447a:	2e 2f       	mov	r18, r30
    447c:	28 19       	sub	r18, r8
    447e:	29 15       	cp	r18, r9
    4480:	38 f4       	brcc	.+14     	; 0x4490 <UART_ReadUntil_P+0x8e>
    4482:	24 91       	lpm	r18, Z
    4484:	30 e0       	ldi	r19, 0x00	; 0
    4486:	31 96       	adiw	r30, 0x01	; 1
    4488:	28 17       	cp	r18, r24
    448a:	39 07       	cpc	r19, r25
    448c:	b1 f7       	brne	.-20     	; 0x447a <UART_ReadUntil_P+0x78>
    448e:	dd cf       	rjmp	.-70     	; 0x444a <UART_ReadUntil_P+0x48>
    4490:	fe 01       	movw	r30, r28
    4492:	e0 0f       	add	r30, r16
    4494:	f1 1f       	adc	r31, r17
    4496:	80 83       	st	Z, r24
    4498:	b3 94       	inc	r11
    449a:	d2 cf       	rjmp	.-92     	; 0x4440 <UART_ReadUntil_P+0x3e>
    449c:	00 e0       	ldi	r16, 0x00	; 0
    449e:	10 e0       	ldi	r17, 0x00	; 0
    44a0:	c8 01       	movw	r24, r16
    44a2:	df 91       	pop	r29
    44a4:	cf 91       	pop	r28
    44a6:	1f 91       	pop	r17
    44a8:	0f 91       	pop	r16
    44aa:	ff 90       	pop	r15
    44ac:	ef 90       	pop	r14
    44ae:	df 90       	pop	r13
    44b0:	cf 90       	pop	r12
    44b2:	bf 90       	pop	r11
    44b4:	af 90       	pop	r10
    44b6:	9f 90       	pop	r9
    44b8:	8f 90       	pop	r8
    44ba:	08 95       	ret

000044bc <UART_ReadLn>:
    44bc:	cf 92       	push	r12
    44be:	df 92       	push	r13
    44c0:	ef 92       	push	r14
    44c2:	ff 92       	push	r15
    44c4:	0f 93       	push	r16
    44c6:	1f 93       	push	r17
    44c8:	cf 93       	push	r28
    44ca:	df 93       	push	r29
    44cc:	66 23       	and	r22, r22
    44ce:	89 f1       	breq	.+98     	; 0x4532 <UART_ReadLn+0x76>
    44d0:	d4 2f       	mov	r29, r20
    44d2:	7c 01       	movw	r14, r24
    44d4:	c0 e0       	ldi	r28, 0x00	; 0
    44d6:	06 2f       	mov	r16, r22
    44d8:	10 e0       	ldi	r17, 0x00	; 0
    44da:	01 50       	subi	r16, 0x01	; 1
    44dc:	11 09       	sbc	r17, r1
    44de:	cc 2e       	mov	r12, r28
    44e0:	d1 2c       	mov	r13, r1
    44e2:	c0 16       	cp	r12, r16
    44e4:	d1 06       	cpc	r13, r17
    44e6:	ec f4       	brge	.+58     	; 0x4522 <UART_ReadLn+0x66>
    44e8:	0e 94 c1 21 	call	0x4382	; 0x4382 <UART_Getc>
    44ec:	81 15       	cp	r24, r1
    44ee:	2a ef       	ldi	r18, 0xFA	; 250
    44f0:	92 07       	cpc	r25, r18
    44f2:	b9 f0       	breq	.+46     	; 0x4522 <UART_ReadLn+0x66>
    44f4:	81 15       	cp	r24, r1
    44f6:	2b ef       	ldi	r18, 0xFB	; 251
    44f8:	92 07       	cpc	r25, r18
    44fa:	41 f4       	brne	.+16     	; 0x450c <UART_ReadLn+0x50>
    44fc:	dd 23       	and	r29, r29
    44fe:	89 f0       	breq	.+34     	; 0x4522 <UART_ReadLn+0x66>
    4500:	0e 94 c1 21 	call	0x4382	; 0x4382 <UART_Getc>
    4504:	81 15       	cp	r24, r1
    4506:	2b ef       	ldi	r18, 0xFB	; 251
    4508:	92 07       	cpc	r25, r18
    450a:	d1 f3       	breq	.-12     	; 0x4500 <UART_ReadLn+0x44>
    450c:	8a 30       	cpi	r24, 0x0A	; 10
    450e:	91 05       	cpc	r25, r1
    4510:	11 f4       	brne	.+4      	; 0x4516 <UART_ReadLn+0x5a>
    4512:	c1 50       	subi	r28, 0x01	; 1
    4514:	06 c0       	rjmp	.+12     	; 0x4522 <UART_ReadLn+0x66>
    4516:	f7 01       	movw	r30, r14
    4518:	ec 0d       	add	r30, r12
    451a:	fd 1d       	adc	r31, r13
    451c:	80 83       	st	Z, r24
    451e:	cf 5f       	subi	r28, 0xFF	; 255
    4520:	de cf       	rjmp	.-68     	; 0x44de <UART_ReadLn+0x22>
    4522:	2c 2f       	mov	r18, r28
    4524:	30 e0       	ldi	r19, 0x00	; 0
    4526:	f7 01       	movw	r30, r14
    4528:	e2 0f       	add	r30, r18
    452a:	f3 1f       	adc	r31, r19
    452c:	10 82       	st	Z, r1
    452e:	c9 01       	movw	r24, r18
    4530:	02 c0       	rjmp	.+4      	; 0x4536 <UART_ReadLn+0x7a>
    4532:	80 e0       	ldi	r24, 0x00	; 0
    4534:	90 e0       	ldi	r25, 0x00	; 0
    4536:	df 91       	pop	r29
    4538:	cf 91       	pop	r28
    453a:	1f 91       	pop	r17
    453c:	0f 91       	pop	r16
    453e:	ff 90       	pop	r15
    4540:	ef 90       	pop	r14
    4542:	df 90       	pop	r13
    4544:	cf 90       	pop	r12
    4546:	08 95       	ret

00004548 <UART_ReadBytes>:
    4548:	ff 92       	push	r15
    454a:	0f 93       	push	r16
    454c:	1f 93       	push	r17
    454e:	cf 93       	push	r28
    4550:	df 93       	push	r29
    4552:	66 23       	and	r22, r22
    4554:	e9 f0       	breq	.+58     	; 0x4590 <UART_ReadBytes+0x48>
    4556:	16 2f       	mov	r17, r22
    4558:	09 2f       	mov	r16, r25
    455a:	f8 2e       	mov	r15, r24
    455c:	0e 94 c1 21 	call	0x4382	; 0x4382 <UART_Getc>
    4560:	cf 2d       	mov	r28, r15
    4562:	d0 2f       	mov	r29, r16
    4564:	9e 01       	movw	r18, r28
    4566:	21 0f       	add	r18, r17
    4568:	31 1d       	adc	r19, r1
    456a:	89 01       	movw	r16, r18
    456c:	81 15       	cp	r24, r1
    456e:	2a ef       	ldi	r18, 0xFA	; 250
    4570:	92 07       	cpc	r25, r18
    4572:	71 f0       	breq	.+28     	; 0x4590 <UART_ReadBytes+0x48>
    4574:	c0 17       	cp	r28, r16
    4576:	d1 07       	cpc	r29, r17
    4578:	59 f0       	breq	.+22     	; 0x4590 <UART_ReadBytes+0x48>
    457a:	81 15       	cp	r24, r1
    457c:	3b ef       	ldi	r19, 0xFB	; 251
    457e:	93 07       	cpc	r25, r19
    4580:	19 f4       	brne	.+6      	; 0x4588 <UART_ReadBytes+0x40>
    4582:	0e 94 c1 21 	call	0x4382	; 0x4382 <UART_Getc>
    4586:	f9 cf       	rjmp	.-14     	; 0x457a <UART_ReadBytes+0x32>
    4588:	89 93       	st	Y+, r24
    458a:	0e 94 c1 21 	call	0x4382	; 0x4382 <UART_Getc>
    458e:	ee cf       	rjmp	.-36     	; 0x456c <UART_ReadBytes+0x24>
    4590:	df 91       	pop	r29
    4592:	cf 91       	pop	r28
    4594:	1f 91       	pop	r17
    4596:	0f 91       	pop	r16
    4598:	ff 90       	pop	r15
    459a:	08 95       	ret

0000459c <WLAN_GetState>:
    459c:	80 91 a6 01 	lds	r24, 0x01A6	; 0x8001a6 <WLAN_States>
    45a0:	08 95       	ret

000045a2 <WLAN_Init>:
    45a2:	cf 93       	push	r28
    45a4:	df 93       	push	r29
    45a6:	cd b7       	in	r28, 0x3d	; 61
    45a8:	de b7       	in	r29, 0x3e	; 62
    45aa:	60 97       	sbiw	r28, 0x10	; 16
    45ac:	0f b6       	in	r0, 0x3f	; 63
    45ae:	f8 94       	cli
    45b0:	de bf       	out	0x3e, r29	; 62
    45b2:	0f be       	out	0x3f, r0	; 63
    45b4:	cd bf       	out	0x3d, r28	; 61
    45b6:	80 91 a6 01 	lds	r24, 0x01A6	; 0x8001a6 <WLAN_States>
    45ba:	8e 7f       	andi	r24, 0xFE	; 254
    45bc:	80 93 a6 01 	sts	0x01A6, r24	; 0x8001a6 <WLAN_States>
    45c0:	2f ef       	ldi	r18, 0xFF	; 255
    45c2:	80 e7       	ldi	r24, 0x70	; 112
    45c4:	92 e0       	ldi	r25, 0x02	; 2
    45c6:	21 50       	subi	r18, 0x01	; 1
    45c8:	80 40       	sbci	r24, 0x00	; 0
    45ca:	90 40       	sbci	r25, 0x00	; 0
    45cc:	e1 f7       	brne	.-8      	; 0x45c6 <WLAN_Init+0x24>
    45ce:	00 c0       	rjmp	.+0      	; 0x45d0 <WLAN_Init+0x2e>
    45d0:	00 00       	nop
    45d2:	2f ef       	ldi	r18, 0xFF	; 255
    45d4:	83 ed       	ldi	r24, 0xD3	; 211
    45d6:	90 e3       	ldi	r25, 0x30	; 48
    45d8:	21 50       	subi	r18, 0x01	; 1
    45da:	80 40       	sbci	r24, 0x00	; 0
    45dc:	90 40       	sbci	r25, 0x00	; 0
    45de:	e1 f7       	brne	.-8      	; 0x45d8 <WLAN_Init+0x36>
    45e0:	00 c0       	rjmp	.+0      	; 0x45e2 <WLAN_Init+0x40>
    45e2:	00 00       	nop
    45e4:	60 e8       	ldi	r22, 0x80	; 128
    45e6:	75 e2       	ldi	r23, 0x25	; 37
    45e8:	80 e0       	ldi	r24, 0x00	; 0
    45ea:	90 e0       	ldi	r25, 0x00	; 0
    45ec:	0e 94 6f 21 	call	0x42de	; 0x42de <UART_Init>
    45f0:	8c e9       	ldi	r24, 0x9C	; 156
    45f2:	9a e0       	ldi	r25, 0x0A	; 10
    45f4:	0e 94 e7 21 	call	0x43ce	; 0x43ce <UART_Puts_P>
    45f8:	2f ef       	ldi	r18, 0xFF	; 255
    45fa:	89 e6       	ldi	r24, 0x69	; 105
    45fc:	98 e1       	ldi	r25, 0x18	; 24
    45fe:	21 50       	subi	r18, 0x01	; 1
    4600:	80 40       	sbci	r24, 0x00	; 0
    4602:	90 40       	sbci	r25, 0x00	; 0
    4604:	e1 f7       	brne	.-8      	; 0x45fe <WLAN_Init+0x5c>
    4606:	00 c0       	rjmp	.+0      	; 0x4608 <WLAN_Init+0x66>
    4608:	00 00       	nop
    460a:	0e 94 b8 21 	call	0x4370	; 0x4370 <UART_Pending>
    460e:	88 23       	and	r24, r24
    4610:	d9 f0       	breq	.+54     	; 0x4648 <WLAN_Init+0xa6>
    4612:	0e 94 b8 21 	call	0x4370	; 0x4370 <UART_Pending>
    4616:	88 23       	and	r24, r24
    4618:	a9 f0       	breq	.+42     	; 0x4644 <WLAN_Init+0xa2>
    461a:	40 e0       	ldi	r20, 0x00	; 0
    461c:	60 e1       	ldi	r22, 0x10	; 16
    461e:	ce 01       	movw	r24, r28
    4620:	01 96       	adiw	r24, 0x01	; 1
    4622:	0e 94 5e 22 	call	0x44bc	; 0x44bc <UART_ReadLn>
    4626:	69 e9       	ldi	r22, 0x99	; 153
    4628:	7a e0       	ldi	r23, 0x0A	; 10
    462a:	ce 01       	movw	r24, r28
    462c:	01 96       	adiw	r24, 0x01	; 1
    462e:	0e 94 d6 2c 	call	0x59ac	; 0x59ac <strcmp_P>
    4632:	89 2b       	or	r24, r25
    4634:	71 f7       	brne	.-36     	; 0x4612 <WLAN_Init+0x70>
    4636:	80 91 a6 01 	lds	r24, 0x01A6	; 0x8001a6 <WLAN_States>
    463a:	81 60       	ori	r24, 0x01	; 1
    463c:	80 93 a6 01 	sts	0x01A6, r24	; 0x8001a6 <WLAN_States>
    4640:	80 e0       	ldi	r24, 0x00	; 0
    4642:	03 c0       	rjmp	.+6      	; 0x464a <WLAN_Init+0xa8>
    4644:	82 e0       	ldi	r24, 0x02	; 2
    4646:	01 c0       	rjmp	.+2      	; 0x464a <WLAN_Init+0xa8>
    4648:	81 e0       	ldi	r24, 0x01	; 1
    464a:	60 96       	adiw	r28, 0x10	; 16
    464c:	0f b6       	in	r0, 0x3f	; 63
    464e:	f8 94       	cli
    4650:	de bf       	out	0x3e, r29	; 62
    4652:	0f be       	out	0x3f, r0	; 63
    4654:	cd bf       	out	0x3d, r28	; 61
    4656:	df 91       	pop	r29
    4658:	cf 91       	pop	r28
    465a:	08 95       	ret

0000465c <WLAN_ListAccessPoints>:
    465c:	af 92       	push	r10
    465e:	bf 92       	push	r11
    4660:	cf 92       	push	r12
    4662:	df 92       	push	r13
    4664:	ef 92       	push	r14
    4666:	ff 92       	push	r15
    4668:	0f 93       	push	r16
    466a:	1f 93       	push	r17
    466c:	cf 93       	push	r28
    466e:	df 93       	push	r29
    4670:	cd b7       	in	r28, 0x3d	; 61
    4672:	de b7       	in	r29, 0x3e	; 62
    4674:	c4 55       	subi	r28, 0x54	; 84
    4676:	d1 09       	sbc	r29, r1
    4678:	0f b6       	in	r0, 0x3f	; 63
    467a:	f8 94       	cli
    467c:	de bf       	out	0x3e, r29	; 62
    467e:	0f be       	out	0x3f, r0	; 63
    4680:	cd bf       	out	0x3d, r28	; 61
    4682:	8e e8       	ldi	r24, 0x8E	; 142
    4684:	9a e0       	ldi	r25, 0x0A	; 10
    4686:	0e 94 e7 21 	call	0x43ce	; 0x43ce <UART_Puts_P>
    468a:	10 e0       	ldi	r17, 0x00	; 0
    468c:	41 e0       	ldi	r20, 0x01	; 1
    468e:	60 e8       	ldi	r22, 0x80	; 128
    4690:	ce 01       	movw	r24, r28
    4692:	01 96       	adiw	r24, 0x01	; 1
    4694:	0e 94 5e 22 	call	0x44bc	; 0x44bc <UART_ReadLn>
    4698:	88 23       	and	r24, r24
    469a:	c1 f3       	breq	.-16     	; 0x468c <WLAN_ListAccessPoints+0x30>
    469c:	6b e8       	ldi	r22, 0x8B	; 139
    469e:	7a e0       	ldi	r23, 0x0A	; 10
    46a0:	ce 01       	movw	r24, r28
    46a2:	01 96       	adiw	r24, 0x01	; 1
    46a4:	0e 94 d6 2c 	call	0x59ac	; 0x59ac <strcmp_P>
    46a8:	89 2b       	or	r24, r25
    46aa:	09 f4       	brne	.+2      	; 0x46ae <WLAN_ListAccessPoints+0x52>
    46ac:	4b c0       	rjmp	.+150    	; 0x4744 <WLAN_ListAccessPoints+0xe8>
    46ae:	65 e8       	ldi	r22, 0x85	; 133
    46b0:	7a e0       	ldi	r23, 0x0A	; 10
    46b2:	ce 01       	movw	r24, r28
    46b4:	01 96       	adiw	r24, 0x01	; 1
    46b6:	0e 94 d6 2c 	call	0x59ac	; 0x59ac <strcmp_P>
    46ba:	89 2b       	or	r24, r25
    46bc:	09 f4       	brne	.+2      	; 0x46c0 <WLAN_ListAccessPoints+0x64>
    46be:	44 c0       	rjmp	.+136    	; 0x4748 <WLAN_ListAccessPoints+0xec>
    46c0:	47 e0       	ldi	r20, 0x07	; 7
    46c2:	50 e0       	ldi	r21, 0x00	; 0
    46c4:	6d e7       	ldi	r22, 0x7D	; 125
    46c6:	7a e0       	ldi	r23, 0x0A	; 10
    46c8:	ce 01       	movw	r24, r28
    46ca:	01 96       	adiw	r24, 0x01	; 1
    46cc:	0e 94 07 2d 	call	0x5a0e	; 0x5a0e <strncmp_P>
    46d0:	89 2b       	or	r24, r25
    46d2:	e1 f6       	brne	.-72     	; 0x468c <WLAN_ListAccessPoints+0x30>
    46d4:	14 30       	cpi	r17, 0x04	; 4
    46d6:	d4 f6       	brge	.-76     	; 0x468c <WLAN_ListAccessPoints+0x30>
    46d8:	68 e7       	ldi	r22, 0x78	; 120
    46da:	7a e0       	ldi	r23, 0x0A	; 10
    46dc:	ce 01       	movw	r24, r28
    46de:	08 96       	adiw	r24, 0x08	; 8
    46e0:	0e 94 d1 2c 	call	0x59a2	; 0x59a2 <strtok_P>
    46e4:	00 e0       	ldi	r16, 0x00	; 0
    46e6:	42 e2       	ldi	r20, 0x22	; 34
    46e8:	14 03       	mulsu	r17, r20
    46ea:	90 01       	movw	r18, r0
    46ec:	11 24       	eor	r1, r1
    46ee:	f9 01       	movw	r30, r18
    46f0:	eb 55       	subi	r30, 0x5B	; 91
    46f2:	fc 4f       	sbci	r31, 0xFC	; 252
    46f4:	7f 01       	movw	r14, r30
    46f6:	6f 01       	movw	r12, r30
    46f8:	f0 e2       	ldi	r31, 0x20	; 32
    46fa:	cf 0e       	add	r12, r31
    46fc:	d1 1c       	adc	r13, r1
    46fe:	57 01       	movw	r10, r14
    4700:	21 e2       	ldi	r18, 0x21	; 33
    4702:	a2 0e       	add	r10, r18
    4704:	b1 1c       	adc	r11, r1
    4706:	00 97       	sbiw	r24, 0x00	; 0
    4708:	d9 f0       	breq	.+54     	; 0x4740 <WLAN_ListAccessPoints+0xe4>
    470a:	01 30       	cpi	r16, 0x01	; 1
    470c:	59 f0       	breq	.+22     	; 0x4724 <WLAN_ListAccessPoints+0xc8>
    470e:	30 f0       	brcs	.+12     	; 0x471c <WLAN_ListAccessPoints+0xc0>
    4710:	02 30       	cpi	r16, 0x02	; 2
    4712:	71 f4       	brne	.+28     	; 0x4730 <WLAN_ListAccessPoints+0xd4>
    4714:	0e 94 aa 2c 	call	0x5954	; 0x5954 <atoi>
    4718:	f5 01       	movw	r30, r10
    471a:	09 c0       	rjmp	.+18     	; 0x472e <WLAN_ListAccessPoints+0xd2>
    471c:	0e 94 aa 2c 	call	0x5954	; 0x5954 <atoi>
    4720:	f6 01       	movw	r30, r12
    4722:	05 c0       	rjmp	.+10     	; 0x472e <WLAN_ListAccessPoints+0xd2>
    4724:	bc 01       	movw	r22, r24
    4726:	c7 01       	movw	r24, r14
    4728:	0e 94 63 2d 	call	0x5ac6	; 0x5ac6 <strcpy>
    472c:	01 c0       	rjmp	.+2      	; 0x4730 <WLAN_ListAccessPoints+0xd4>
    472e:	80 83       	st	Z, r24
    4730:	0f 5f       	subi	r16, 0xFF	; 255
    4732:	63 e7       	ldi	r22, 0x73	; 115
    4734:	7a e0       	ldi	r23, 0x0A	; 10
    4736:	80 e0       	ldi	r24, 0x00	; 0
    4738:	90 e0       	ldi	r25, 0x00	; 0
    473a:	0e 94 d1 2c 	call	0x59a2	; 0x59a2 <strtok_P>
    473e:	e3 cf       	rjmp	.-58     	; 0x4706 <WLAN_ListAccessPoints+0xaa>
    4740:	1f 5f       	subi	r17, 0xFF	; 255
    4742:	a4 cf       	rjmp	.-184    	; 0x468c <WLAN_ListAccessPoints+0x30>
    4744:	81 2f       	mov	r24, r17
    4746:	01 c0       	rjmp	.+2      	; 0x474a <WLAN_ListAccessPoints+0xee>
    4748:	8f ef       	ldi	r24, 0xFF	; 255
    474a:	cc 5a       	subi	r28, 0xAC	; 172
    474c:	df 4f       	sbci	r29, 0xFF	; 255
    474e:	0f b6       	in	r0, 0x3f	; 63
    4750:	f8 94       	cli
    4752:	de bf       	out	0x3e, r29	; 62
    4754:	0f be       	out	0x3f, r0	; 63
    4756:	cd bf       	out	0x3d, r28	; 61
    4758:	df 91       	pop	r29
    475a:	cf 91       	pop	r28
    475c:	1f 91       	pop	r17
    475e:	0f 91       	pop	r16
    4760:	ff 90       	pop	r15
    4762:	ef 90       	pop	r14
    4764:	df 90       	pop	r13
    4766:	cf 90       	pop	r12
    4768:	bf 90       	pop	r11
    476a:	af 90       	pop	r10
    476c:	08 95       	ret

0000476e <WLAN_JoinAccessPoint>:
    476e:	ef 92       	push	r14
    4770:	ff 92       	push	r15
    4772:	0f 93       	push	r16
    4774:	1f 93       	push	r17
    4776:	cf 93       	push	r28
    4778:	df 93       	push	r29
    477a:	cd b7       	in	r28, 0x3d	; 61
    477c:	de b7       	in	r29, 0x3e	; 62
    477e:	60 97       	sbiw	r28, 0x10	; 16
    4780:	0f b6       	in	r0, 0x3f	; 63
    4782:	f8 94       	cli
    4784:	de bf       	out	0x3e, r29	; 62
    4786:	0f be       	out	0x3f, r0	; 63
    4788:	cd bf       	out	0x3d, r28	; 61
    478a:	7c 01       	movw	r14, r24
    478c:	8b 01       	movw	r16, r22
    478e:	80 91 a6 01 	lds	r24, 0x01A6	; 0x8001a6 <WLAN_States>
    4792:	8d 7f       	andi	r24, 0xFD	; 253
    4794:	80 93 a6 01 	sts	0x01A6, r24	; 0x8001a6 <WLAN_States>
    4798:	88 e6       	ldi	r24, 0x68	; 104
    479a:	9a e0       	ldi	r25, 0x0A	; 10
    479c:	0e 94 e7 21 	call	0x43ce	; 0x43ce <UART_Puts_P>
    47a0:	c7 01       	movw	r24, r14
    47a2:	0e 94 f5 21 	call	0x43ea	; 0x43ea <UART_Puts>
    47a6:	84 e6       	ldi	r24, 0x64	; 100
    47a8:	9a e0       	ldi	r25, 0x0A	; 10
    47aa:	0e 94 e7 21 	call	0x43ce	; 0x43ce <UART_Puts_P>
    47ae:	c8 01       	movw	r24, r16
    47b0:	0e 94 f5 21 	call	0x43ea	; 0x43ea <UART_Puts>
    47b4:	80 e6       	ldi	r24, 0x60	; 96
    47b6:	9a e0       	ldi	r25, 0x0A	; 10
    47b8:	0e 94 e7 21 	call	0x43ce	; 0x43ce <UART_Puts_P>
    47bc:	41 e0       	ldi	r20, 0x01	; 1
    47be:	60 e1       	ldi	r22, 0x10	; 16
    47c0:	ce 01       	movw	r24, r28
    47c2:	01 96       	adiw	r24, 0x01	; 1
    47c4:	0e 94 5e 22 	call	0x44bc	; 0x44bc <UART_ReadLn>
    47c8:	88 23       	and	r24, r24
    47ca:	c1 f3       	breq	.-16     	; 0x47bc <WLAN_JoinAccessPoint+0x4e>
    47cc:	6d e5       	ldi	r22, 0x5D	; 93
    47ce:	7a e0       	ldi	r23, 0x0A	; 10
    47d0:	ce 01       	movw	r24, r28
    47d2:	01 96       	adiw	r24, 0x01	; 1
    47d4:	0e 94 d6 2c 	call	0x59ac	; 0x59ac <strcmp_P>
    47d8:	89 2b       	or	r24, r25
    47da:	39 f4       	brne	.+14     	; 0x47ea <WLAN_JoinAccessPoint+0x7c>
    47dc:	80 91 a6 01 	lds	r24, 0x01A6	; 0x8001a6 <WLAN_States>
    47e0:	82 60       	ori	r24, 0x02	; 2
    47e2:	80 93 a6 01 	sts	0x01A6, r24	; 0x8001a6 <WLAN_States>
    47e6:	80 e0       	ldi	r24, 0x00	; 0
    47e8:	11 c0       	rjmp	.+34     	; 0x480c <WLAN_JoinAccessPoint+0x9e>
    47ea:	68 e5       	ldi	r22, 0x58	; 88
    47ec:	7a e0       	ldi	r23, 0x0A	; 10
    47ee:	ce 01       	movw	r24, r28
    47f0:	01 96       	adiw	r24, 0x01	; 1
    47f2:	0e 94 d6 2c 	call	0x59ac	; 0x59ac <strcmp_P>
    47f6:	89 2b       	or	r24, r25
    47f8:	41 f0       	breq	.+16     	; 0x480a <WLAN_JoinAccessPoint+0x9c>
    47fa:	62 e5       	ldi	r22, 0x52	; 82
    47fc:	7a e0       	ldi	r23, 0x0A	; 10
    47fe:	ce 01       	movw	r24, r28
    4800:	01 96       	adiw	r24, 0x01	; 1
    4802:	0e 94 d6 2c 	call	0x59ac	; 0x59ac <strcmp_P>
    4806:	89 2b       	or	r24, r25
    4808:	c9 f6       	brne	.-78     	; 0x47bc <WLAN_JoinAccessPoint+0x4e>
    480a:	8f ef       	ldi	r24, 0xFF	; 255
    480c:	60 96       	adiw	r28, 0x10	; 16
    480e:	0f b6       	in	r0, 0x3f	; 63
    4810:	f8 94       	cli
    4812:	de bf       	out	0x3e, r29	; 62
    4814:	0f be       	out	0x3f, r0	; 63
    4816:	cd bf       	out	0x3d, r28	; 61
    4818:	df 91       	pop	r29
    481a:	cf 91       	pop	r28
    481c:	1f 91       	pop	r17
    481e:	0f 91       	pop	r16
    4820:	ff 90       	pop	r15
    4822:	ef 90       	pop	r14
    4824:	08 95       	ret

00004826 <WLAN_TcpConnect>:
    4826:	ef 92       	push	r14
    4828:	ff 92       	push	r15
    482a:	0f 93       	push	r16
    482c:	1f 93       	push	r17
    482e:	cf 93       	push	r28
    4830:	df 93       	push	r29
    4832:	cd b7       	in	r28, 0x3d	; 61
    4834:	de b7       	in	r29, 0x3e	; 62
    4836:	60 97       	sbiw	r28, 0x10	; 16
    4838:	0f b6       	in	r0, 0x3f	; 63
    483a:	f8 94       	cli
    483c:	de bf       	out	0x3e, r29	; 62
    483e:	0f be       	out	0x3f, r0	; 63
    4840:	cd bf       	out	0x3d, r28	; 61
    4842:	7c 01       	movw	r14, r24
    4844:	8b 01       	movw	r16, r22
    4846:	80 91 a6 01 	lds	r24, 0x01A6	; 0x8001a6 <WLAN_States>
    484a:	8b 7f       	andi	r24, 0xFB	; 251
    484c:	80 93 a6 01 	sts	0x01A6, r24	; 0x8001a6 <WLAN_States>
    4850:	8e e3       	ldi	r24, 0x3E	; 62
    4852:	9a e0       	ldi	r25, 0x0A	; 10
    4854:	0e 94 e7 21 	call	0x43ce	; 0x43ce <UART_Puts_P>
    4858:	c7 01       	movw	r24, r14
    485a:	0e 94 f5 21 	call	0x43ea	; 0x43ea <UART_Puts>
    485e:	4a e0       	ldi	r20, 0x0A	; 10
    4860:	be 01       	movw	r22, r28
    4862:	6f 5f       	subi	r22, 0xFF	; 255
    4864:	7f 4f       	sbci	r23, 0xFF	; 255
    4866:	c8 01       	movw	r24, r16
    4868:	0e 94 b9 2d 	call	0x5b72	; 0x5b72 <__itoa_ncheck>
    486c:	8b e3       	ldi	r24, 0x3B	; 59
    486e:	9a e0       	ldi	r25, 0x0A	; 10
    4870:	0e 94 e7 21 	call	0x43ce	; 0x43ce <UART_Puts_P>
    4874:	ce 01       	movw	r24, r28
    4876:	01 96       	adiw	r24, 0x01	; 1
    4878:	0e 94 f5 21 	call	0x43ea	; 0x43ea <UART_Puts>
    487c:	88 e3       	ldi	r24, 0x38	; 56
    487e:	9a e0       	ldi	r25, 0x0A	; 10
    4880:	0e 94 e7 21 	call	0x43ce	; 0x43ce <UART_Puts_P>
    4884:	41 e0       	ldi	r20, 0x01	; 1
    4886:	60 e1       	ldi	r22, 0x10	; 16
    4888:	ce 01       	movw	r24, r28
    488a:	01 96       	adiw	r24, 0x01	; 1
    488c:	0e 94 5e 22 	call	0x44bc	; 0x44bc <UART_ReadLn>
    4890:	88 23       	and	r24, r24
    4892:	c1 f3       	breq	.-16     	; 0x4884 <WLAN_TcpConnect+0x5e>
    4894:	65 e3       	ldi	r22, 0x35	; 53
    4896:	7a e0       	ldi	r23, 0x0A	; 10
    4898:	ce 01       	movw	r24, r28
    489a:	01 96       	adiw	r24, 0x01	; 1
    489c:	0e 94 d6 2c 	call	0x59ac	; 0x59ac <strcmp_P>
    48a0:	89 2b       	or	r24, r25
    48a2:	39 f4       	brne	.+14     	; 0x48b2 <WLAN_TcpConnect+0x8c>
    48a4:	80 91 a6 01 	lds	r24, 0x01A6	; 0x8001a6 <WLAN_States>
    48a8:	84 60       	ori	r24, 0x04	; 4
    48aa:	80 93 a6 01 	sts	0x01A6, r24	; 0x8001a6 <WLAN_States>
    48ae:	80 e0       	ldi	r24, 0x00	; 0
    48b0:	11 c0       	rjmp	.+34     	; 0x48d4 <WLAN_TcpConnect+0xae>
    48b2:	60 e3       	ldi	r22, 0x30	; 48
    48b4:	7a e0       	ldi	r23, 0x0A	; 10
    48b6:	ce 01       	movw	r24, r28
    48b8:	01 96       	adiw	r24, 0x01	; 1
    48ba:	0e 94 d6 2c 	call	0x59ac	; 0x59ac <strcmp_P>
    48be:	89 2b       	or	r24, r25
    48c0:	41 f0       	breq	.+16     	; 0x48d2 <WLAN_TcpConnect+0xac>
    48c2:	6a e2       	ldi	r22, 0x2A	; 42
    48c4:	7a e0       	ldi	r23, 0x0A	; 10
    48c6:	ce 01       	movw	r24, r28
    48c8:	01 96       	adiw	r24, 0x01	; 1
    48ca:	0e 94 d6 2c 	call	0x59ac	; 0x59ac <strcmp_P>
    48ce:	89 2b       	or	r24, r25
    48d0:	c9 f6       	brne	.-78     	; 0x4884 <WLAN_TcpConnect+0x5e>
    48d2:	8f ef       	ldi	r24, 0xFF	; 255
    48d4:	60 96       	adiw	r28, 0x10	; 16
    48d6:	0f b6       	in	r0, 0x3f	; 63
    48d8:	f8 94       	cli
    48da:	de bf       	out	0x3e, r29	; 62
    48dc:	0f be       	out	0x3f, r0	; 63
    48de:	cd bf       	out	0x3d, r28	; 61
    48e0:	df 91       	pop	r29
    48e2:	cf 91       	pop	r28
    48e4:	1f 91       	pop	r17
    48e6:	0f 91       	pop	r16
    48e8:	ff 90       	pop	r15
    48ea:	ef 90       	pop	r14
    48ec:	08 95       	ret

000048ee <WLAN_TcpSend>:
    48ee:	0f 93       	push	r16
    48f0:	1f 93       	push	r17
    48f2:	cf 93       	push	r28
    48f4:	df 93       	push	r29
    48f6:	cd b7       	in	r28, 0x3d	; 61
    48f8:	de b7       	in	r29, 0x3e	; 62
    48fa:	60 97       	sbiw	r28, 0x10	; 16
    48fc:	0f b6       	in	r0, 0x3f	; 63
    48fe:	f8 94       	cli
    4900:	de bf       	out	0x3e, r29	; 62
    4902:	0f be       	out	0x3f, r0	; 63
    4904:	cd bf       	out	0x3d, r28	; 61
    4906:	8c 01       	movw	r16, r24
    4908:	8e e1       	ldi	r24, 0x1E	; 30
    490a:	9a e0       	ldi	r25, 0x0A	; 10
    490c:	0e 94 e7 21 	call	0x43ce	; 0x43ce <UART_Puts_P>
    4910:	f8 01       	movw	r30, r16
    4912:	01 90       	ld	r0, Z+
    4914:	00 20       	and	r0, r0
    4916:	e9 f7       	brne	.-6      	; 0x4912 <WLAN_TcpSend+0x24>
    4918:	cf 01       	movw	r24, r30
    491a:	01 97       	sbiw	r24, 0x01	; 1
    491c:	4a e0       	ldi	r20, 0x0A	; 10
    491e:	be 01       	movw	r22, r28
    4920:	6f 5f       	subi	r22, 0xFF	; 255
    4922:	7f 4f       	sbci	r23, 0xFF	; 255
    4924:	80 1b       	sub	r24, r16
    4926:	91 0b       	sbc	r25, r17
    4928:	0e 94 b9 2d 	call	0x5b72	; 0x5b72 <__itoa_ncheck>
    492c:	ce 01       	movw	r24, r28
    492e:	01 96       	adiw	r24, 0x01	; 1
    4930:	0e 94 f5 21 	call	0x43ea	; 0x43ea <UART_Puts>
    4934:	8b e1       	ldi	r24, 0x1B	; 27
    4936:	9a e0       	ldi	r25, 0x0A	; 10
    4938:	0e 94 e7 21 	call	0x43ce	; 0x43ce <UART_Puts_P>
    493c:	8f e3       	ldi	r24, 0x3F	; 63
    493e:	9c e9       	ldi	r25, 0x9C	; 156
    4940:	01 97       	sbiw	r24, 0x01	; 1
    4942:	f1 f7       	brne	.-4      	; 0x4940 <WLAN_TcpSend+0x52>
    4944:	00 c0       	rjmp	.+0      	; 0x4946 <WLAN_TcpSend+0x58>
    4946:	00 00       	nop
    4948:	c8 01       	movw	r24, r16
    494a:	0e 94 f5 21 	call	0x43ea	; 0x43ea <UART_Puts>
    494e:	88 e1       	ldi	r24, 0x18	; 24
    4950:	9a e0       	ldi	r25, 0x0A	; 10
    4952:	0e 94 e7 21 	call	0x43ce	; 0x43ce <UART_Puts_P>
    4956:	41 e0       	ldi	r20, 0x01	; 1
    4958:	60 e1       	ldi	r22, 0x10	; 16
    495a:	ce 01       	movw	r24, r28
    495c:	01 96       	adiw	r24, 0x01	; 1
    495e:	0e 94 5e 22 	call	0x44bc	; 0x44bc <UART_ReadLn>
    4962:	00 97       	sbiw	r24, 0x00	; 0
    4964:	c1 f3       	breq	.-16     	; 0x4956 <WLAN_TcpSend+0x68>
    4966:	01 96       	adiw	r24, 0x01	; 1
    4968:	c9 f0       	breq	.+50     	; 0x499c <WLAN_TcpSend+0xae>
    496a:	60 e1       	ldi	r22, 0x10	; 16
    496c:	7a e0       	ldi	r23, 0x0A	; 10
    496e:	ce 01       	movw	r24, r28
    4970:	01 96       	adiw	r24, 0x01	; 1
    4972:	0e 94 d6 2c 	call	0x59ac	; 0x59ac <strcmp_P>
    4976:	89 2b       	or	r24, r25
    4978:	99 f0       	breq	.+38     	; 0x49a0 <WLAN_TcpSend+0xb2>
    497a:	6b e0       	ldi	r22, 0x0B	; 11
    497c:	7a e0       	ldi	r23, 0x0A	; 10
    497e:	ce 01       	movw	r24, r28
    4980:	01 96       	adiw	r24, 0x01	; 1
    4982:	0e 94 d6 2c 	call	0x59ac	; 0x59ac <strcmp_P>
    4986:	89 2b       	or	r24, r25
    4988:	69 f0       	breq	.+26     	; 0x49a4 <WLAN_TcpSend+0xb6>
    498a:	65 e0       	ldi	r22, 0x05	; 5
    498c:	7a e0       	ldi	r23, 0x0A	; 10
    498e:	ce 01       	movw	r24, r28
    4990:	01 96       	adiw	r24, 0x01	; 1
    4992:	0e 94 d6 2c 	call	0x59ac	; 0x59ac <strcmp_P>
    4996:	89 2b       	or	r24, r25
    4998:	f1 f6       	brne	.-68     	; 0x4956 <WLAN_TcpSend+0x68>
    499a:	04 c0       	rjmp	.+8      	; 0x49a4 <WLAN_TcpSend+0xb6>
    499c:	83 e0       	ldi	r24, 0x03	; 3
    499e:	03 c0       	rjmp	.+6      	; 0x49a6 <WLAN_TcpSend+0xb8>
    49a0:	80 e0       	ldi	r24, 0x00	; 0
    49a2:	01 c0       	rjmp	.+2      	; 0x49a6 <WLAN_TcpSend+0xb8>
    49a4:	8f ef       	ldi	r24, 0xFF	; 255
    49a6:	60 96       	adiw	r28, 0x10	; 16
    49a8:	0f b6       	in	r0, 0x3f	; 63
    49aa:	f8 94       	cli
    49ac:	de bf       	out	0x3e, r29	; 62
    49ae:	0f be       	out	0x3f, r0	; 63
    49b0:	cd bf       	out	0x3d, r28	; 61
    49b2:	df 91       	pop	r29
    49b4:	cf 91       	pop	r28
    49b6:	1f 91       	pop	r17
    49b8:	0f 91       	pop	r16
    49ba:	08 95       	ret

000049bc <WLAN_Disconnect>:
    49bc:	cf 93       	push	r28
    49be:	df 93       	push	r29
    49c0:	cd b7       	in	r28, 0x3d	; 61
    49c2:	de b7       	in	r29, 0x3e	; 62
    49c4:	60 97       	sbiw	r28, 0x10	; 16
    49c6:	0f b6       	in	r0, 0x3f	; 63
    49c8:	f8 94       	cli
    49ca:	de bf       	out	0x3e, r29	; 62
    49cc:	0f be       	out	0x3f, r0	; 63
    49ce:	cd bf       	out	0x3d, r28	; 61
    49d0:	8a ef       	ldi	r24, 0xFA	; 250
    49d2:	99 e0       	ldi	r25, 0x09	; 9
    49d4:	0e 94 e7 21 	call	0x43ce	; 0x43ce <UART_Puts_P>
    49d8:	80 91 a6 01 	lds	r24, 0x01A6	; 0x8001a6 <WLAN_States>
    49dc:	89 7f       	andi	r24, 0xF9	; 249
    49de:	80 93 a6 01 	sts	0x01A6, r24	; 0x8001a6 <WLAN_States>
    49e2:	41 e0       	ldi	r20, 0x01	; 1
    49e4:	60 e1       	ldi	r22, 0x10	; 16
    49e6:	ce 01       	movw	r24, r28
    49e8:	01 96       	adiw	r24, 0x01	; 1
    49ea:	0e 94 5e 22 	call	0x44bc	; 0x44bc <UART_ReadLn>
    49ee:	00 97       	sbiw	r24, 0x00	; 0
    49f0:	c1 f3       	breq	.-16     	; 0x49e2 <WLAN_Disconnect+0x26>
    49f2:	01 96       	adiw	r24, 0x01	; 1
    49f4:	49 f1       	breq	.+82     	; 0x4a48 <WLAN_Disconnect+0x8c>
    49f6:	67 ef       	ldi	r22, 0xF7	; 247
    49f8:	79 e0       	ldi	r23, 0x09	; 9
    49fa:	ce 01       	movw	r24, r28
    49fc:	01 96       	adiw	r24, 0x01	; 1
    49fe:	0e 94 d6 2c 	call	0x59ac	; 0x59ac <strcmp_P>
    4a02:	89 2b       	or	r24, r25
    4a04:	19 f1       	breq	.+70     	; 0x4a4c <WLAN_Disconnect+0x90>
    4a06:	67 ee       	ldi	r22, 0xE7	; 231
    4a08:	79 e0       	ldi	r23, 0x09	; 9
    4a0a:	ce 01       	movw	r24, r28
    4a0c:	01 96       	adiw	r24, 0x01	; 1
    4a0e:	0e 94 d6 2c 	call	0x59ac	; 0x59ac <strcmp_P>
    4a12:	89 2b       	or	r24, r25
    4a14:	d9 f0       	breq	.+54     	; 0x4a4c <WLAN_Disconnect+0x90>
    4a16:	69 ed       	ldi	r22, 0xD9	; 217
    4a18:	79 e0       	ldi	r23, 0x09	; 9
    4a1a:	ce 01       	movw	r24, r28
    4a1c:	01 96       	adiw	r24, 0x01	; 1
    4a1e:	0e 94 d6 2c 	call	0x59ac	; 0x59ac <strcmp_P>
    4a22:	89 2b       	or	r24, r25
    4a24:	99 f0       	breq	.+38     	; 0x4a4c <WLAN_Disconnect+0x90>
    4a26:	64 ed       	ldi	r22, 0xD4	; 212
    4a28:	79 e0       	ldi	r23, 0x09	; 9
    4a2a:	ce 01       	movw	r24, r28
    4a2c:	01 96       	adiw	r24, 0x01	; 1
    4a2e:	0e 94 d6 2c 	call	0x59ac	; 0x59ac <strcmp_P>
    4a32:	89 2b       	or	r24, r25
    4a34:	69 f0       	breq	.+26     	; 0x4a50 <WLAN_Disconnect+0x94>
    4a36:	6e ec       	ldi	r22, 0xCE	; 206
    4a38:	79 e0       	ldi	r23, 0x09	; 9
    4a3a:	ce 01       	movw	r24, r28
    4a3c:	01 96       	adiw	r24, 0x01	; 1
    4a3e:	0e 94 d6 2c 	call	0x59ac	; 0x59ac <strcmp_P>
    4a42:	89 2b       	or	r24, r25
    4a44:	71 f6       	brne	.-100    	; 0x49e2 <WLAN_Disconnect+0x26>
    4a46:	04 c0       	rjmp	.+8      	; 0x4a50 <WLAN_Disconnect+0x94>
    4a48:	83 e0       	ldi	r24, 0x03	; 3
    4a4a:	03 c0       	rjmp	.+6      	; 0x4a52 <WLAN_Disconnect+0x96>
    4a4c:	80 e0       	ldi	r24, 0x00	; 0
    4a4e:	01 c0       	rjmp	.+2      	; 0x4a52 <WLAN_Disconnect+0x96>
    4a50:	8f ef       	ldi	r24, 0xFF	; 255
    4a52:	60 96       	adiw	r28, 0x10	; 16
    4a54:	0f b6       	in	r0, 0x3f	; 63
    4a56:	f8 94       	cli
    4a58:	de bf       	out	0x3e, r29	; 62
    4a5a:	0f be       	out	0x3f, r0	; 63
    4a5c:	cd bf       	out	0x3d, r28	; 61
    4a5e:	df 91       	pop	r29
    4a60:	cf 91       	pop	r28
    4a62:	08 95       	ret

00004a64 <WLAN_TcpDisconnect>:
    4a64:	cf 93       	push	r28
    4a66:	df 93       	push	r29
    4a68:	cd b7       	in	r28, 0x3d	; 61
    4a6a:	de b7       	in	r29, 0x3e	; 62
    4a6c:	60 97       	sbiw	r28, 0x10	; 16
    4a6e:	0f b6       	in	r0, 0x3f	; 63
    4a70:	f8 94       	cli
    4a72:	de bf       	out	0x3e, r29	; 62
    4a74:	0f be       	out	0x3f, r0	; 63
    4a76:	cd bf       	out	0x3d, r28	; 61
    4a78:	80 ec       	ldi	r24, 0xC0	; 192
    4a7a:	99 e0       	ldi	r25, 0x09	; 9
    4a7c:	0e 94 e7 21 	call	0x43ce	; 0x43ce <UART_Puts_P>
    4a80:	80 91 a6 01 	lds	r24, 0x01A6	; 0x8001a6 <WLAN_States>
    4a84:	8b 7f       	andi	r24, 0xFB	; 251
    4a86:	80 93 a6 01 	sts	0x01A6, r24	; 0x8001a6 <WLAN_States>
    4a8a:	41 e0       	ldi	r20, 0x01	; 1
    4a8c:	60 e1       	ldi	r22, 0x10	; 16
    4a8e:	ce 01       	movw	r24, r28
    4a90:	01 96       	adiw	r24, 0x01	; 1
    4a92:	0e 94 5e 22 	call	0x44bc	; 0x44bc <UART_ReadLn>
    4a96:	00 97       	sbiw	r24, 0x00	; 0
    4a98:	c1 f3       	breq	.-16     	; 0x4a8a <WLAN_TcpDisconnect+0x26>
    4a9a:	01 96       	adiw	r24, 0x01	; 1
    4a9c:	49 f1       	breq	.+82     	; 0x4af0 <WLAN_TcpDisconnect+0x8c>
    4a9e:	6d eb       	ldi	r22, 0xBD	; 189
    4aa0:	79 e0       	ldi	r23, 0x09	; 9
    4aa2:	ce 01       	movw	r24, r28
    4aa4:	01 96       	adiw	r24, 0x01	; 1
    4aa6:	0e 94 d6 2c 	call	0x59ac	; 0x59ac <strcmp_P>
    4aaa:	89 2b       	or	r24, r25
    4aac:	19 f1       	breq	.+70     	; 0x4af4 <WLAN_TcpDisconnect+0x90>
    4aae:	6d ea       	ldi	r22, 0xAD	; 173
    4ab0:	79 e0       	ldi	r23, 0x09	; 9
    4ab2:	ce 01       	movw	r24, r28
    4ab4:	01 96       	adiw	r24, 0x01	; 1
    4ab6:	0e 94 d6 2c 	call	0x59ac	; 0x59ac <strcmp_P>
    4aba:	89 2b       	or	r24, r25
    4abc:	d9 f0       	breq	.+54     	; 0x4af4 <WLAN_TcpDisconnect+0x90>
    4abe:	6f e9       	ldi	r22, 0x9F	; 159
    4ac0:	79 e0       	ldi	r23, 0x09	; 9
    4ac2:	ce 01       	movw	r24, r28
    4ac4:	01 96       	adiw	r24, 0x01	; 1
    4ac6:	0e 94 d6 2c 	call	0x59ac	; 0x59ac <strcmp_P>
    4aca:	89 2b       	or	r24, r25
    4acc:	99 f0       	breq	.+38     	; 0x4af4 <WLAN_TcpDisconnect+0x90>
    4ace:	6a e9       	ldi	r22, 0x9A	; 154
    4ad0:	79 e0       	ldi	r23, 0x09	; 9
    4ad2:	ce 01       	movw	r24, r28
    4ad4:	01 96       	adiw	r24, 0x01	; 1
    4ad6:	0e 94 d6 2c 	call	0x59ac	; 0x59ac <strcmp_P>
    4ada:	89 2b       	or	r24, r25
    4adc:	69 f0       	breq	.+26     	; 0x4af8 <WLAN_TcpDisconnect+0x94>
    4ade:	64 e9       	ldi	r22, 0x94	; 148
    4ae0:	79 e0       	ldi	r23, 0x09	; 9
    4ae2:	ce 01       	movw	r24, r28
    4ae4:	01 96       	adiw	r24, 0x01	; 1
    4ae6:	0e 94 d6 2c 	call	0x59ac	; 0x59ac <strcmp_P>
    4aea:	89 2b       	or	r24, r25
    4aec:	71 f6       	brne	.-100    	; 0x4a8a <WLAN_TcpDisconnect+0x26>
    4aee:	04 c0       	rjmp	.+8      	; 0x4af8 <WLAN_TcpDisconnect+0x94>
    4af0:	83 e0       	ldi	r24, 0x03	; 3
    4af2:	03 c0       	rjmp	.+6      	; 0x4afa <WLAN_TcpDisconnect+0x96>
    4af4:	80 e0       	ldi	r24, 0x00	; 0
    4af6:	01 c0       	rjmp	.+2      	; 0x4afa <WLAN_TcpDisconnect+0x96>
    4af8:	8f ef       	ldi	r24, 0xFF	; 255
    4afa:	60 96       	adiw	r28, 0x10	; 16
    4afc:	0f b6       	in	r0, 0x3f	; 63
    4afe:	f8 94       	cli
    4b00:	de bf       	out	0x3e, r29	; 62
    4b02:	0f be       	out	0x3f, r0	; 63
    4b04:	cd bf       	out	0x3d, r28	; 61
    4b06:	df 91       	pop	r29
    4b08:	cf 91       	pop	r28
    4b0a:	08 95       	ret

00004b0c <WLAN_Listen>:
    4b0c:	ff 92       	push	r15
    4b0e:	0f 93       	push	r16
    4b10:	1f 93       	push	r17
    4b12:	cf 93       	push	r28
    4b14:	df 93       	push	r29
    4b16:	cd b7       	in	r28, 0x3d	; 61
    4b18:	de b7       	in	r29, 0x3e	; 62
    4b1a:	c0 58       	subi	r28, 0x80	; 128
    4b1c:	d1 09       	sbc	r29, r1
    4b1e:	0f b6       	in	r0, 0x3f	; 63
    4b20:	f8 94       	cli
    4b22:	de bf       	out	0x3e, r29	; 62
    4b24:	0f be       	out	0x3f, r0	; 63
    4b26:	cd bf       	out	0x3d, r28	; 61
    4b28:	8c 01       	movw	r16, r24
    4b2a:	0e 94 b8 21 	call	0x4370	; 0x4370 <UART_Pending>
    4b2e:	88 23       	and	r24, r24
    4b30:	09 f4       	brne	.+2      	; 0x4b34 <WLAN_Listen+0x28>
    4b32:	43 c0       	rjmp	.+134    	; 0x4bba <WLAN_Listen+0xae>
    4b34:	20 e9       	ldi	r18, 0x90	; 144
    4b36:	39 e0       	ldi	r19, 0x09	; 9
    4b38:	40 e0       	ldi	r20, 0x00	; 0
    4b3a:	60 e8       	ldi	r22, 0x80	; 128
    4b3c:	ce 01       	movw	r24, r28
    4b3e:	01 96       	adiw	r24, 0x01	; 1
    4b40:	0e 94 01 22 	call	0x4402	; 0x4402 <UART_ReadUntil_P>
    4b44:	88 23       	and	r24, r24
    4b46:	89 f3       	breq	.-30     	; 0x4b2a <WLAN_Listen+0x1e>
    4b48:	45 e0       	ldi	r20, 0x05	; 5
    4b4a:	50 e0       	ldi	r21, 0x00	; 0
    4b4c:	6a e8       	ldi	r22, 0x8A	; 138
    4b4e:	79 e0       	ldi	r23, 0x09	; 9
    4b50:	ce 01       	movw	r24, r28
    4b52:	01 96       	adiw	r24, 0x01	; 1
    4b54:	0e 94 07 2d 	call	0x5a0e	; 0x5a0e <strncmp_P>
    4b58:	89 2b       	or	r24, r25
    4b5a:	a1 f4       	brne	.+40     	; 0x4b84 <WLAN_Listen+0x78>
    4b5c:	ce 01       	movw	r24, r28
    4b5e:	06 96       	adiw	r24, 0x06	; 6
    4b60:	0e 94 aa 2c 	call	0x5954	; 0x5954 <atoi>
    4b64:	f8 2e       	mov	r15, r24
    4b66:	68 2f       	mov	r22, r24
    4b68:	ce 01       	movw	r24, r28
    4b6a:	01 96       	adiw	r24, 0x01	; 1
    4b6c:	0e 94 a4 22 	call	0x4548	; 0x4548 <UART_ReadBytes>
    4b70:	01 15       	cp	r16, r1
    4b72:	11 05       	cpc	r17, r1
    4b74:	d1 f2       	breq	.-76     	; 0x4b2a <WLAN_Listen+0x1e>
    4b76:	be 01       	movw	r22, r28
    4b78:	6f 5f       	subi	r22, 0xFF	; 255
    4b7a:	7f 4f       	sbci	r23, 0xFF	; 255
    4b7c:	8f 2d       	mov	r24, r15
    4b7e:	f8 01       	movw	r30, r16
    4b80:	09 95       	icall
    4b82:	d3 cf       	rjmp	.-90     	; 0x4b2a <WLAN_Listen+0x1e>
    4b84:	6a e7       	ldi	r22, 0x7A	; 122
    4b86:	79 e0       	ldi	r23, 0x09	; 9
    4b88:	ce 01       	movw	r24, r28
    4b8a:	01 96       	adiw	r24, 0x01	; 1
    4b8c:	0e 94 d6 2c 	call	0x59ac	; 0x59ac <strcmp_P>
    4b90:	89 2b       	or	r24, r25
    4b92:	21 f4       	brne	.+8      	; 0x4b9c <WLAN_Listen+0x90>
    4b94:	80 91 a6 01 	lds	r24, 0x01A6	; 0x8001a6 <WLAN_States>
    4b98:	89 7f       	andi	r24, 0xF9	; 249
    4b9a:	0c c0       	rjmp	.+24     	; 0x4bb4 <WLAN_Listen+0xa8>
    4b9c:	63 e7       	ldi	r22, 0x73	; 115
    4b9e:	79 e0       	ldi	r23, 0x09	; 9
    4ba0:	ce 01       	movw	r24, r28
    4ba2:	01 96       	adiw	r24, 0x01	; 1
    4ba4:	0e 94 d6 2c 	call	0x59ac	; 0x59ac <strcmp_P>
    4ba8:	89 2b       	or	r24, r25
    4baa:	09 f0       	breq	.+2      	; 0x4bae <WLAN_Listen+0xa2>
    4bac:	be cf       	rjmp	.-132    	; 0x4b2a <WLAN_Listen+0x1e>
    4bae:	80 91 a6 01 	lds	r24, 0x01A6	; 0x8001a6 <WLAN_States>
    4bb2:	8b 7f       	andi	r24, 0xFB	; 251
    4bb4:	80 93 a6 01 	sts	0x01A6, r24	; 0x8001a6 <WLAN_States>
    4bb8:	b8 cf       	rjmp	.-144    	; 0x4b2a <WLAN_Listen+0x1e>
    4bba:	c0 58       	subi	r28, 0x80	; 128
    4bbc:	df 4f       	sbci	r29, 0xFF	; 255
    4bbe:	0f b6       	in	r0, 0x3f	; 63
    4bc0:	f8 94       	cli
    4bc2:	de bf       	out	0x3e, r29	; 62
    4bc4:	0f be       	out	0x3f, r0	; 63
    4bc6:	cd bf       	out	0x3d, r28	; 61
    4bc8:	df 91       	pop	r29
    4bca:	cf 91       	pop	r28
    4bcc:	1f 91       	pop	r17
    4bce:	0f 91       	pop	r16
    4bd0:	ff 90       	pop	r15
    4bd2:	08 95       	ret

00004bd4 <__subsf3>:
    4bd4:	50 58       	subi	r21, 0x80	; 128

00004bd6 <__addsf3>:
    4bd6:	bb 27       	eor	r27, r27
    4bd8:	aa 27       	eor	r26, r26
    4bda:	0e 94 02 26 	call	0x4c04	; 0x4c04 <__addsf3x>
    4bde:	0c 94 a8 27 	jmp	0x4f50	; 0x4f50 <__fp_round>
    4be2:	0e 94 9a 27 	call	0x4f34	; 0x4f34 <__fp_pscA>
    4be6:	38 f0       	brcs	.+14     	; 0x4bf6 <__addsf3+0x20>
    4be8:	0e 94 a1 27 	call	0x4f42	; 0x4f42 <__fp_pscB>
    4bec:	20 f0       	brcs	.+8      	; 0x4bf6 <__addsf3+0x20>
    4bee:	39 f4       	brne	.+14     	; 0x4bfe <__addsf3+0x28>
    4bf0:	9f 3f       	cpi	r25, 0xFF	; 255
    4bf2:	19 f4       	brne	.+6      	; 0x4bfa <__addsf3+0x24>
    4bf4:	26 f4       	brtc	.+8      	; 0x4bfe <__addsf3+0x28>
    4bf6:	0c 94 97 27 	jmp	0x4f2e	; 0x4f2e <__fp_nan>
    4bfa:	0e f4       	brtc	.+2      	; 0x4bfe <__addsf3+0x28>
    4bfc:	e0 95       	com	r30
    4bfe:	e7 fb       	bst	r30, 7
    4c00:	0c 94 83 27 	jmp	0x4f06	; 0x4f06 <__fp_inf>

00004c04 <__addsf3x>:
    4c04:	e9 2f       	mov	r30, r25
    4c06:	0e 94 b9 27 	call	0x4f72	; 0x4f72 <__fp_split3>
    4c0a:	58 f3       	brcs	.-42     	; 0x4be2 <__addsf3+0xc>
    4c0c:	ba 17       	cp	r27, r26
    4c0e:	62 07       	cpc	r22, r18
    4c10:	73 07       	cpc	r23, r19
    4c12:	84 07       	cpc	r24, r20
    4c14:	95 07       	cpc	r25, r21
    4c16:	20 f0       	brcs	.+8      	; 0x4c20 <__addsf3x+0x1c>
    4c18:	79 f4       	brne	.+30     	; 0x4c38 <__addsf3x+0x34>
    4c1a:	a6 f5       	brtc	.+104    	; 0x4c84 <__addsf3x+0x80>
    4c1c:	0c 94 db 27 	jmp	0x4fb6	; 0x4fb6 <__fp_zero>
    4c20:	0e f4       	brtc	.+2      	; 0x4c24 <__addsf3x+0x20>
    4c22:	e0 95       	com	r30
    4c24:	0b 2e       	mov	r0, r27
    4c26:	ba 2f       	mov	r27, r26
    4c28:	a0 2d       	mov	r26, r0
    4c2a:	0b 01       	movw	r0, r22
    4c2c:	b9 01       	movw	r22, r18
    4c2e:	90 01       	movw	r18, r0
    4c30:	0c 01       	movw	r0, r24
    4c32:	ca 01       	movw	r24, r20
    4c34:	a0 01       	movw	r20, r0
    4c36:	11 24       	eor	r1, r1
    4c38:	ff 27       	eor	r31, r31
    4c3a:	59 1b       	sub	r21, r25
    4c3c:	99 f0       	breq	.+38     	; 0x4c64 <__addsf3x+0x60>
    4c3e:	59 3f       	cpi	r21, 0xF9	; 249
    4c40:	50 f4       	brcc	.+20     	; 0x4c56 <__addsf3x+0x52>
    4c42:	50 3e       	cpi	r21, 0xE0	; 224
    4c44:	68 f1       	brcs	.+90     	; 0x4ca0 <__addsf3x+0x9c>
    4c46:	1a 16       	cp	r1, r26
    4c48:	f0 40       	sbci	r31, 0x00	; 0
    4c4a:	a2 2f       	mov	r26, r18
    4c4c:	23 2f       	mov	r18, r19
    4c4e:	34 2f       	mov	r19, r20
    4c50:	44 27       	eor	r20, r20
    4c52:	58 5f       	subi	r21, 0xF8	; 248
    4c54:	f3 cf       	rjmp	.-26     	; 0x4c3c <__addsf3x+0x38>
    4c56:	46 95       	lsr	r20
    4c58:	37 95       	ror	r19
    4c5a:	27 95       	ror	r18
    4c5c:	a7 95       	ror	r26
    4c5e:	f0 40       	sbci	r31, 0x00	; 0
    4c60:	53 95       	inc	r21
    4c62:	c9 f7       	brne	.-14     	; 0x4c56 <__addsf3x+0x52>
    4c64:	7e f4       	brtc	.+30     	; 0x4c84 <__addsf3x+0x80>
    4c66:	1f 16       	cp	r1, r31
    4c68:	ba 0b       	sbc	r27, r26
    4c6a:	62 0b       	sbc	r22, r18
    4c6c:	73 0b       	sbc	r23, r19
    4c6e:	84 0b       	sbc	r24, r20
    4c70:	ba f0       	brmi	.+46     	; 0x4ca0 <__addsf3x+0x9c>
    4c72:	91 50       	subi	r25, 0x01	; 1
    4c74:	a1 f0       	breq	.+40     	; 0x4c9e <__addsf3x+0x9a>
    4c76:	ff 0f       	add	r31, r31
    4c78:	bb 1f       	adc	r27, r27
    4c7a:	66 1f       	adc	r22, r22
    4c7c:	77 1f       	adc	r23, r23
    4c7e:	88 1f       	adc	r24, r24
    4c80:	c2 f7       	brpl	.-16     	; 0x4c72 <__addsf3x+0x6e>
    4c82:	0e c0       	rjmp	.+28     	; 0x4ca0 <__addsf3x+0x9c>
    4c84:	ba 0f       	add	r27, r26
    4c86:	62 1f       	adc	r22, r18
    4c88:	73 1f       	adc	r23, r19
    4c8a:	84 1f       	adc	r24, r20
    4c8c:	48 f4       	brcc	.+18     	; 0x4ca0 <__addsf3x+0x9c>
    4c8e:	87 95       	ror	r24
    4c90:	77 95       	ror	r23
    4c92:	67 95       	ror	r22
    4c94:	b7 95       	ror	r27
    4c96:	f7 95       	ror	r31
    4c98:	9e 3f       	cpi	r25, 0xFE	; 254
    4c9a:	08 f0       	brcs	.+2      	; 0x4c9e <__addsf3x+0x9a>
    4c9c:	b0 cf       	rjmp	.-160    	; 0x4bfe <__addsf3+0x28>
    4c9e:	93 95       	inc	r25
    4ca0:	88 0f       	add	r24, r24
    4ca2:	08 f0       	brcs	.+2      	; 0x4ca6 <__addsf3x+0xa2>
    4ca4:	99 27       	eor	r25, r25
    4ca6:	ee 0f       	add	r30, r30
    4ca8:	97 95       	ror	r25
    4caa:	87 95       	ror	r24
    4cac:	08 95       	ret

00004cae <__cmpsf2>:
    4cae:	0e 94 5f 27 	call	0x4ebe	; 0x4ebe <__fp_cmp>
    4cb2:	08 f4       	brcc	.+2      	; 0x4cb6 <__cmpsf2+0x8>
    4cb4:	81 e0       	ldi	r24, 0x01	; 1
    4cb6:	08 95       	ret

00004cb8 <__divsf3>:
    4cb8:	0e 94 70 26 	call	0x4ce0	; 0x4ce0 <__divsf3x>
    4cbc:	0c 94 a8 27 	jmp	0x4f50	; 0x4f50 <__fp_round>
    4cc0:	0e 94 a1 27 	call	0x4f42	; 0x4f42 <__fp_pscB>
    4cc4:	58 f0       	brcs	.+22     	; 0x4cdc <__divsf3+0x24>
    4cc6:	0e 94 9a 27 	call	0x4f34	; 0x4f34 <__fp_pscA>
    4cca:	40 f0       	brcs	.+16     	; 0x4cdc <__divsf3+0x24>
    4ccc:	29 f4       	brne	.+10     	; 0x4cd8 <__divsf3+0x20>
    4cce:	5f 3f       	cpi	r21, 0xFF	; 255
    4cd0:	29 f0       	breq	.+10     	; 0x4cdc <__divsf3+0x24>
    4cd2:	0c 94 83 27 	jmp	0x4f06	; 0x4f06 <__fp_inf>
    4cd6:	51 11       	cpse	r21, r1
    4cd8:	0c 94 dc 27 	jmp	0x4fb8	; 0x4fb8 <__fp_szero>
    4cdc:	0c 94 97 27 	jmp	0x4f2e	; 0x4f2e <__fp_nan>

00004ce0 <__divsf3x>:
    4ce0:	0e 94 b9 27 	call	0x4f72	; 0x4f72 <__fp_split3>
    4ce4:	68 f3       	brcs	.-38     	; 0x4cc0 <__divsf3+0x8>

00004ce6 <__divsf3_pse>:
    4ce6:	99 23       	and	r25, r25
    4ce8:	b1 f3       	breq	.-20     	; 0x4cd6 <__divsf3+0x1e>
    4cea:	55 23       	and	r21, r21
    4cec:	91 f3       	breq	.-28     	; 0x4cd2 <__divsf3+0x1a>
    4cee:	95 1b       	sub	r25, r21
    4cf0:	55 0b       	sbc	r21, r21
    4cf2:	bb 27       	eor	r27, r27
    4cf4:	aa 27       	eor	r26, r26
    4cf6:	62 17       	cp	r22, r18
    4cf8:	73 07       	cpc	r23, r19
    4cfa:	84 07       	cpc	r24, r20
    4cfc:	38 f0       	brcs	.+14     	; 0x4d0c <__divsf3_pse+0x26>
    4cfe:	9f 5f       	subi	r25, 0xFF	; 255
    4d00:	5f 4f       	sbci	r21, 0xFF	; 255
    4d02:	22 0f       	add	r18, r18
    4d04:	33 1f       	adc	r19, r19
    4d06:	44 1f       	adc	r20, r20
    4d08:	aa 1f       	adc	r26, r26
    4d0a:	a9 f3       	breq	.-22     	; 0x4cf6 <__divsf3_pse+0x10>
    4d0c:	35 d0       	rcall	.+106    	; 0x4d78 <__divsf3_pse+0x92>
    4d0e:	0e 2e       	mov	r0, r30
    4d10:	3a f0       	brmi	.+14     	; 0x4d20 <__divsf3_pse+0x3a>
    4d12:	e0 e8       	ldi	r30, 0x80	; 128
    4d14:	32 d0       	rcall	.+100    	; 0x4d7a <__divsf3_pse+0x94>
    4d16:	91 50       	subi	r25, 0x01	; 1
    4d18:	50 40       	sbci	r21, 0x00	; 0
    4d1a:	e6 95       	lsr	r30
    4d1c:	00 1c       	adc	r0, r0
    4d1e:	ca f7       	brpl	.-14     	; 0x4d12 <__divsf3_pse+0x2c>
    4d20:	2b d0       	rcall	.+86     	; 0x4d78 <__divsf3_pse+0x92>
    4d22:	fe 2f       	mov	r31, r30
    4d24:	29 d0       	rcall	.+82     	; 0x4d78 <__divsf3_pse+0x92>
    4d26:	66 0f       	add	r22, r22
    4d28:	77 1f       	adc	r23, r23
    4d2a:	88 1f       	adc	r24, r24
    4d2c:	bb 1f       	adc	r27, r27
    4d2e:	26 17       	cp	r18, r22
    4d30:	37 07       	cpc	r19, r23
    4d32:	48 07       	cpc	r20, r24
    4d34:	ab 07       	cpc	r26, r27
    4d36:	b0 e8       	ldi	r27, 0x80	; 128
    4d38:	09 f0       	breq	.+2      	; 0x4d3c <__divsf3_pse+0x56>
    4d3a:	bb 0b       	sbc	r27, r27
    4d3c:	80 2d       	mov	r24, r0
    4d3e:	bf 01       	movw	r22, r30
    4d40:	ff 27       	eor	r31, r31
    4d42:	93 58       	subi	r25, 0x83	; 131
    4d44:	5f 4f       	sbci	r21, 0xFF	; 255
    4d46:	3a f0       	brmi	.+14     	; 0x4d56 <__divsf3_pse+0x70>
    4d48:	9e 3f       	cpi	r25, 0xFE	; 254
    4d4a:	51 05       	cpc	r21, r1
    4d4c:	78 f0       	brcs	.+30     	; 0x4d6c <__divsf3_pse+0x86>
    4d4e:	0c 94 83 27 	jmp	0x4f06	; 0x4f06 <__fp_inf>
    4d52:	0c 94 dc 27 	jmp	0x4fb8	; 0x4fb8 <__fp_szero>
    4d56:	5f 3f       	cpi	r21, 0xFF	; 255
    4d58:	e4 f3       	brlt	.-8      	; 0x4d52 <__divsf3_pse+0x6c>
    4d5a:	98 3e       	cpi	r25, 0xE8	; 232
    4d5c:	d4 f3       	brlt	.-12     	; 0x4d52 <__divsf3_pse+0x6c>
    4d5e:	86 95       	lsr	r24
    4d60:	77 95       	ror	r23
    4d62:	67 95       	ror	r22
    4d64:	b7 95       	ror	r27
    4d66:	f7 95       	ror	r31
    4d68:	9f 5f       	subi	r25, 0xFF	; 255
    4d6a:	c9 f7       	brne	.-14     	; 0x4d5e <__divsf3_pse+0x78>
    4d6c:	88 0f       	add	r24, r24
    4d6e:	91 1d       	adc	r25, r1
    4d70:	96 95       	lsr	r25
    4d72:	87 95       	ror	r24
    4d74:	97 f9       	bld	r25, 7
    4d76:	08 95       	ret
    4d78:	e1 e0       	ldi	r30, 0x01	; 1
    4d7a:	66 0f       	add	r22, r22
    4d7c:	77 1f       	adc	r23, r23
    4d7e:	88 1f       	adc	r24, r24
    4d80:	bb 1f       	adc	r27, r27
    4d82:	62 17       	cp	r22, r18
    4d84:	73 07       	cpc	r23, r19
    4d86:	84 07       	cpc	r24, r20
    4d88:	ba 07       	cpc	r27, r26
    4d8a:	20 f0       	brcs	.+8      	; 0x4d94 <__divsf3_pse+0xae>
    4d8c:	62 1b       	sub	r22, r18
    4d8e:	73 0b       	sbc	r23, r19
    4d90:	84 0b       	sbc	r24, r20
    4d92:	ba 0b       	sbc	r27, r26
    4d94:	ee 1f       	adc	r30, r30
    4d96:	88 f7       	brcc	.-30     	; 0x4d7a <__divsf3_pse+0x94>
    4d98:	e0 95       	com	r30
    4d9a:	08 95       	ret

00004d9c <__floatunsisf>:
    4d9c:	e8 94       	clt
    4d9e:	09 c0       	rjmp	.+18     	; 0x4db2 <__floatsisf+0x12>

00004da0 <__floatsisf>:
    4da0:	97 fb       	bst	r25, 7
    4da2:	3e f4       	brtc	.+14     	; 0x4db2 <__floatsisf+0x12>
    4da4:	90 95       	com	r25
    4da6:	80 95       	com	r24
    4da8:	70 95       	com	r23
    4daa:	61 95       	neg	r22
    4dac:	7f 4f       	sbci	r23, 0xFF	; 255
    4dae:	8f 4f       	sbci	r24, 0xFF	; 255
    4db0:	9f 4f       	sbci	r25, 0xFF	; 255
    4db2:	99 23       	and	r25, r25
    4db4:	a9 f0       	breq	.+42     	; 0x4de0 <__floatsisf+0x40>
    4db6:	f9 2f       	mov	r31, r25
    4db8:	96 e9       	ldi	r25, 0x96	; 150
    4dba:	bb 27       	eor	r27, r27
    4dbc:	93 95       	inc	r25
    4dbe:	f6 95       	lsr	r31
    4dc0:	87 95       	ror	r24
    4dc2:	77 95       	ror	r23
    4dc4:	67 95       	ror	r22
    4dc6:	b7 95       	ror	r27
    4dc8:	f1 11       	cpse	r31, r1
    4dca:	f8 cf       	rjmp	.-16     	; 0x4dbc <__floatsisf+0x1c>
    4dcc:	fa f4       	brpl	.+62     	; 0x4e0c <__floatsisf+0x6c>
    4dce:	bb 0f       	add	r27, r27
    4dd0:	11 f4       	brne	.+4      	; 0x4dd6 <__floatsisf+0x36>
    4dd2:	60 ff       	sbrs	r22, 0
    4dd4:	1b c0       	rjmp	.+54     	; 0x4e0c <__floatsisf+0x6c>
    4dd6:	6f 5f       	subi	r22, 0xFF	; 255
    4dd8:	7f 4f       	sbci	r23, 0xFF	; 255
    4dda:	8f 4f       	sbci	r24, 0xFF	; 255
    4ddc:	9f 4f       	sbci	r25, 0xFF	; 255
    4dde:	16 c0       	rjmp	.+44     	; 0x4e0c <__floatsisf+0x6c>
    4de0:	88 23       	and	r24, r24
    4de2:	11 f0       	breq	.+4      	; 0x4de8 <__floatsisf+0x48>
    4de4:	96 e9       	ldi	r25, 0x96	; 150
    4de6:	11 c0       	rjmp	.+34     	; 0x4e0a <__floatsisf+0x6a>
    4de8:	77 23       	and	r23, r23
    4dea:	21 f0       	breq	.+8      	; 0x4df4 <__floatsisf+0x54>
    4dec:	9e e8       	ldi	r25, 0x8E	; 142
    4dee:	87 2f       	mov	r24, r23
    4df0:	76 2f       	mov	r23, r22
    4df2:	05 c0       	rjmp	.+10     	; 0x4dfe <__floatsisf+0x5e>
    4df4:	66 23       	and	r22, r22
    4df6:	71 f0       	breq	.+28     	; 0x4e14 <__floatsisf+0x74>
    4df8:	96 e8       	ldi	r25, 0x86	; 134
    4dfa:	86 2f       	mov	r24, r22
    4dfc:	70 e0       	ldi	r23, 0x00	; 0
    4dfe:	60 e0       	ldi	r22, 0x00	; 0
    4e00:	2a f0       	brmi	.+10     	; 0x4e0c <__floatsisf+0x6c>
    4e02:	9a 95       	dec	r25
    4e04:	66 0f       	add	r22, r22
    4e06:	77 1f       	adc	r23, r23
    4e08:	88 1f       	adc	r24, r24
    4e0a:	da f7       	brpl	.-10     	; 0x4e02 <__floatsisf+0x62>
    4e0c:	88 0f       	add	r24, r24
    4e0e:	96 95       	lsr	r25
    4e10:	87 95       	ror	r24
    4e12:	97 f9       	bld	r25, 7
    4e14:	08 95       	ret
    4e16:	0e 94 9a 27 	call	0x4f34	; 0x4f34 <__fp_pscA>
    4e1a:	20 f0       	brcs	.+8      	; 0x4e24 <__floatsisf+0x84>
    4e1c:	19 f0       	breq	.+6      	; 0x4e24 <__floatsisf+0x84>
    4e1e:	0e 94 a1 27 	call	0x4f42	; 0x4f42 <__fp_pscB>
    4e22:	50 f4       	brcc	.+20     	; 0x4e38 <fmod+0xc>
    4e24:	0c 94 97 27 	jmp	0x4f2e	; 0x4f2e <__fp_nan>
    4e28:	0c 94 dc 27 	jmp	0x4fb8	; 0x4fb8 <__fp_szero>

00004e2c <fmod>:
    4e2c:	e9 2f       	mov	r30, r25
    4e2e:	0e 94 b9 27 	call	0x4f72	; 0x4f72 <__fp_split3>
    4e32:	88 f3       	brcs	.-30     	; 0x4e16 <__floatsisf+0x76>
    4e34:	55 23       	and	r21, r21
    4e36:	b1 f3       	breq	.-20     	; 0x4e24 <__floatsisf+0x84>
    4e38:	e7 fb       	bst	r30, 7
    4e3a:	62 17       	cp	r22, r18
    4e3c:	73 07       	cpc	r23, r19
    4e3e:	84 07       	cpc	r24, r20
    4e40:	95 07       	cpc	r25, r21
    4e42:	a8 f1       	brcs	.+106    	; 0x4eae <fmod+0x82>
    4e44:	89 f3       	breq	.-30     	; 0x4e28 <__floatsisf+0x88>
    4e46:	e9 2f       	mov	r30, r25
    4e48:	ff 27       	eor	r31, r31
    4e4a:	88 23       	and	r24, r24
    4e4c:	2a f0       	brmi	.+10     	; 0x4e58 <fmod+0x2c>
    4e4e:	31 97       	sbiw	r30, 0x01	; 1
    4e50:	66 0f       	add	r22, r22
    4e52:	77 1f       	adc	r23, r23
    4e54:	88 1f       	adc	r24, r24
    4e56:	da f7       	brpl	.-10     	; 0x4e4e <fmod+0x22>
    4e58:	95 2f       	mov	r25, r21
    4e5a:	55 27       	eor	r21, r21
    4e5c:	44 23       	and	r20, r20
    4e5e:	32 f0       	brmi	.+12     	; 0x4e6c <fmod+0x40>
    4e60:	91 50       	subi	r25, 0x01	; 1
    4e62:	50 40       	sbci	r21, 0x00	; 0
    4e64:	22 0f       	add	r18, r18
    4e66:	33 1f       	adc	r19, r19
    4e68:	44 1f       	adc	r20, r20
    4e6a:	d2 f7       	brpl	.-12     	; 0x4e60 <fmod+0x34>
    4e6c:	bb 27       	eor	r27, r27
    4e6e:	e9 1b       	sub	r30, r25
    4e70:	f5 0b       	sbc	r31, r21
    4e72:	62 1b       	sub	r22, r18
    4e74:	73 0b       	sbc	r23, r19
    4e76:	84 0b       	sbc	r24, r20
    4e78:	b1 09       	sbc	r27, r1
    4e7a:	b1 f2       	breq	.-84     	; 0x4e28 <__floatsisf+0x88>
    4e7c:	22 f4       	brpl	.+8      	; 0x4e86 <fmod+0x5a>
    4e7e:	62 0f       	add	r22, r18
    4e80:	73 1f       	adc	r23, r19
    4e82:	84 1f       	adc	r24, r20
    4e84:	b1 1d       	adc	r27, r1
    4e86:	31 97       	sbiw	r30, 0x01	; 1
    4e88:	2a f0       	brmi	.+10     	; 0x4e94 <fmod+0x68>
    4e8a:	66 0f       	add	r22, r22
    4e8c:	77 1f       	adc	r23, r23
    4e8e:	88 1f       	adc	r24, r24
    4e90:	bb 1f       	adc	r27, r27
    4e92:	ef cf       	rjmp	.-34     	; 0x4e72 <fmod+0x46>
    4e94:	91 50       	subi	r25, 0x01	; 1
    4e96:	50 40       	sbci	r21, 0x00	; 0
    4e98:	62 f0       	brmi	.+24     	; 0x4eb2 <fmod+0x86>
    4e9a:	41 f0       	breq	.+16     	; 0x4eac <fmod+0x80>
    4e9c:	88 23       	and	r24, r24
    4e9e:	32 f0       	brmi	.+12     	; 0x4eac <fmod+0x80>
    4ea0:	66 0f       	add	r22, r22
    4ea2:	77 1f       	adc	r23, r23
    4ea4:	88 1f       	adc	r24, r24
    4ea6:	91 50       	subi	r25, 0x01	; 1
    4ea8:	50 40       	sbci	r21, 0x00	; 0
    4eaa:	c1 f7       	brne	.-16     	; 0x4e9c <fmod+0x70>
    4eac:	93 95       	inc	r25
    4eae:	0c 94 89 27 	jmp	0x4f12	; 0x4f12 <__fp_mpack>
    4eb2:	86 95       	lsr	r24
    4eb4:	77 95       	ror	r23
    4eb6:	67 95       	ror	r22
    4eb8:	9f 5f       	subi	r25, 0xFF	; 255
    4eba:	d9 f7       	brne	.-10     	; 0x4eb2 <fmod+0x86>
    4ebc:	f7 cf       	rjmp	.-18     	; 0x4eac <fmod+0x80>

00004ebe <__fp_cmp>:
    4ebe:	99 0f       	add	r25, r25
    4ec0:	00 08       	sbc	r0, r0
    4ec2:	55 0f       	add	r21, r21
    4ec4:	aa 0b       	sbc	r26, r26
    4ec6:	e0 e8       	ldi	r30, 0x80	; 128
    4ec8:	fe ef       	ldi	r31, 0xFE	; 254
    4eca:	16 16       	cp	r1, r22
    4ecc:	17 06       	cpc	r1, r23
    4ece:	e8 07       	cpc	r30, r24
    4ed0:	f9 07       	cpc	r31, r25
    4ed2:	c0 f0       	brcs	.+48     	; 0x4f04 <__fp_cmp+0x46>
    4ed4:	12 16       	cp	r1, r18
    4ed6:	13 06       	cpc	r1, r19
    4ed8:	e4 07       	cpc	r30, r20
    4eda:	f5 07       	cpc	r31, r21
    4edc:	98 f0       	brcs	.+38     	; 0x4f04 <__fp_cmp+0x46>
    4ede:	62 1b       	sub	r22, r18
    4ee0:	73 0b       	sbc	r23, r19
    4ee2:	84 0b       	sbc	r24, r20
    4ee4:	95 0b       	sbc	r25, r21
    4ee6:	39 f4       	brne	.+14     	; 0x4ef6 <__fp_cmp+0x38>
    4ee8:	0a 26       	eor	r0, r26
    4eea:	61 f0       	breq	.+24     	; 0x4f04 <__fp_cmp+0x46>
    4eec:	23 2b       	or	r18, r19
    4eee:	24 2b       	or	r18, r20
    4ef0:	25 2b       	or	r18, r21
    4ef2:	21 f4       	brne	.+8      	; 0x4efc <__fp_cmp+0x3e>
    4ef4:	08 95       	ret
    4ef6:	0a 26       	eor	r0, r26
    4ef8:	09 f4       	brne	.+2      	; 0x4efc <__fp_cmp+0x3e>
    4efa:	a1 40       	sbci	r26, 0x01	; 1
    4efc:	a6 95       	lsr	r26
    4efe:	8f ef       	ldi	r24, 0xFF	; 255
    4f00:	81 1d       	adc	r24, r1
    4f02:	81 1d       	adc	r24, r1
    4f04:	08 95       	ret

00004f06 <__fp_inf>:
    4f06:	97 f9       	bld	r25, 7
    4f08:	9f 67       	ori	r25, 0x7F	; 127
    4f0a:	80 e8       	ldi	r24, 0x80	; 128
    4f0c:	70 e0       	ldi	r23, 0x00	; 0
    4f0e:	60 e0       	ldi	r22, 0x00	; 0
    4f10:	08 95       	ret

00004f12 <__fp_mpack>:
    4f12:	9f 3f       	cpi	r25, 0xFF	; 255
    4f14:	31 f0       	breq	.+12     	; 0x4f22 <__fp_mpack_finite+0xc>

00004f16 <__fp_mpack_finite>:
    4f16:	91 50       	subi	r25, 0x01	; 1
    4f18:	20 f4       	brcc	.+8      	; 0x4f22 <__fp_mpack_finite+0xc>
    4f1a:	87 95       	ror	r24
    4f1c:	77 95       	ror	r23
    4f1e:	67 95       	ror	r22
    4f20:	b7 95       	ror	r27
    4f22:	88 0f       	add	r24, r24
    4f24:	91 1d       	adc	r25, r1
    4f26:	96 95       	lsr	r25
    4f28:	87 95       	ror	r24
    4f2a:	97 f9       	bld	r25, 7
    4f2c:	08 95       	ret

00004f2e <__fp_nan>:
    4f2e:	9f ef       	ldi	r25, 0xFF	; 255
    4f30:	80 ec       	ldi	r24, 0xC0	; 192
    4f32:	08 95       	ret

00004f34 <__fp_pscA>:
    4f34:	00 24       	eor	r0, r0
    4f36:	0a 94       	dec	r0
    4f38:	16 16       	cp	r1, r22
    4f3a:	17 06       	cpc	r1, r23
    4f3c:	18 06       	cpc	r1, r24
    4f3e:	09 06       	cpc	r0, r25
    4f40:	08 95       	ret

00004f42 <__fp_pscB>:
    4f42:	00 24       	eor	r0, r0
    4f44:	0a 94       	dec	r0
    4f46:	12 16       	cp	r1, r18
    4f48:	13 06       	cpc	r1, r19
    4f4a:	14 06       	cpc	r1, r20
    4f4c:	05 06       	cpc	r0, r21
    4f4e:	08 95       	ret

00004f50 <__fp_round>:
    4f50:	09 2e       	mov	r0, r25
    4f52:	03 94       	inc	r0
    4f54:	00 0c       	add	r0, r0
    4f56:	11 f4       	brne	.+4      	; 0x4f5c <__fp_round+0xc>
    4f58:	88 23       	and	r24, r24
    4f5a:	52 f0       	brmi	.+20     	; 0x4f70 <__fp_round+0x20>
    4f5c:	bb 0f       	add	r27, r27
    4f5e:	40 f4       	brcc	.+16     	; 0x4f70 <__fp_round+0x20>
    4f60:	bf 2b       	or	r27, r31
    4f62:	11 f4       	brne	.+4      	; 0x4f68 <__fp_round+0x18>
    4f64:	60 ff       	sbrs	r22, 0
    4f66:	04 c0       	rjmp	.+8      	; 0x4f70 <__fp_round+0x20>
    4f68:	6f 5f       	subi	r22, 0xFF	; 255
    4f6a:	7f 4f       	sbci	r23, 0xFF	; 255
    4f6c:	8f 4f       	sbci	r24, 0xFF	; 255
    4f6e:	9f 4f       	sbci	r25, 0xFF	; 255
    4f70:	08 95       	ret

00004f72 <__fp_split3>:
    4f72:	57 fd       	sbrc	r21, 7
    4f74:	90 58       	subi	r25, 0x80	; 128
    4f76:	44 0f       	add	r20, r20
    4f78:	55 1f       	adc	r21, r21
    4f7a:	59 f0       	breq	.+22     	; 0x4f92 <__fp_splitA+0x10>
    4f7c:	5f 3f       	cpi	r21, 0xFF	; 255
    4f7e:	71 f0       	breq	.+28     	; 0x4f9c <__fp_splitA+0x1a>
    4f80:	47 95       	ror	r20

00004f82 <__fp_splitA>:
    4f82:	88 0f       	add	r24, r24
    4f84:	97 fb       	bst	r25, 7
    4f86:	99 1f       	adc	r25, r25
    4f88:	61 f0       	breq	.+24     	; 0x4fa2 <__fp_splitA+0x20>
    4f8a:	9f 3f       	cpi	r25, 0xFF	; 255
    4f8c:	79 f0       	breq	.+30     	; 0x4fac <__fp_splitA+0x2a>
    4f8e:	87 95       	ror	r24
    4f90:	08 95       	ret
    4f92:	12 16       	cp	r1, r18
    4f94:	13 06       	cpc	r1, r19
    4f96:	14 06       	cpc	r1, r20
    4f98:	55 1f       	adc	r21, r21
    4f9a:	f2 cf       	rjmp	.-28     	; 0x4f80 <__fp_split3+0xe>
    4f9c:	46 95       	lsr	r20
    4f9e:	f1 df       	rcall	.-30     	; 0x4f82 <__fp_splitA>
    4fa0:	08 c0       	rjmp	.+16     	; 0x4fb2 <__fp_splitA+0x30>
    4fa2:	16 16       	cp	r1, r22
    4fa4:	17 06       	cpc	r1, r23
    4fa6:	18 06       	cpc	r1, r24
    4fa8:	99 1f       	adc	r25, r25
    4faa:	f1 cf       	rjmp	.-30     	; 0x4f8e <__fp_splitA+0xc>
    4fac:	86 95       	lsr	r24
    4fae:	71 05       	cpc	r23, r1
    4fb0:	61 05       	cpc	r22, r1
    4fb2:	08 94       	sec
    4fb4:	08 95       	ret

00004fb6 <__fp_zero>:
    4fb6:	e8 94       	clt

00004fb8 <__fp_szero>:
    4fb8:	bb 27       	eor	r27, r27
    4fba:	66 27       	eor	r22, r22
    4fbc:	77 27       	eor	r23, r23
    4fbe:	cb 01       	movw	r24, r22
    4fc0:	97 f9       	bld	r25, 7
    4fc2:	08 95       	ret

00004fc4 <__gesf2>:
    4fc4:	0e 94 5f 27 	call	0x4ebe	; 0x4ebe <__fp_cmp>
    4fc8:	08 f4       	brcc	.+2      	; 0x4fcc <__gesf2+0x8>
    4fca:	8f ef       	ldi	r24, 0xFF	; 255
    4fcc:	08 95       	ret
    4fce:	16 f0       	brts	.+4      	; 0x4fd4 <__gesf2+0x10>
    4fd0:	0c 94 89 27 	jmp	0x4f12	; 0x4f12 <__fp_mpack>
    4fd4:	0c 94 97 27 	jmp	0x4f2e	; 0x4f2e <__fp_nan>
    4fd8:	68 94       	set
    4fda:	0c 94 83 27 	jmp	0x4f06	; 0x4f06 <__fp_inf>

00004fde <log>:
    4fde:	0e 94 c1 27 	call	0x4f82	; 0x4f82 <__fp_splitA>
    4fe2:	a8 f3       	brcs	.-22     	; 0x4fce <__gesf2+0xa>
    4fe4:	99 23       	and	r25, r25
    4fe6:	c1 f3       	breq	.-16     	; 0x4fd8 <__gesf2+0x14>
    4fe8:	ae f3       	brts	.-22     	; 0x4fd4 <__gesf2+0x10>
    4fea:	df 93       	push	r29
    4fec:	cf 93       	push	r28
    4fee:	1f 93       	push	r17
    4ff0:	0f 93       	push	r16
    4ff2:	ff 92       	push	r15
    4ff4:	c9 2f       	mov	r28, r25
    4ff6:	dd 27       	eor	r29, r29
    4ff8:	88 23       	and	r24, r24
    4ffa:	2a f0       	brmi	.+10     	; 0x5006 <log+0x28>
    4ffc:	21 97       	sbiw	r28, 0x01	; 1
    4ffe:	66 0f       	add	r22, r22
    5000:	77 1f       	adc	r23, r23
    5002:	88 1f       	adc	r24, r24
    5004:	da f7       	brpl	.-10     	; 0x4ffc <log+0x1e>
    5006:	20 e0       	ldi	r18, 0x00	; 0
    5008:	30 e0       	ldi	r19, 0x00	; 0
    500a:	40 e8       	ldi	r20, 0x80	; 128
    500c:	5f eb       	ldi	r21, 0xBF	; 191
    500e:	9f e3       	ldi	r25, 0x3F	; 63
    5010:	88 39       	cpi	r24, 0x98	; 152
    5012:	20 f0       	brcs	.+8      	; 0x501c <log+0x3e>
    5014:	80 3e       	cpi	r24, 0xE0	; 224
    5016:	38 f0       	brcs	.+14     	; 0x5026 <log+0x48>
    5018:	21 96       	adiw	r28, 0x01	; 1
    501a:	8f 77       	andi	r24, 0x7F	; 127
    501c:	0e 94 eb 25 	call	0x4bd6	; 0x4bd6 <__addsf3>
    5020:	e2 ed       	ldi	r30, 0xD2	; 210
    5022:	f0 e0       	ldi	r31, 0x00	; 0
    5024:	04 c0       	rjmp	.+8      	; 0x502e <log+0x50>
    5026:	0e 94 eb 25 	call	0x4bd6	; 0x4bd6 <__addsf3>
    502a:	ef ef       	ldi	r30, 0xFF	; 255
    502c:	f0 e0       	ldi	r31, 0x00	; 0
    502e:	0e 94 2e 29 	call	0x525c	; 0x525c <__fp_powser>
    5032:	8b 01       	movw	r16, r22
    5034:	be 01       	movw	r22, r28
    5036:	ec 01       	movw	r28, r24
    5038:	fb 2e       	mov	r15, r27
    503a:	6f 57       	subi	r22, 0x7F	; 127
    503c:	71 09       	sbc	r23, r1
    503e:	75 95       	asr	r23
    5040:	77 1f       	adc	r23, r23
    5042:	88 0b       	sbc	r24, r24
    5044:	99 0b       	sbc	r25, r25
    5046:	0e 94 d0 26 	call	0x4da0	; 0x4da0 <__floatsisf>
    504a:	28 e1       	ldi	r18, 0x18	; 24
    504c:	32 e7       	ldi	r19, 0x72	; 114
    504e:	41 e3       	ldi	r20, 0x31	; 49
    5050:	5f e3       	ldi	r21, 0x3F	; 63
    5052:	0e 94 4a 28 	call	0x5094	; 0x5094 <__mulsf3x>
    5056:	af 2d       	mov	r26, r15
    5058:	98 01       	movw	r18, r16
    505a:	ae 01       	movw	r20, r28
    505c:	ff 90       	pop	r15
    505e:	0f 91       	pop	r16
    5060:	1f 91       	pop	r17
    5062:	cf 91       	pop	r28
    5064:	df 91       	pop	r29
    5066:	0e 94 02 26 	call	0x4c04	; 0x4c04 <__addsf3x>
    506a:	0c 94 a8 27 	jmp	0x4f50	; 0x4f50 <__fp_round>

0000506e <__mulsf3>:
    506e:	0e 94 4a 28 	call	0x5094	; 0x5094 <__mulsf3x>
    5072:	0c 94 a8 27 	jmp	0x4f50	; 0x4f50 <__fp_round>
    5076:	0e 94 9a 27 	call	0x4f34	; 0x4f34 <__fp_pscA>
    507a:	38 f0       	brcs	.+14     	; 0x508a <__mulsf3+0x1c>
    507c:	0e 94 a1 27 	call	0x4f42	; 0x4f42 <__fp_pscB>
    5080:	20 f0       	brcs	.+8      	; 0x508a <__mulsf3+0x1c>
    5082:	95 23       	and	r25, r21
    5084:	11 f0       	breq	.+4      	; 0x508a <__mulsf3+0x1c>
    5086:	0c 94 83 27 	jmp	0x4f06	; 0x4f06 <__fp_inf>
    508a:	0c 94 97 27 	jmp	0x4f2e	; 0x4f2e <__fp_nan>
    508e:	11 24       	eor	r1, r1
    5090:	0c 94 dc 27 	jmp	0x4fb8	; 0x4fb8 <__fp_szero>

00005094 <__mulsf3x>:
    5094:	0e 94 b9 27 	call	0x4f72	; 0x4f72 <__fp_split3>
    5098:	70 f3       	brcs	.-36     	; 0x5076 <__mulsf3+0x8>

0000509a <__mulsf3_pse>:
    509a:	95 9f       	mul	r25, r21
    509c:	c1 f3       	breq	.-16     	; 0x508e <__mulsf3+0x20>
    509e:	95 0f       	add	r25, r21
    50a0:	50 e0       	ldi	r21, 0x00	; 0
    50a2:	55 1f       	adc	r21, r21
    50a4:	62 9f       	mul	r22, r18
    50a6:	f0 01       	movw	r30, r0
    50a8:	72 9f       	mul	r23, r18
    50aa:	bb 27       	eor	r27, r27
    50ac:	f0 0d       	add	r31, r0
    50ae:	b1 1d       	adc	r27, r1
    50b0:	63 9f       	mul	r22, r19
    50b2:	aa 27       	eor	r26, r26
    50b4:	f0 0d       	add	r31, r0
    50b6:	b1 1d       	adc	r27, r1
    50b8:	aa 1f       	adc	r26, r26
    50ba:	64 9f       	mul	r22, r20
    50bc:	66 27       	eor	r22, r22
    50be:	b0 0d       	add	r27, r0
    50c0:	a1 1d       	adc	r26, r1
    50c2:	66 1f       	adc	r22, r22
    50c4:	82 9f       	mul	r24, r18
    50c6:	22 27       	eor	r18, r18
    50c8:	b0 0d       	add	r27, r0
    50ca:	a1 1d       	adc	r26, r1
    50cc:	62 1f       	adc	r22, r18
    50ce:	73 9f       	mul	r23, r19
    50d0:	b0 0d       	add	r27, r0
    50d2:	a1 1d       	adc	r26, r1
    50d4:	62 1f       	adc	r22, r18
    50d6:	83 9f       	mul	r24, r19
    50d8:	a0 0d       	add	r26, r0
    50da:	61 1d       	adc	r22, r1
    50dc:	22 1f       	adc	r18, r18
    50de:	74 9f       	mul	r23, r20
    50e0:	33 27       	eor	r19, r19
    50e2:	a0 0d       	add	r26, r0
    50e4:	61 1d       	adc	r22, r1
    50e6:	23 1f       	adc	r18, r19
    50e8:	84 9f       	mul	r24, r20
    50ea:	60 0d       	add	r22, r0
    50ec:	21 1d       	adc	r18, r1
    50ee:	82 2f       	mov	r24, r18
    50f0:	76 2f       	mov	r23, r22
    50f2:	6a 2f       	mov	r22, r26
    50f4:	11 24       	eor	r1, r1
    50f6:	9f 57       	subi	r25, 0x7F	; 127
    50f8:	50 40       	sbci	r21, 0x00	; 0
    50fa:	9a f0       	brmi	.+38     	; 0x5122 <__mulsf3_pse+0x88>
    50fc:	f1 f0       	breq	.+60     	; 0x513a <__mulsf3_pse+0xa0>
    50fe:	88 23       	and	r24, r24
    5100:	4a f0       	brmi	.+18     	; 0x5114 <__mulsf3_pse+0x7a>
    5102:	ee 0f       	add	r30, r30
    5104:	ff 1f       	adc	r31, r31
    5106:	bb 1f       	adc	r27, r27
    5108:	66 1f       	adc	r22, r22
    510a:	77 1f       	adc	r23, r23
    510c:	88 1f       	adc	r24, r24
    510e:	91 50       	subi	r25, 0x01	; 1
    5110:	50 40       	sbci	r21, 0x00	; 0
    5112:	a9 f7       	brne	.-22     	; 0x50fe <__mulsf3_pse+0x64>
    5114:	9e 3f       	cpi	r25, 0xFE	; 254
    5116:	51 05       	cpc	r21, r1
    5118:	80 f0       	brcs	.+32     	; 0x513a <__mulsf3_pse+0xa0>
    511a:	0c 94 83 27 	jmp	0x4f06	; 0x4f06 <__fp_inf>
    511e:	0c 94 dc 27 	jmp	0x4fb8	; 0x4fb8 <__fp_szero>
    5122:	5f 3f       	cpi	r21, 0xFF	; 255
    5124:	e4 f3       	brlt	.-8      	; 0x511e <__mulsf3_pse+0x84>
    5126:	98 3e       	cpi	r25, 0xE8	; 232
    5128:	d4 f3       	brlt	.-12     	; 0x511e <__mulsf3_pse+0x84>
    512a:	86 95       	lsr	r24
    512c:	77 95       	ror	r23
    512e:	67 95       	ror	r22
    5130:	b7 95       	ror	r27
    5132:	f7 95       	ror	r31
    5134:	e7 95       	ror	r30
    5136:	9f 5f       	subi	r25, 0xFF	; 255
    5138:	c1 f7       	brne	.-16     	; 0x512a <__mulsf3_pse+0x90>
    513a:	fe 2b       	or	r31, r30
    513c:	88 0f       	add	r24, r24
    513e:	91 1d       	adc	r25, r1
    5140:	96 95       	lsr	r25
    5142:	87 95       	ror	r24
    5144:	97 f9       	bld	r25, 7
    5146:	08 95       	ret

00005148 <pow>:
    5148:	fa 01       	movw	r30, r20
    514a:	ee 0f       	add	r30, r30
    514c:	ff 1f       	adc	r31, r31
    514e:	30 96       	adiw	r30, 0x00	; 0
    5150:	21 05       	cpc	r18, r1
    5152:	31 05       	cpc	r19, r1
    5154:	a1 f1       	breq	.+104    	; 0x51be <pow+0x76>
    5156:	61 15       	cp	r22, r1
    5158:	71 05       	cpc	r23, r1
    515a:	61 f4       	brne	.+24     	; 0x5174 <pow+0x2c>
    515c:	80 38       	cpi	r24, 0x80	; 128
    515e:	bf e3       	ldi	r27, 0x3F	; 63
    5160:	9b 07       	cpc	r25, r27
    5162:	49 f1       	breq	.+82     	; 0x51b6 <pow+0x6e>
    5164:	68 94       	set
    5166:	90 38       	cpi	r25, 0x80	; 128
    5168:	81 05       	cpc	r24, r1
    516a:	61 f0       	breq	.+24     	; 0x5184 <pow+0x3c>
    516c:	80 38       	cpi	r24, 0x80	; 128
    516e:	bf ef       	ldi	r27, 0xFF	; 255
    5170:	9b 07       	cpc	r25, r27
    5172:	41 f0       	breq	.+16     	; 0x5184 <pow+0x3c>
    5174:	99 23       	and	r25, r25
    5176:	4a f5       	brpl	.+82     	; 0x51ca <pow+0x82>
    5178:	ff 3f       	cpi	r31, 0xFF	; 255
    517a:	e1 05       	cpc	r30, r1
    517c:	31 05       	cpc	r19, r1
    517e:	21 05       	cpc	r18, r1
    5180:	19 f1       	breq	.+70     	; 0x51c8 <pow+0x80>
    5182:	e8 94       	clt
    5184:	08 94       	sec
    5186:	e7 95       	ror	r30
    5188:	d9 01       	movw	r26, r18
    518a:	aa 23       	and	r26, r26
    518c:	29 f4       	brne	.+10     	; 0x5198 <pow+0x50>
    518e:	ab 2f       	mov	r26, r27
    5190:	be 2f       	mov	r27, r30
    5192:	f8 5f       	subi	r31, 0xF8	; 248
    5194:	d0 f3       	brcs	.-12     	; 0x518a <pow+0x42>
    5196:	10 c0       	rjmp	.+32     	; 0x51b8 <pow+0x70>
    5198:	ff 5f       	subi	r31, 0xFF	; 255
    519a:	70 f4       	brcc	.+28     	; 0x51b8 <pow+0x70>
    519c:	a6 95       	lsr	r26
    519e:	e0 f7       	brcc	.-8      	; 0x5198 <pow+0x50>
    51a0:	f7 39       	cpi	r31, 0x97	; 151
    51a2:	50 f0       	brcs	.+20     	; 0x51b8 <pow+0x70>
    51a4:	19 f0       	breq	.+6      	; 0x51ac <pow+0x64>
    51a6:	ff 3a       	cpi	r31, 0xAF	; 175
    51a8:	38 f4       	brcc	.+14     	; 0x51b8 <pow+0x70>
    51aa:	9f 77       	andi	r25, 0x7F	; 127
    51ac:	9f 93       	push	r25
    51ae:	0d d0       	rcall	.+26     	; 0x51ca <pow+0x82>
    51b0:	0f 90       	pop	r0
    51b2:	07 fc       	sbrc	r0, 7
    51b4:	90 58       	subi	r25, 0x80	; 128
    51b6:	08 95       	ret
    51b8:	46 f0       	brts	.+16     	; 0x51ca <pow+0x82>
    51ba:	0c 94 97 27 	jmp	0x4f2e	; 0x4f2e <__fp_nan>
    51be:	60 e0       	ldi	r22, 0x00	; 0
    51c0:	70 e0       	ldi	r23, 0x00	; 0
    51c2:	80 e8       	ldi	r24, 0x80	; 128
    51c4:	9f e3       	ldi	r25, 0x3F	; 63
    51c6:	08 95       	ret
    51c8:	4f e7       	ldi	r20, 0x7F	; 127
    51ca:	9f 77       	andi	r25, 0x7F	; 127
    51cc:	5f 93       	push	r21
    51ce:	4f 93       	push	r20
    51d0:	3f 93       	push	r19
    51d2:	2f 93       	push	r18
    51d4:	0e 94 ef 27 	call	0x4fde	; 0x4fde <log>
    51d8:	2f 91       	pop	r18
    51da:	3f 91       	pop	r19
    51dc:	4f 91       	pop	r20
    51de:	5f 91       	pop	r21
    51e0:	0e 94 37 28 	call	0x506e	; 0x506e <__mulsf3>
    51e4:	0c 94 fc 28 	jmp	0x51f8	; 0x51f8 <exp>
    51e8:	29 f4       	brne	.+10     	; 0x51f4 <pow+0xac>
    51ea:	16 f0       	brts	.+4      	; 0x51f0 <pow+0xa8>
    51ec:	0c 94 83 27 	jmp	0x4f06	; 0x4f06 <__fp_inf>
    51f0:	0c 94 db 27 	jmp	0x4fb6	; 0x4fb6 <__fp_zero>
    51f4:	0c 94 97 27 	jmp	0x4f2e	; 0x4f2e <__fp_nan>

000051f8 <exp>:
    51f8:	0e 94 c1 27 	call	0x4f82	; 0x4f82 <__fp_splitA>
    51fc:	a8 f3       	brcs	.-22     	; 0x51e8 <pow+0xa0>
    51fe:	96 38       	cpi	r25, 0x86	; 134
    5200:	a0 f7       	brcc	.-24     	; 0x51ea <pow+0xa2>
    5202:	07 f8       	bld	r0, 7
    5204:	0f 92       	push	r0
    5206:	e8 94       	clt
    5208:	2b e3       	ldi	r18, 0x3B	; 59
    520a:	3a ea       	ldi	r19, 0xAA	; 170
    520c:	48 eb       	ldi	r20, 0xB8	; 184
    520e:	5f e7       	ldi	r21, 0x7F	; 127
    5210:	0e 94 4d 28 	call	0x509a	; 0x509a <__mulsf3_pse>
    5214:	0f 92       	push	r0
    5216:	0f 92       	push	r0
    5218:	0f 92       	push	r0
    521a:	4d b7       	in	r20, 0x3d	; 61
    521c:	5e b7       	in	r21, 0x3e	; 62
    521e:	0f 92       	push	r0
    5220:	0e 94 97 29 	call	0x532e	; 0x532e <modf>
    5224:	ec e2       	ldi	r30, 0x2C	; 44
    5226:	f1 e0       	ldi	r31, 0x01	; 1
    5228:	0e 94 2e 29 	call	0x525c	; 0x525c <__fp_powser>
    522c:	4f 91       	pop	r20
    522e:	5f 91       	pop	r21
    5230:	ef 91       	pop	r30
    5232:	ff 91       	pop	r31
    5234:	e5 95       	asr	r30
    5236:	ee 1f       	adc	r30, r30
    5238:	ff 1f       	adc	r31, r31
    523a:	49 f0       	breq	.+18     	; 0x524e <exp+0x56>
    523c:	fe 57       	subi	r31, 0x7E	; 126
    523e:	e0 68       	ori	r30, 0x80	; 128
    5240:	44 27       	eor	r20, r20
    5242:	ee 0f       	add	r30, r30
    5244:	44 1f       	adc	r20, r20
    5246:	fa 95       	dec	r31
    5248:	e1 f7       	brne	.-8      	; 0x5242 <exp+0x4a>
    524a:	41 95       	neg	r20
    524c:	55 0b       	sbc	r21, r21
    524e:	0e 94 61 29 	call	0x52c2	; 0x52c2 <ldexp>
    5252:	0f 90       	pop	r0
    5254:	07 fe       	sbrs	r0, 7
    5256:	0c 94 55 29 	jmp	0x52aa	; 0x52aa <inverse>
    525a:	08 95       	ret

0000525c <__fp_powser>:
    525c:	df 93       	push	r29
    525e:	cf 93       	push	r28
    5260:	1f 93       	push	r17
    5262:	0f 93       	push	r16
    5264:	ff 92       	push	r15
    5266:	ef 92       	push	r14
    5268:	df 92       	push	r13
    526a:	7b 01       	movw	r14, r22
    526c:	8c 01       	movw	r16, r24
    526e:	68 94       	set
    5270:	06 c0       	rjmp	.+12     	; 0x527e <__fp_powser+0x22>
    5272:	da 2e       	mov	r13, r26
    5274:	ef 01       	movw	r28, r30
    5276:	0e 94 4a 28 	call	0x5094	; 0x5094 <__mulsf3x>
    527a:	fe 01       	movw	r30, r28
    527c:	e8 94       	clt
    527e:	a5 91       	lpm	r26, Z+
    5280:	25 91       	lpm	r18, Z+
    5282:	35 91       	lpm	r19, Z+
    5284:	45 91       	lpm	r20, Z+
    5286:	55 91       	lpm	r21, Z+
    5288:	a6 f3       	brts	.-24     	; 0x5272 <__fp_powser+0x16>
    528a:	ef 01       	movw	r28, r30
    528c:	0e 94 02 26 	call	0x4c04	; 0x4c04 <__addsf3x>
    5290:	fe 01       	movw	r30, r28
    5292:	97 01       	movw	r18, r14
    5294:	a8 01       	movw	r20, r16
    5296:	da 94       	dec	r13
    5298:	69 f7       	brne	.-38     	; 0x5274 <__fp_powser+0x18>
    529a:	df 90       	pop	r13
    529c:	ef 90       	pop	r14
    529e:	ff 90       	pop	r15
    52a0:	0f 91       	pop	r16
    52a2:	1f 91       	pop	r17
    52a4:	cf 91       	pop	r28
    52a6:	df 91       	pop	r29
    52a8:	08 95       	ret

000052aa <inverse>:
    52aa:	9b 01       	movw	r18, r22
    52ac:	ac 01       	movw	r20, r24
    52ae:	60 e0       	ldi	r22, 0x00	; 0
    52b0:	70 e0       	ldi	r23, 0x00	; 0
    52b2:	80 e8       	ldi	r24, 0x80	; 128
    52b4:	9f e3       	ldi	r25, 0x3F	; 63
    52b6:	0c 94 5c 26 	jmp	0x4cb8	; 0x4cb8 <__divsf3>
    52ba:	0c 94 83 27 	jmp	0x4f06	; 0x4f06 <__fp_inf>
    52be:	0c 94 89 27 	jmp	0x4f12	; 0x4f12 <__fp_mpack>

000052c2 <ldexp>:
    52c2:	0e 94 c1 27 	call	0x4f82	; 0x4f82 <__fp_splitA>
    52c6:	d8 f3       	brcs	.-10     	; 0x52be <inverse+0x14>
    52c8:	99 23       	and	r25, r25
    52ca:	c9 f3       	breq	.-14     	; 0x52be <inverse+0x14>
    52cc:	94 0f       	add	r25, r20
    52ce:	51 1d       	adc	r21, r1
    52d0:	a3 f3       	brvs	.-24     	; 0x52ba <inverse+0x10>
    52d2:	91 50       	subi	r25, 0x01	; 1
    52d4:	50 40       	sbci	r21, 0x00	; 0
    52d6:	94 f0       	brlt	.+36     	; 0x52fc <ldexp+0x3a>
    52d8:	59 f0       	breq	.+22     	; 0x52f0 <ldexp+0x2e>
    52da:	88 23       	and	r24, r24
    52dc:	32 f0       	brmi	.+12     	; 0x52ea <ldexp+0x28>
    52de:	66 0f       	add	r22, r22
    52e0:	77 1f       	adc	r23, r23
    52e2:	88 1f       	adc	r24, r24
    52e4:	91 50       	subi	r25, 0x01	; 1
    52e6:	50 40       	sbci	r21, 0x00	; 0
    52e8:	c1 f7       	brne	.-16     	; 0x52da <ldexp+0x18>
    52ea:	9e 3f       	cpi	r25, 0xFE	; 254
    52ec:	51 05       	cpc	r21, r1
    52ee:	2c f7       	brge	.-54     	; 0x52ba <inverse+0x10>
    52f0:	88 0f       	add	r24, r24
    52f2:	91 1d       	adc	r25, r1
    52f4:	96 95       	lsr	r25
    52f6:	87 95       	ror	r24
    52f8:	97 f9       	bld	r25, 7
    52fa:	08 95       	ret
    52fc:	5f 3f       	cpi	r21, 0xFF	; 255
    52fe:	ac f0       	brlt	.+42     	; 0x532a <ldexp+0x68>
    5300:	98 3e       	cpi	r25, 0xE8	; 232
    5302:	9c f0       	brlt	.+38     	; 0x532a <ldexp+0x68>
    5304:	bb 27       	eor	r27, r27
    5306:	86 95       	lsr	r24
    5308:	77 95       	ror	r23
    530a:	67 95       	ror	r22
    530c:	b7 95       	ror	r27
    530e:	08 f4       	brcc	.+2      	; 0x5312 <ldexp+0x50>
    5310:	b1 60       	ori	r27, 0x01	; 1
    5312:	93 95       	inc	r25
    5314:	c1 f7       	brne	.-16     	; 0x5306 <ldexp+0x44>
    5316:	bb 0f       	add	r27, r27
    5318:	58 f7       	brcc	.-42     	; 0x52f0 <ldexp+0x2e>
    531a:	11 f4       	brne	.+4      	; 0x5320 <ldexp+0x5e>
    531c:	60 ff       	sbrs	r22, 0
    531e:	e8 cf       	rjmp	.-48     	; 0x52f0 <ldexp+0x2e>
    5320:	6f 5f       	subi	r22, 0xFF	; 255
    5322:	7f 4f       	sbci	r23, 0xFF	; 255
    5324:	8f 4f       	sbci	r24, 0xFF	; 255
    5326:	9f 4f       	sbci	r25, 0xFF	; 255
    5328:	e3 cf       	rjmp	.-58     	; 0x52f0 <ldexp+0x2e>
    532a:	0c 94 dc 27 	jmp	0x4fb8	; 0x4fb8 <__fp_szero>

0000532e <modf>:
    532e:	fa 01       	movw	r30, r20
    5330:	dc 01       	movw	r26, r24
    5332:	aa 0f       	add	r26, r26
    5334:	bb 1f       	adc	r27, r27
    5336:	9b 01       	movw	r18, r22
    5338:	ac 01       	movw	r20, r24
    533a:	bf 57       	subi	r27, 0x7F	; 127
    533c:	28 f4       	brcc	.+10     	; 0x5348 <modf+0x1a>
    533e:	22 27       	eor	r18, r18
    5340:	33 27       	eor	r19, r19
    5342:	44 27       	eor	r20, r20
    5344:	50 78       	andi	r21, 0x80	; 128
    5346:	20 c0       	rjmp	.+64     	; 0x5388 <modf+0x5a>
    5348:	b7 51       	subi	r27, 0x17	; 23
    534a:	90 f4       	brcc	.+36     	; 0x5370 <modf+0x42>
    534c:	ab 2f       	mov	r26, r27
    534e:	00 24       	eor	r0, r0
    5350:	46 95       	lsr	r20
    5352:	37 95       	ror	r19
    5354:	27 95       	ror	r18
    5356:	01 1c       	adc	r0, r1
    5358:	a3 95       	inc	r26
    535a:	d2 f3       	brmi	.-12     	; 0x5350 <modf+0x22>
    535c:	00 20       	and	r0, r0
    535e:	71 f0       	breq	.+28     	; 0x537c <modf+0x4e>
    5360:	22 0f       	add	r18, r18
    5362:	33 1f       	adc	r19, r19
    5364:	44 1f       	adc	r20, r20
    5366:	b3 95       	inc	r27
    5368:	da f3       	brmi	.-10     	; 0x5360 <modf+0x32>
    536a:	0e d0       	rcall	.+28     	; 0x5388 <modf+0x5a>
    536c:	0c 94 ea 25 	jmp	0x4bd4	; 0x4bd4 <__subsf3>
    5370:	61 30       	cpi	r22, 0x01	; 1
    5372:	71 05       	cpc	r23, r1
    5374:	a0 e8       	ldi	r26, 0x80	; 128
    5376:	8a 07       	cpc	r24, r26
    5378:	b9 46       	sbci	r27, 0x69	; 105
    537a:	30 f4       	brcc	.+12     	; 0x5388 <modf+0x5a>
    537c:	9b 01       	movw	r18, r22
    537e:	ac 01       	movw	r20, r24
    5380:	66 27       	eor	r22, r22
    5382:	77 27       	eor	r23, r23
    5384:	88 27       	eor	r24, r24
    5386:	90 78       	andi	r25, 0x80	; 128
    5388:	30 96       	adiw	r30, 0x00	; 0
    538a:	21 f0       	breq	.+8      	; 0x5394 <modf+0x66>
    538c:	20 83       	st	Z, r18
    538e:	31 83       	std	Z+1, r19	; 0x01
    5390:	42 83       	std	Z+2, r20	; 0x02
    5392:	53 83       	std	Z+3, r21	; 0x03
    5394:	08 95       	ret

00005396 <__divmodhi4>:
    5396:	97 fb       	bst	r25, 7
    5398:	07 2e       	mov	r0, r23
    539a:	16 f4       	brtc	.+4      	; 0x53a0 <__divmodhi4+0xa>
    539c:	00 94       	com	r0
    539e:	07 d0       	rcall	.+14     	; 0x53ae <__divmodhi4_neg1>
    53a0:	77 fd       	sbrc	r23, 7
    53a2:	09 d0       	rcall	.+18     	; 0x53b6 <__divmodhi4_neg2>
    53a4:	0e 94 07 2a 	call	0x540e	; 0x540e <__udivmodhi4>
    53a8:	07 fc       	sbrc	r0, 7
    53aa:	05 d0       	rcall	.+10     	; 0x53b6 <__divmodhi4_neg2>
    53ac:	3e f4       	brtc	.+14     	; 0x53bc <__divmodhi4_exit>

000053ae <__divmodhi4_neg1>:
    53ae:	90 95       	com	r25
    53b0:	81 95       	neg	r24
    53b2:	9f 4f       	sbci	r25, 0xFF	; 255
    53b4:	08 95       	ret

000053b6 <__divmodhi4_neg2>:
    53b6:	70 95       	com	r23
    53b8:	61 95       	neg	r22
    53ba:	7f 4f       	sbci	r23, 0xFF	; 255

000053bc <__divmodhi4_exit>:
    53bc:	08 95       	ret

000053be <__udivmodsi4>:
    53be:	a1 e2       	ldi	r26, 0x21	; 33
    53c0:	1a 2e       	mov	r1, r26
    53c2:	aa 1b       	sub	r26, r26
    53c4:	bb 1b       	sub	r27, r27
    53c6:	fd 01       	movw	r30, r26
    53c8:	0d c0       	rjmp	.+26     	; 0x53e4 <__udivmodsi4_ep>

000053ca <__udivmodsi4_loop>:
    53ca:	aa 1f       	adc	r26, r26
    53cc:	bb 1f       	adc	r27, r27
    53ce:	ee 1f       	adc	r30, r30
    53d0:	ff 1f       	adc	r31, r31
    53d2:	a2 17       	cp	r26, r18
    53d4:	b3 07       	cpc	r27, r19
    53d6:	e4 07       	cpc	r30, r20
    53d8:	f5 07       	cpc	r31, r21
    53da:	20 f0       	brcs	.+8      	; 0x53e4 <__udivmodsi4_ep>
    53dc:	a2 1b       	sub	r26, r18
    53de:	b3 0b       	sbc	r27, r19
    53e0:	e4 0b       	sbc	r30, r20
    53e2:	f5 0b       	sbc	r31, r21

000053e4 <__udivmodsi4_ep>:
    53e4:	66 1f       	adc	r22, r22
    53e6:	77 1f       	adc	r23, r23
    53e8:	88 1f       	adc	r24, r24
    53ea:	99 1f       	adc	r25, r25
    53ec:	1a 94       	dec	r1
    53ee:	69 f7       	brne	.-38     	; 0x53ca <__udivmodsi4_loop>
    53f0:	60 95       	com	r22
    53f2:	70 95       	com	r23
    53f4:	80 95       	com	r24
    53f6:	90 95       	com	r25
    53f8:	9b 01       	movw	r18, r22
    53fa:	ac 01       	movw	r20, r24
    53fc:	bd 01       	movw	r22, r26
    53fe:	cf 01       	movw	r24, r30
    5400:	08 95       	ret

00005402 <__tablejump2__>:
    5402:	ee 0f       	add	r30, r30
    5404:	ff 1f       	adc	r31, r31
    5406:	05 90       	lpm	r0, Z+
    5408:	f4 91       	lpm	r31, Z
    540a:	e0 2d       	mov	r30, r0
    540c:	09 94       	ijmp

0000540e <__udivmodhi4>:
    540e:	aa 1b       	sub	r26, r26
    5410:	bb 1b       	sub	r27, r27
    5412:	51 e1       	ldi	r21, 0x11	; 17
    5414:	07 c0       	rjmp	.+14     	; 0x5424 <__udivmodhi4_ep>

00005416 <__udivmodhi4_loop>:
    5416:	aa 1f       	adc	r26, r26
    5418:	bb 1f       	adc	r27, r27
    541a:	a6 17       	cp	r26, r22
    541c:	b7 07       	cpc	r27, r23
    541e:	10 f0       	brcs	.+4      	; 0x5424 <__udivmodhi4_ep>
    5420:	a6 1b       	sub	r26, r22
    5422:	b7 0b       	sbc	r27, r23

00005424 <__udivmodhi4_ep>:
    5424:	88 1f       	adc	r24, r24
    5426:	99 1f       	adc	r25, r25
    5428:	5a 95       	dec	r21
    542a:	a9 f7       	brne	.-22     	; 0x5416 <__udivmodhi4_loop>
    542c:	80 95       	com	r24
    542e:	90 95       	com	r25
    5430:	bc 01       	movw	r22, r24
    5432:	cd 01       	movw	r24, r26
    5434:	08 95       	ret

00005436 <dtostrf>:
    5436:	ef 92       	push	r14
    5438:	0f 93       	push	r16
    543a:	1f 93       	push	r17
    543c:	cf 93       	push	r28
    543e:	df 93       	push	r29
    5440:	e8 01       	movw	r28, r16
    5442:	47 fd       	sbrc	r20, 7
    5444:	02 c0       	rjmp	.+4      	; 0x544a <dtostrf+0x14>
    5446:	34 e0       	ldi	r19, 0x04	; 4
    5448:	01 c0       	rjmp	.+2      	; 0x544c <dtostrf+0x16>
    544a:	34 e1       	ldi	r19, 0x14	; 20
    544c:	04 2e       	mov	r0, r20
    544e:	00 0c       	add	r0, r0
    5450:	55 0b       	sbc	r21, r21
    5452:	57 ff       	sbrs	r21, 7
    5454:	03 c0       	rjmp	.+6      	; 0x545c <dtostrf+0x26>
    5456:	51 95       	neg	r21
    5458:	41 95       	neg	r20
    545a:	51 09       	sbc	r21, r1
    545c:	e3 2e       	mov	r14, r19
    545e:	02 2f       	mov	r16, r18
    5460:	24 2f       	mov	r18, r20
    5462:	ae 01       	movw	r20, r28
    5464:	0e 94 e9 2f 	call	0x5fd2	; 0x5fd2 <dtoa_prf>
    5468:	ce 01       	movw	r24, r28
    546a:	df 91       	pop	r29
    546c:	cf 91       	pop	r28
    546e:	1f 91       	pop	r17
    5470:	0f 91       	pop	r16
    5472:	ef 90       	pop	r14
    5474:	08 95       	ret

00005476 <malloc>:
    5476:	0f 93       	push	r16
    5478:	1f 93       	push	r17
    547a:	cf 93       	push	r28
    547c:	df 93       	push	r29
    547e:	82 30       	cpi	r24, 0x02	; 2
    5480:	91 05       	cpc	r25, r1
    5482:	10 f4       	brcc	.+4      	; 0x5488 <malloc+0x12>
    5484:	82 e0       	ldi	r24, 0x02	; 2
    5486:	90 e0       	ldi	r25, 0x00	; 0
    5488:	e0 91 b2 04 	lds	r30, 0x04B2	; 0x8004b2 <__flp>
    548c:	f0 91 b3 04 	lds	r31, 0x04B3	; 0x8004b3 <__flp+0x1>
    5490:	20 e0       	ldi	r18, 0x00	; 0
    5492:	30 e0       	ldi	r19, 0x00	; 0
    5494:	a0 e0       	ldi	r26, 0x00	; 0
    5496:	b0 e0       	ldi	r27, 0x00	; 0
    5498:	30 97       	sbiw	r30, 0x00	; 0
    549a:	19 f1       	breq	.+70     	; 0x54e2 <malloc+0x6c>
    549c:	40 81       	ld	r20, Z
    549e:	51 81       	ldd	r21, Z+1	; 0x01
    54a0:	02 81       	ldd	r16, Z+2	; 0x02
    54a2:	13 81       	ldd	r17, Z+3	; 0x03
    54a4:	48 17       	cp	r20, r24
    54a6:	59 07       	cpc	r21, r25
    54a8:	c8 f0       	brcs	.+50     	; 0x54dc <malloc+0x66>
    54aa:	84 17       	cp	r24, r20
    54ac:	95 07       	cpc	r25, r21
    54ae:	69 f4       	brne	.+26     	; 0x54ca <malloc+0x54>
    54b0:	10 97       	sbiw	r26, 0x00	; 0
    54b2:	31 f0       	breq	.+12     	; 0x54c0 <malloc+0x4a>
    54b4:	12 96       	adiw	r26, 0x02	; 2
    54b6:	0c 93       	st	X, r16
    54b8:	12 97       	sbiw	r26, 0x02	; 2
    54ba:	13 96       	adiw	r26, 0x03	; 3
    54bc:	1c 93       	st	X, r17
    54be:	27 c0       	rjmp	.+78     	; 0x550e <malloc+0x98>
    54c0:	00 93 b2 04 	sts	0x04B2, r16	; 0x8004b2 <__flp>
    54c4:	10 93 b3 04 	sts	0x04B3, r17	; 0x8004b3 <__flp+0x1>
    54c8:	22 c0       	rjmp	.+68     	; 0x550e <malloc+0x98>
    54ca:	21 15       	cp	r18, r1
    54cc:	31 05       	cpc	r19, r1
    54ce:	19 f0       	breq	.+6      	; 0x54d6 <malloc+0x60>
    54d0:	42 17       	cp	r20, r18
    54d2:	53 07       	cpc	r21, r19
    54d4:	18 f4       	brcc	.+6      	; 0x54dc <malloc+0x66>
    54d6:	9a 01       	movw	r18, r20
    54d8:	bd 01       	movw	r22, r26
    54da:	ef 01       	movw	r28, r30
    54dc:	df 01       	movw	r26, r30
    54de:	f8 01       	movw	r30, r16
    54e0:	db cf       	rjmp	.-74     	; 0x5498 <malloc+0x22>
    54e2:	21 15       	cp	r18, r1
    54e4:	31 05       	cpc	r19, r1
    54e6:	f9 f0       	breq	.+62     	; 0x5526 <malloc+0xb0>
    54e8:	28 1b       	sub	r18, r24
    54ea:	39 0b       	sbc	r19, r25
    54ec:	24 30       	cpi	r18, 0x04	; 4
    54ee:	31 05       	cpc	r19, r1
    54f0:	80 f4       	brcc	.+32     	; 0x5512 <malloc+0x9c>
    54f2:	8a 81       	ldd	r24, Y+2	; 0x02
    54f4:	9b 81       	ldd	r25, Y+3	; 0x03
    54f6:	61 15       	cp	r22, r1
    54f8:	71 05       	cpc	r23, r1
    54fa:	21 f0       	breq	.+8      	; 0x5504 <malloc+0x8e>
    54fc:	fb 01       	movw	r30, r22
    54fe:	93 83       	std	Z+3, r25	; 0x03
    5500:	82 83       	std	Z+2, r24	; 0x02
    5502:	04 c0       	rjmp	.+8      	; 0x550c <malloc+0x96>
    5504:	90 93 b3 04 	sts	0x04B3, r25	; 0x8004b3 <__flp+0x1>
    5508:	80 93 b2 04 	sts	0x04B2, r24	; 0x8004b2 <__flp>
    550c:	fe 01       	movw	r30, r28
    550e:	32 96       	adiw	r30, 0x02	; 2
    5510:	44 c0       	rjmp	.+136    	; 0x559a <malloc+0x124>
    5512:	fe 01       	movw	r30, r28
    5514:	e2 0f       	add	r30, r18
    5516:	f3 1f       	adc	r31, r19
    5518:	81 93       	st	Z+, r24
    551a:	91 93       	st	Z+, r25
    551c:	22 50       	subi	r18, 0x02	; 2
    551e:	31 09       	sbc	r19, r1
    5520:	39 83       	std	Y+1, r19	; 0x01
    5522:	28 83       	st	Y, r18
    5524:	3a c0       	rjmp	.+116    	; 0x559a <malloc+0x124>
    5526:	20 91 b0 04 	lds	r18, 0x04B0	; 0x8004b0 <__brkval>
    552a:	30 91 b1 04 	lds	r19, 0x04B1	; 0x8004b1 <__brkval+0x1>
    552e:	23 2b       	or	r18, r19
    5530:	41 f4       	brne	.+16     	; 0x5542 <malloc+0xcc>
    5532:	20 91 02 01 	lds	r18, 0x0102	; 0x800102 <__malloc_heap_start>
    5536:	30 91 03 01 	lds	r19, 0x0103	; 0x800103 <__malloc_heap_start+0x1>
    553a:	30 93 b1 04 	sts	0x04B1, r19	; 0x8004b1 <__brkval+0x1>
    553e:	20 93 b0 04 	sts	0x04B0, r18	; 0x8004b0 <__brkval>
    5542:	20 91 00 01 	lds	r18, 0x0100	; 0x800100 <__data_start>
    5546:	30 91 01 01 	lds	r19, 0x0101	; 0x800101 <__data_start+0x1>
    554a:	21 15       	cp	r18, r1
    554c:	31 05       	cpc	r19, r1
    554e:	41 f4       	brne	.+16     	; 0x5560 <malloc+0xea>
    5550:	2d b7       	in	r18, 0x3d	; 61
    5552:	3e b7       	in	r19, 0x3e	; 62
    5554:	40 91 04 01 	lds	r20, 0x0104	; 0x800104 <__malloc_margin>
    5558:	50 91 05 01 	lds	r21, 0x0105	; 0x800105 <__malloc_margin+0x1>
    555c:	24 1b       	sub	r18, r20
    555e:	35 0b       	sbc	r19, r21
    5560:	e0 91 b0 04 	lds	r30, 0x04B0	; 0x8004b0 <__brkval>
    5564:	f0 91 b1 04 	lds	r31, 0x04B1	; 0x8004b1 <__brkval+0x1>
    5568:	e2 17       	cp	r30, r18
    556a:	f3 07       	cpc	r31, r19
    556c:	a0 f4       	brcc	.+40     	; 0x5596 <malloc+0x120>
    556e:	2e 1b       	sub	r18, r30
    5570:	3f 0b       	sbc	r19, r31
    5572:	28 17       	cp	r18, r24
    5574:	39 07       	cpc	r19, r25
    5576:	78 f0       	brcs	.+30     	; 0x5596 <malloc+0x120>
    5578:	ac 01       	movw	r20, r24
    557a:	4e 5f       	subi	r20, 0xFE	; 254
    557c:	5f 4f       	sbci	r21, 0xFF	; 255
    557e:	24 17       	cp	r18, r20
    5580:	35 07       	cpc	r19, r21
    5582:	48 f0       	brcs	.+18     	; 0x5596 <malloc+0x120>
    5584:	4e 0f       	add	r20, r30
    5586:	5f 1f       	adc	r21, r31
    5588:	50 93 b1 04 	sts	0x04B1, r21	; 0x8004b1 <__brkval+0x1>
    558c:	40 93 b0 04 	sts	0x04B0, r20	; 0x8004b0 <__brkval>
    5590:	81 93       	st	Z+, r24
    5592:	91 93       	st	Z+, r25
    5594:	02 c0       	rjmp	.+4      	; 0x559a <malloc+0x124>
    5596:	e0 e0       	ldi	r30, 0x00	; 0
    5598:	f0 e0       	ldi	r31, 0x00	; 0
    559a:	cf 01       	movw	r24, r30
    559c:	df 91       	pop	r29
    559e:	cf 91       	pop	r28
    55a0:	1f 91       	pop	r17
    55a2:	0f 91       	pop	r16
    55a4:	08 95       	ret

000055a6 <free>:
    55a6:	cf 93       	push	r28
    55a8:	df 93       	push	r29
    55aa:	00 97       	sbiw	r24, 0x00	; 0
    55ac:	09 f4       	brne	.+2      	; 0x55b0 <free+0xa>
    55ae:	81 c0       	rjmp	.+258    	; 0x56b2 <free+0x10c>
    55b0:	fc 01       	movw	r30, r24
    55b2:	32 97       	sbiw	r30, 0x02	; 2
    55b4:	13 82       	std	Z+3, r1	; 0x03
    55b6:	12 82       	std	Z+2, r1	; 0x02
    55b8:	a0 91 b2 04 	lds	r26, 0x04B2	; 0x8004b2 <__flp>
    55bc:	b0 91 b3 04 	lds	r27, 0x04B3	; 0x8004b3 <__flp+0x1>
    55c0:	10 97       	sbiw	r26, 0x00	; 0
    55c2:	81 f4       	brne	.+32     	; 0x55e4 <free+0x3e>
    55c4:	20 81       	ld	r18, Z
    55c6:	31 81       	ldd	r19, Z+1	; 0x01
    55c8:	82 0f       	add	r24, r18
    55ca:	93 1f       	adc	r25, r19
    55cc:	20 91 b0 04 	lds	r18, 0x04B0	; 0x8004b0 <__brkval>
    55d0:	30 91 b1 04 	lds	r19, 0x04B1	; 0x8004b1 <__brkval+0x1>
    55d4:	28 17       	cp	r18, r24
    55d6:	39 07       	cpc	r19, r25
    55d8:	51 f5       	brne	.+84     	; 0x562e <free+0x88>
    55da:	f0 93 b1 04 	sts	0x04B1, r31	; 0x8004b1 <__brkval+0x1>
    55de:	e0 93 b0 04 	sts	0x04B0, r30	; 0x8004b0 <__brkval>
    55e2:	67 c0       	rjmp	.+206    	; 0x56b2 <free+0x10c>
    55e4:	ed 01       	movw	r28, r26
    55e6:	20 e0       	ldi	r18, 0x00	; 0
    55e8:	30 e0       	ldi	r19, 0x00	; 0
    55ea:	ce 17       	cp	r28, r30
    55ec:	df 07       	cpc	r29, r31
    55ee:	40 f4       	brcc	.+16     	; 0x5600 <free+0x5a>
    55f0:	4a 81       	ldd	r20, Y+2	; 0x02
    55f2:	5b 81       	ldd	r21, Y+3	; 0x03
    55f4:	9e 01       	movw	r18, r28
    55f6:	41 15       	cp	r20, r1
    55f8:	51 05       	cpc	r21, r1
    55fa:	f1 f0       	breq	.+60     	; 0x5638 <free+0x92>
    55fc:	ea 01       	movw	r28, r20
    55fe:	f5 cf       	rjmp	.-22     	; 0x55ea <free+0x44>
    5600:	d3 83       	std	Z+3, r29	; 0x03
    5602:	c2 83       	std	Z+2, r28	; 0x02
    5604:	40 81       	ld	r20, Z
    5606:	51 81       	ldd	r21, Z+1	; 0x01
    5608:	84 0f       	add	r24, r20
    560a:	95 1f       	adc	r25, r21
    560c:	c8 17       	cp	r28, r24
    560e:	d9 07       	cpc	r29, r25
    5610:	59 f4       	brne	.+22     	; 0x5628 <free+0x82>
    5612:	88 81       	ld	r24, Y
    5614:	99 81       	ldd	r25, Y+1	; 0x01
    5616:	84 0f       	add	r24, r20
    5618:	95 1f       	adc	r25, r21
    561a:	02 96       	adiw	r24, 0x02	; 2
    561c:	91 83       	std	Z+1, r25	; 0x01
    561e:	80 83       	st	Z, r24
    5620:	8a 81       	ldd	r24, Y+2	; 0x02
    5622:	9b 81       	ldd	r25, Y+3	; 0x03
    5624:	93 83       	std	Z+3, r25	; 0x03
    5626:	82 83       	std	Z+2, r24	; 0x02
    5628:	21 15       	cp	r18, r1
    562a:	31 05       	cpc	r19, r1
    562c:	29 f4       	brne	.+10     	; 0x5638 <free+0x92>
    562e:	f0 93 b3 04 	sts	0x04B3, r31	; 0x8004b3 <__flp+0x1>
    5632:	e0 93 b2 04 	sts	0x04B2, r30	; 0x8004b2 <__flp>
    5636:	3d c0       	rjmp	.+122    	; 0x56b2 <free+0x10c>
    5638:	e9 01       	movw	r28, r18
    563a:	fb 83       	std	Y+3, r31	; 0x03
    563c:	ea 83       	std	Y+2, r30	; 0x02
    563e:	49 91       	ld	r20, Y+
    5640:	59 91       	ld	r21, Y+
    5642:	c4 0f       	add	r28, r20
    5644:	d5 1f       	adc	r29, r21
    5646:	ec 17       	cp	r30, r28
    5648:	fd 07       	cpc	r31, r29
    564a:	61 f4       	brne	.+24     	; 0x5664 <free+0xbe>
    564c:	80 81       	ld	r24, Z
    564e:	91 81       	ldd	r25, Z+1	; 0x01
    5650:	84 0f       	add	r24, r20
    5652:	95 1f       	adc	r25, r21
    5654:	02 96       	adiw	r24, 0x02	; 2
    5656:	e9 01       	movw	r28, r18
    5658:	99 83       	std	Y+1, r25	; 0x01
    565a:	88 83       	st	Y, r24
    565c:	82 81       	ldd	r24, Z+2	; 0x02
    565e:	93 81       	ldd	r25, Z+3	; 0x03
    5660:	9b 83       	std	Y+3, r25	; 0x03
    5662:	8a 83       	std	Y+2, r24	; 0x02
    5664:	e0 e0       	ldi	r30, 0x00	; 0
    5666:	f0 e0       	ldi	r31, 0x00	; 0
    5668:	12 96       	adiw	r26, 0x02	; 2
    566a:	8d 91       	ld	r24, X+
    566c:	9c 91       	ld	r25, X
    566e:	13 97       	sbiw	r26, 0x03	; 3
    5670:	00 97       	sbiw	r24, 0x00	; 0
    5672:	19 f0       	breq	.+6      	; 0x567a <free+0xd4>
    5674:	fd 01       	movw	r30, r26
    5676:	dc 01       	movw	r26, r24
    5678:	f7 cf       	rjmp	.-18     	; 0x5668 <free+0xc2>
    567a:	8d 91       	ld	r24, X+
    567c:	9c 91       	ld	r25, X
    567e:	11 97       	sbiw	r26, 0x01	; 1
    5680:	9d 01       	movw	r18, r26
    5682:	2e 5f       	subi	r18, 0xFE	; 254
    5684:	3f 4f       	sbci	r19, 0xFF	; 255
    5686:	82 0f       	add	r24, r18
    5688:	93 1f       	adc	r25, r19
    568a:	20 91 b0 04 	lds	r18, 0x04B0	; 0x8004b0 <__brkval>
    568e:	30 91 b1 04 	lds	r19, 0x04B1	; 0x8004b1 <__brkval+0x1>
    5692:	28 17       	cp	r18, r24
    5694:	39 07       	cpc	r19, r25
    5696:	69 f4       	brne	.+26     	; 0x56b2 <free+0x10c>
    5698:	30 97       	sbiw	r30, 0x00	; 0
    569a:	29 f4       	brne	.+10     	; 0x56a6 <free+0x100>
    569c:	10 92 b3 04 	sts	0x04B3, r1	; 0x8004b3 <__flp+0x1>
    56a0:	10 92 b2 04 	sts	0x04B2, r1	; 0x8004b2 <__flp>
    56a4:	02 c0       	rjmp	.+4      	; 0x56aa <free+0x104>
    56a6:	13 82       	std	Z+3, r1	; 0x03
    56a8:	12 82       	std	Z+2, r1	; 0x02
    56aa:	b0 93 b1 04 	sts	0x04B1, r27	; 0x8004b1 <__brkval+0x1>
    56ae:	a0 93 b0 04 	sts	0x04B0, r26	; 0x8004b0 <__brkval>
    56b2:	df 91       	pop	r29
    56b4:	cf 91       	pop	r28
    56b6:	08 95       	ret

000056b8 <strtod>:
    56b8:	a0 e0       	ldi	r26, 0x00	; 0
    56ba:	b0 e0       	ldi	r27, 0x00	; 0
    56bc:	e2 e6       	ldi	r30, 0x62	; 98
    56be:	fb e2       	ldi	r31, 0x2B	; 43
    56c0:	0c 94 35 33 	jmp	0x666a	; 0x666a <__prologue_saves__+0xc>
    56c4:	ec 01       	movw	r28, r24
    56c6:	6b 01       	movw	r12, r22
    56c8:	61 15       	cp	r22, r1
    56ca:	71 05       	cpc	r23, r1
    56cc:	19 f0       	breq	.+6      	; 0x56d4 <strtod+0x1c>
    56ce:	fb 01       	movw	r30, r22
    56d0:	91 83       	std	Z+1, r25	; 0x01
    56d2:	80 83       	st	Z, r24
    56d4:	7e 01       	movw	r14, r28
    56d6:	ff ef       	ldi	r31, 0xFF	; 255
    56d8:	ef 1a       	sub	r14, r31
    56da:	ff 0a       	sbc	r15, r31
    56dc:	08 81       	ld	r16, Y
    56de:	80 2f       	mov	r24, r16
    56e0:	90 e0       	ldi	r25, 0x00	; 0
    56e2:	0e 94 c8 2c 	call	0x5990	; 0x5990 <isspace>
    56e6:	89 2b       	or	r24, r25
    56e8:	11 f0       	breq	.+4      	; 0x56ee <strtod+0x36>
    56ea:	e7 01       	movw	r28, r14
    56ec:	f3 cf       	rjmp	.-26     	; 0x56d4 <strtod+0x1c>
    56ee:	0d 32       	cpi	r16, 0x2D	; 45
    56f0:	39 f4       	brne	.+14     	; 0x5700 <strtod+0x48>
    56f2:	7e 01       	movw	r14, r28
    56f4:	82 e0       	ldi	r24, 0x02	; 2
    56f6:	e8 0e       	add	r14, r24
    56f8:	f1 1c       	adc	r15, r1
    56fa:	09 81       	ldd	r16, Y+1	; 0x01
    56fc:	11 e0       	ldi	r17, 0x01	; 1
    56fe:	08 c0       	rjmp	.+16     	; 0x5710 <strtod+0x58>
    5700:	0b 32       	cpi	r16, 0x2B	; 43
    5702:	29 f4       	brne	.+10     	; 0x570e <strtod+0x56>
    5704:	7e 01       	movw	r14, r28
    5706:	92 e0       	ldi	r25, 0x02	; 2
    5708:	e9 0e       	add	r14, r25
    570a:	f1 1c       	adc	r15, r1
    570c:	09 81       	ldd	r16, Y+1	; 0x01
    570e:	10 e0       	ldi	r17, 0x00	; 0
    5710:	e7 01       	movw	r28, r14
    5712:	21 97       	sbiw	r28, 0x01	; 1
    5714:	43 e0       	ldi	r20, 0x03	; 3
    5716:	50 e0       	ldi	r21, 0x00	; 0
    5718:	6c e5       	ldi	r22, 0x5C	; 92
    571a:	71 e0       	ldi	r23, 0x01	; 1
    571c:	ce 01       	movw	r24, r28
    571e:	0e 94 ef 2c 	call	0x59de	; 0x59de <strncasecmp_P>
    5722:	89 2b       	or	r24, r25
    5724:	c1 f4       	brne	.+48     	; 0x5756 <strtod+0x9e>
    5726:	23 96       	adiw	r28, 0x03	; 3
    5728:	45 e0       	ldi	r20, 0x05	; 5
    572a:	50 e0       	ldi	r21, 0x00	; 0
    572c:	67 e5       	ldi	r22, 0x57	; 87
    572e:	71 e0       	ldi	r23, 0x01	; 1
    5730:	ce 01       	movw	r24, r28
    5732:	0e 94 ef 2c 	call	0x59de	; 0x59de <strncasecmp_P>
    5736:	89 2b       	or	r24, r25
    5738:	09 f4       	brne	.+2      	; 0x573c <strtod+0x84>
    573a:	25 96       	adiw	r28, 0x05	; 5
    573c:	c1 14       	cp	r12, r1
    573e:	d1 04       	cpc	r13, r1
    5740:	19 f0       	breq	.+6      	; 0x5748 <strtod+0x90>
    5742:	f6 01       	movw	r30, r12
    5744:	d1 83       	std	Z+1, r29	; 0x01
    5746:	c0 83       	st	Z, r28
    5748:	11 11       	cpse	r17, r1
    574a:	f6 c0       	rjmp	.+492    	; 0x5938 <strtod+0x280>
    574c:	60 e0       	ldi	r22, 0x00	; 0
    574e:	70 e0       	ldi	r23, 0x00	; 0
    5750:	80 e8       	ldi	r24, 0x80	; 128
    5752:	9f e7       	ldi	r25, 0x7F	; 127
    5754:	fa c0       	rjmp	.+500    	; 0x594a <strtod+0x292>
    5756:	43 e0       	ldi	r20, 0x03	; 3
    5758:	50 e0       	ldi	r21, 0x00	; 0
    575a:	64 e5       	ldi	r22, 0x54	; 84
    575c:	71 e0       	ldi	r23, 0x01	; 1
    575e:	ce 01       	movw	r24, r28
    5760:	0e 94 ef 2c 	call	0x59de	; 0x59de <strncasecmp_P>
    5764:	89 2b       	or	r24, r25
    5766:	59 f4       	brne	.+22     	; 0x577e <strtod+0xc6>
    5768:	c1 14       	cp	r12, r1
    576a:	d1 04       	cpc	r13, r1
    576c:	09 f4       	brne	.+2      	; 0x5770 <strtod+0xb8>
    576e:	e9 c0       	rjmp	.+466    	; 0x5942 <strtod+0x28a>
    5770:	f2 e0       	ldi	r31, 0x02	; 2
    5772:	ef 0e       	add	r14, r31
    5774:	f1 1c       	adc	r15, r1
    5776:	f6 01       	movw	r30, r12
    5778:	f1 82       	std	Z+1, r15	; 0x01
    577a:	e0 82       	st	Z, r14
    577c:	e2 c0       	rjmp	.+452    	; 0x5942 <strtod+0x28a>
    577e:	20 e0       	ldi	r18, 0x00	; 0
    5780:	30 e0       	ldi	r19, 0x00	; 0
    5782:	a9 01       	movw	r20, r18
    5784:	c0 e0       	ldi	r28, 0x00	; 0
    5786:	d0 e0       	ldi	r29, 0x00	; 0
    5788:	f7 01       	movw	r30, r14
    578a:	80 ed       	ldi	r24, 0xD0	; 208
    578c:	a8 2e       	mov	r10, r24
    578e:	a0 0e       	add	r10, r16
    5790:	89 e0       	ldi	r24, 0x09	; 9
    5792:	8a 15       	cp	r24, r10
    5794:	30 f1       	brcs	.+76     	; 0x57e2 <strtod+0x12a>
    5796:	91 2f       	mov	r25, r17
    5798:	92 60       	ori	r25, 0x02	; 2
    579a:	b9 2e       	mov	r11, r25
    579c:	81 2f       	mov	r24, r17
    579e:	88 70       	andi	r24, 0x08	; 8
    57a0:	12 ff       	sbrs	r17, 2
    57a2:	04 c0       	rjmp	.+8      	; 0x57ac <strtod+0xf4>
    57a4:	81 11       	cpse	r24, r1
    57a6:	24 c0       	rjmp	.+72     	; 0x57f0 <strtod+0x138>
    57a8:	21 96       	adiw	r28, 0x01	; 1
    57aa:	22 c0       	rjmp	.+68     	; 0x57f0 <strtod+0x138>
    57ac:	81 11       	cpse	r24, r1
    57ae:	21 97       	sbiw	r28, 0x01	; 1
    57b0:	a5 e0       	ldi	r26, 0x05	; 5
    57b2:	b0 e0       	ldi	r27, 0x00	; 0
    57b4:	0e 94 24 33 	call	0x6648	; 0x6648 <__muluhisi3>
    57b8:	dc 01       	movw	r26, r24
    57ba:	cb 01       	movw	r24, r22
    57bc:	88 0f       	add	r24, r24
    57be:	99 1f       	adc	r25, r25
    57c0:	aa 1f       	adc	r26, r26
    57c2:	bb 1f       	adc	r27, r27
    57c4:	9c 01       	movw	r18, r24
    57c6:	ad 01       	movw	r20, r26
    57c8:	2a 0d       	add	r18, r10
    57ca:	31 1d       	adc	r19, r1
    57cc:	41 1d       	adc	r20, r1
    57ce:	51 1d       	adc	r21, r1
    57d0:	28 39       	cpi	r18, 0x98	; 152
    57d2:	89 e9       	ldi	r24, 0x99	; 153
    57d4:	38 07       	cpc	r19, r24
    57d6:	48 07       	cpc	r20, r24
    57d8:	89 e1       	ldi	r24, 0x19	; 25
    57da:	58 07       	cpc	r21, r24
    57dc:	48 f0       	brcs	.+18     	; 0x57f0 <strtod+0x138>
    57de:	16 60       	ori	r17, 0x06	; 6
    57e0:	06 c0       	rjmp	.+12     	; 0x57ee <strtod+0x136>
    57e2:	9e ef       	ldi	r25, 0xFE	; 254
    57e4:	a9 12       	cpse	r10, r25
    57e6:	0a c0       	rjmp	.+20     	; 0x57fc <strtod+0x144>
    57e8:	13 fd       	sbrc	r17, 3
    57ea:	40 c0       	rjmp	.+128    	; 0x586c <strtod+0x1b4>
    57ec:	18 60       	ori	r17, 0x08	; 8
    57ee:	b1 2e       	mov	r11, r17
    57f0:	8f ef       	ldi	r24, 0xFF	; 255
    57f2:	e8 1a       	sub	r14, r24
    57f4:	f8 0a       	sbc	r15, r24
    57f6:	00 81       	ld	r16, Z
    57f8:	1b 2d       	mov	r17, r11
    57fa:	c6 cf       	rjmp	.-116    	; 0x5788 <strtod+0xd0>
    57fc:	80 2f       	mov	r24, r16
    57fe:	8f 7d       	andi	r24, 0xDF	; 223
    5800:	85 34       	cpi	r24, 0x45	; 69
    5802:	a1 f5       	brne	.+104    	; 0x586c <strtod+0x1b4>
    5804:	80 81       	ld	r24, Z
    5806:	8d 32       	cpi	r24, 0x2D	; 45
    5808:	11 f4       	brne	.+4      	; 0x580e <strtod+0x156>
    580a:	10 61       	ori	r17, 0x10	; 16
    580c:	06 c0       	rjmp	.+12     	; 0x581a <strtod+0x162>
    580e:	8b 32       	cpi	r24, 0x2B	; 43
    5810:	21 f0       	breq	.+8      	; 0x581a <strtod+0x162>
    5812:	31 96       	adiw	r30, 0x01	; 1
    5814:	61 e0       	ldi	r22, 0x01	; 1
    5816:	70 e0       	ldi	r23, 0x00	; 0
    5818:	04 c0       	rjmp	.+8      	; 0x5822 <strtod+0x16a>
    581a:	81 81       	ldd	r24, Z+1	; 0x01
    581c:	32 96       	adiw	r30, 0x02	; 2
    581e:	62 e0       	ldi	r22, 0x02	; 2
    5820:	70 e0       	ldi	r23, 0x00	; 0
    5822:	80 53       	subi	r24, 0x30	; 48
    5824:	8a 30       	cpi	r24, 0x0A	; 10
    5826:	18 f0       	brcs	.+6      	; 0x582e <strtod+0x176>
    5828:	e6 1b       	sub	r30, r22
    582a:	f7 0b       	sbc	r31, r23
    582c:	1f c0       	rjmp	.+62     	; 0x586c <strtod+0x1b4>
    582e:	60 e0       	ldi	r22, 0x00	; 0
    5830:	70 e0       	ldi	r23, 0x00	; 0
    5832:	60 38       	cpi	r22, 0x80	; 128
    5834:	9c e0       	ldi	r25, 0x0C	; 12
    5836:	79 07       	cpc	r23, r25
    5838:	5c f4       	brge	.+22     	; 0x5850 <strtod+0x198>
    583a:	db 01       	movw	r26, r22
    583c:	aa 0f       	add	r26, r26
    583e:	bb 1f       	adc	r27, r27
    5840:	aa 0f       	add	r26, r26
    5842:	bb 1f       	adc	r27, r27
    5844:	6a 0f       	add	r22, r26
    5846:	7b 1f       	adc	r23, r27
    5848:	66 0f       	add	r22, r22
    584a:	77 1f       	adc	r23, r23
    584c:	68 0f       	add	r22, r24
    584e:	71 1d       	adc	r23, r1
    5850:	31 96       	adiw	r30, 0x01	; 1
    5852:	df 01       	movw	r26, r30
    5854:	11 97       	sbiw	r26, 0x01	; 1
    5856:	8c 91       	ld	r24, X
    5858:	80 53       	subi	r24, 0x30	; 48
    585a:	8a 30       	cpi	r24, 0x0A	; 10
    585c:	50 f3       	brcs	.-44     	; 0x5832 <strtod+0x17a>
    585e:	14 ff       	sbrs	r17, 4
    5860:	03 c0       	rjmp	.+6      	; 0x5868 <strtod+0x1b0>
    5862:	71 95       	neg	r23
    5864:	61 95       	neg	r22
    5866:	71 09       	sbc	r23, r1
    5868:	c6 0f       	add	r28, r22
    586a:	d7 1f       	adc	r29, r23
    586c:	11 ff       	sbrs	r17, 1
    586e:	08 c0       	rjmp	.+16     	; 0x5880 <strtod+0x1c8>
    5870:	c1 14       	cp	r12, r1
    5872:	d1 04       	cpc	r13, r1
    5874:	29 f0       	breq	.+10     	; 0x5880 <strtod+0x1c8>
    5876:	cf 01       	movw	r24, r30
    5878:	01 97       	sbiw	r24, 0x01	; 1
    587a:	f6 01       	movw	r30, r12
    587c:	91 83       	std	Z+1, r25	; 0x01
    587e:	80 83       	st	Z, r24
    5880:	ca 01       	movw	r24, r20
    5882:	b9 01       	movw	r22, r18
    5884:	0e 94 ce 26 	call	0x4d9c	; 0x4d9c <__floatunsisf>
    5888:	21 2f       	mov	r18, r17
    588a:	23 70       	andi	r18, 0x03	; 3
    588c:	23 30       	cpi	r18, 0x03	; 3
    588e:	19 f0       	breq	.+6      	; 0x5896 <strtod+0x1de>
    5890:	4b 01       	movw	r8, r22
    5892:	5c 01       	movw	r10, r24
    5894:	06 c0       	rjmp	.+12     	; 0x58a2 <strtod+0x1ea>
    5896:	4b 01       	movw	r8, r22
    5898:	5c 01       	movw	r10, r24
    589a:	b7 fa       	bst	r11, 7
    589c:	b0 94       	com	r11
    589e:	b7 f8       	bld	r11, 7
    58a0:	b0 94       	com	r11
    58a2:	20 e0       	ldi	r18, 0x00	; 0
    58a4:	30 e0       	ldi	r19, 0x00	; 0
    58a6:	a9 01       	movw	r20, r18
    58a8:	c5 01       	movw	r24, r10
    58aa:	b4 01       	movw	r22, r8
    58ac:	0e 94 57 26 	call	0x4cae	; 0x4cae <__cmpsf2>
    58b0:	88 23       	and	r24, r24
    58b2:	09 f4       	brne	.+2      	; 0x58b6 <strtod+0x1fe>
    58b4:	3e c0       	rjmp	.+124    	; 0x5932 <strtod+0x27a>
    58b6:	d7 ff       	sbrs	r29, 7
    58b8:	06 c0       	rjmp	.+12     	; 0x58c6 <strtod+0x20e>
    58ba:	d1 95       	neg	r29
    58bc:	c1 95       	neg	r28
    58be:	d1 09       	sbc	r29, r1
    58c0:	03 e7       	ldi	r16, 0x73	; 115
    58c2:	11 e0       	ldi	r17, 0x01	; 1
    58c4:	02 c0       	rjmp	.+4      	; 0x58ca <strtod+0x212>
    58c6:	0b e8       	ldi	r16, 0x8B	; 139
    58c8:	11 e0       	ldi	r17, 0x01	; 1
    58ca:	68 01       	movw	r12, r16
    58cc:	f8 e1       	ldi	r31, 0x18	; 24
    58ce:	cf 1a       	sub	r12, r31
    58d0:	d1 08       	sbc	r13, r1
    58d2:	90 e2       	ldi	r25, 0x20	; 32
    58d4:	e9 2e       	mov	r14, r25
    58d6:	f1 2c       	mov	r15, r1
    58d8:	ce 15       	cp	r28, r14
    58da:	df 05       	cpc	r29, r15
    58dc:	74 f0       	brlt	.+28     	; 0x58fa <strtod+0x242>
    58de:	f8 01       	movw	r30, r16
    58e0:	25 91       	lpm	r18, Z+
    58e2:	35 91       	lpm	r19, Z+
    58e4:	45 91       	lpm	r20, Z+
    58e6:	54 91       	lpm	r21, Z
    58e8:	c5 01       	movw	r24, r10
    58ea:	b4 01       	movw	r22, r8
    58ec:	0e 94 37 28 	call	0x506e	; 0x506e <__mulsf3>
    58f0:	4b 01       	movw	r8, r22
    58f2:	5c 01       	movw	r10, r24
    58f4:	ce 19       	sub	r28, r14
    58f6:	df 09       	sbc	r29, r15
    58f8:	ef cf       	rjmp	.-34     	; 0x58d8 <strtod+0x220>
    58fa:	04 50       	subi	r16, 0x04	; 4
    58fc:	11 09       	sbc	r17, r1
    58fe:	f5 94       	asr	r15
    5900:	e7 94       	ror	r14
    5902:	0c 15       	cp	r16, r12
    5904:	1d 05       	cpc	r17, r13
    5906:	41 f7       	brne	.-48     	; 0x58d8 <strtod+0x220>
    5908:	8a 2d       	mov	r24, r10
    590a:	88 0f       	add	r24, r24
    590c:	8b 2d       	mov	r24, r11
    590e:	88 1f       	adc	r24, r24
    5910:	8f 3f       	cpi	r24, 0xFF	; 255
    5912:	49 f0       	breq	.+18     	; 0x5926 <strtod+0x26e>
    5914:	20 e0       	ldi	r18, 0x00	; 0
    5916:	30 e0       	ldi	r19, 0x00	; 0
    5918:	a9 01       	movw	r20, r18
    591a:	c5 01       	movw	r24, r10
    591c:	b4 01       	movw	r22, r8
    591e:	0e 94 57 26 	call	0x4cae	; 0x4cae <__cmpsf2>
    5922:	81 11       	cpse	r24, r1
    5924:	06 c0       	rjmp	.+12     	; 0x5932 <strtod+0x27a>
    5926:	82 e2       	ldi	r24, 0x22	; 34
    5928:	90 e0       	ldi	r25, 0x00	; 0
    592a:	90 93 b5 04 	sts	0x04B5, r25	; 0x8004b5 <errno+0x1>
    592e:	80 93 b4 04 	sts	0x04B4, r24	; 0x8004b4 <errno>
    5932:	c5 01       	movw	r24, r10
    5934:	b4 01       	movw	r22, r8
    5936:	09 c0       	rjmp	.+18     	; 0x594a <strtod+0x292>
    5938:	60 e0       	ldi	r22, 0x00	; 0
    593a:	70 e0       	ldi	r23, 0x00	; 0
    593c:	80 e8       	ldi	r24, 0x80	; 128
    593e:	9f ef       	ldi	r25, 0xFF	; 255
    5940:	04 c0       	rjmp	.+8      	; 0x594a <strtod+0x292>
    5942:	60 e0       	ldi	r22, 0x00	; 0
    5944:	70 e0       	ldi	r23, 0x00	; 0
    5946:	80 ec       	ldi	r24, 0xC0	; 192
    5948:	9f e7       	ldi	r25, 0x7F	; 127
    594a:	cd b7       	in	r28, 0x3d	; 61
    594c:	de b7       	in	r29, 0x3e	; 62
    594e:	ec e0       	ldi	r30, 0x0C	; 12
    5950:	0c 94 51 33 	jmp	0x66a2	; 0x66a2 <__epilogue_restores__+0xc>

00005954 <atoi>:
    5954:	fc 01       	movw	r30, r24
    5956:	88 27       	eor	r24, r24
    5958:	99 27       	eor	r25, r25
    595a:	e8 94       	clt
    595c:	21 91       	ld	r18, Z+
    595e:	20 32       	cpi	r18, 0x20	; 32
    5960:	e9 f3       	breq	.-6      	; 0x595c <atoi+0x8>
    5962:	29 30       	cpi	r18, 0x09	; 9
    5964:	10 f0       	brcs	.+4      	; 0x596a <atoi+0x16>
    5966:	2e 30       	cpi	r18, 0x0E	; 14
    5968:	c8 f3       	brcs	.-14     	; 0x595c <atoi+0x8>
    596a:	2b 32       	cpi	r18, 0x2B	; 43
    596c:	41 f0       	breq	.+16     	; 0x597e <atoi+0x2a>
    596e:	2d 32       	cpi	r18, 0x2D	; 45
    5970:	39 f4       	brne	.+14     	; 0x5980 <atoi+0x2c>
    5972:	68 94       	set
    5974:	04 c0       	rjmp	.+8      	; 0x597e <atoi+0x2a>
    5976:	0e 94 c4 2d 	call	0x5b88	; 0x5b88 <__mulhi_const_10>
    597a:	82 0f       	add	r24, r18
    597c:	91 1d       	adc	r25, r1
    597e:	21 91       	ld	r18, Z+
    5980:	20 53       	subi	r18, 0x30	; 48
    5982:	2a 30       	cpi	r18, 0x0A	; 10
    5984:	c0 f3       	brcs	.-16     	; 0x5976 <atoi+0x22>
    5986:	1e f4       	brtc	.+6      	; 0x598e <atoi+0x3a>
    5988:	90 95       	com	r25
    598a:	81 95       	neg	r24
    598c:	9f 4f       	sbci	r25, 0xFF	; 255
    598e:	08 95       	ret

00005990 <isspace>:
    5990:	91 11       	cpse	r25, r1
    5992:	0c 94 1b 32 	jmp	0x6436	; 0x6436 <__ctype_isfalse>
    5996:	80 32       	cpi	r24, 0x20	; 32
    5998:	19 f0       	breq	.+6      	; 0x59a0 <isspace+0x10>
    599a:	89 50       	subi	r24, 0x09	; 9
    599c:	85 50       	subi	r24, 0x05	; 5
    599e:	c8 f7       	brcc	.-14     	; 0x5992 <isspace+0x2>
    59a0:	08 95       	ret

000059a2 <strtok_P>:
    59a2:	4e e9       	ldi	r20, 0x9E	; 158
    59a4:	51 e0       	ldi	r21, 0x01	; 1
    59a6:	0e 94 15 2d 	call	0x5a2a	; 0x5a2a <strtok_rP>
    59aa:	08 95       	ret

000059ac <strcmp_P>:
    59ac:	fb 01       	movw	r30, r22
    59ae:	dc 01       	movw	r26, r24
    59b0:	8d 91       	ld	r24, X+
    59b2:	05 90       	lpm	r0, Z+
    59b4:	80 19       	sub	r24, r0
    59b6:	01 10       	cpse	r0, r1
    59b8:	d9 f3       	breq	.-10     	; 0x59b0 <strcmp_P+0x4>
    59ba:	99 0b       	sbc	r25, r25
    59bc:	08 95       	ret

000059be <strcpy_P>:
    59be:	fb 01       	movw	r30, r22
    59c0:	dc 01       	movw	r26, r24
    59c2:	05 90       	lpm	r0, Z+
    59c4:	0d 92       	st	X+, r0
    59c6:	00 20       	and	r0, r0
    59c8:	e1 f7       	brne	.-8      	; 0x59c2 <strcpy_P+0x4>
    59ca:	08 95       	ret

000059cc <__strlen_P>:
    59cc:	fc 01       	movw	r30, r24
    59ce:	05 90       	lpm	r0, Z+
    59d0:	00 20       	and	r0, r0
    59d2:	e9 f7       	brne	.-6      	; 0x59ce <__strlen_P+0x2>
    59d4:	80 95       	com	r24
    59d6:	90 95       	com	r25
    59d8:	8e 0f       	add	r24, r30
    59da:	9f 1f       	adc	r25, r31
    59dc:	08 95       	ret

000059de <strncasecmp_P>:
    59de:	fb 01       	movw	r30, r22
    59e0:	dc 01       	movw	r26, r24
    59e2:	41 50       	subi	r20, 0x01	; 1
    59e4:	50 40       	sbci	r21, 0x00	; 0
    59e6:	88 f0       	brcs	.+34     	; 0x5a0a <strncasecmp_P+0x2c>
    59e8:	8d 91       	ld	r24, X+
    59ea:	81 34       	cpi	r24, 0x41	; 65
    59ec:	1c f0       	brlt	.+6      	; 0x59f4 <strncasecmp_P+0x16>
    59ee:	8b 35       	cpi	r24, 0x5B	; 91
    59f0:	0c f4       	brge	.+2      	; 0x59f4 <strncasecmp_P+0x16>
    59f2:	80 5e       	subi	r24, 0xE0	; 224
    59f4:	65 91       	lpm	r22, Z+
    59f6:	61 34       	cpi	r22, 0x41	; 65
    59f8:	1c f0       	brlt	.+6      	; 0x5a00 <strncasecmp_P+0x22>
    59fa:	6b 35       	cpi	r22, 0x5B	; 91
    59fc:	0c f4       	brge	.+2      	; 0x5a00 <strncasecmp_P+0x22>
    59fe:	60 5e       	subi	r22, 0xE0	; 224
    5a00:	86 1b       	sub	r24, r22
    5a02:	61 11       	cpse	r22, r1
    5a04:	71 f3       	breq	.-36     	; 0x59e2 <strncasecmp_P+0x4>
    5a06:	99 0b       	sbc	r25, r25
    5a08:	08 95       	ret
    5a0a:	88 1b       	sub	r24, r24
    5a0c:	fc cf       	rjmp	.-8      	; 0x5a06 <strncasecmp_P+0x28>

00005a0e <strncmp_P>:
    5a0e:	fb 01       	movw	r30, r22
    5a10:	dc 01       	movw	r26, r24
    5a12:	41 50       	subi	r20, 0x01	; 1
    5a14:	50 40       	sbci	r21, 0x00	; 0
    5a16:	30 f0       	brcs	.+12     	; 0x5a24 <strncmp_P+0x16>
    5a18:	8d 91       	ld	r24, X+
    5a1a:	05 90       	lpm	r0, Z+
    5a1c:	80 19       	sub	r24, r0
    5a1e:	19 f4       	brne	.+6      	; 0x5a26 <strncmp_P+0x18>
    5a20:	00 20       	and	r0, r0
    5a22:	b9 f7       	brne	.-18     	; 0x5a12 <strncmp_P+0x4>
    5a24:	88 1b       	sub	r24, r24
    5a26:	99 0b       	sbc	r25, r25
    5a28:	08 95       	ret

00005a2a <strtok_rP>:
    5a2a:	fa 01       	movw	r30, r20
    5a2c:	a1 91       	ld	r26, Z+
    5a2e:	b0 81       	ld	r27, Z
    5a30:	00 97       	sbiw	r24, 0x00	; 0
    5a32:	19 f4       	brne	.+6      	; 0x5a3a <strtok_rP+0x10>
    5a34:	10 97       	sbiw	r26, 0x00	; 0
    5a36:	e1 f0       	breq	.+56     	; 0x5a70 <strtok_rP+0x46>
    5a38:	cd 01       	movw	r24, r26
    5a3a:	dc 01       	movw	r26, r24
    5a3c:	cd 01       	movw	r24, r26
    5a3e:	0d 90       	ld	r0, X+
    5a40:	00 20       	and	r0, r0
    5a42:	11 f4       	brne	.+4      	; 0x5a48 <strtok_rP+0x1e>
    5a44:	c0 01       	movw	r24, r0
    5a46:	13 c0       	rjmp	.+38     	; 0x5a6e <strtok_rP+0x44>
    5a48:	fb 01       	movw	r30, r22
    5a4a:	25 91       	lpm	r18, Z+
    5a4c:	22 23       	and	r18, r18
    5a4e:	19 f0       	breq	.+6      	; 0x5a56 <strtok_rP+0x2c>
    5a50:	20 15       	cp	r18, r0
    5a52:	d9 f7       	brne	.-10     	; 0x5a4a <strtok_rP+0x20>
    5a54:	f3 cf       	rjmp	.-26     	; 0x5a3c <strtok_rP+0x12>
    5a56:	fb 01       	movw	r30, r22
    5a58:	25 91       	lpm	r18, Z+
    5a5a:	20 15       	cp	r18, r0
    5a5c:	19 f4       	brne	.+6      	; 0x5a64 <strtok_rP+0x3a>
    5a5e:	1e 92       	st	-X, r1
    5a60:	11 96       	adiw	r26, 0x01	; 1
    5a62:	06 c0       	rjmp	.+12     	; 0x5a70 <strtok_rP+0x46>
    5a64:	22 23       	and	r18, r18
    5a66:	c1 f7       	brne	.-16     	; 0x5a58 <strtok_rP+0x2e>
    5a68:	0d 90       	ld	r0, X+
    5a6a:	00 20       	and	r0, r0
    5a6c:	a1 f7       	brne	.-24     	; 0x5a56 <strtok_rP+0x2c>
    5a6e:	d0 01       	movw	r26, r0
    5a70:	fa 01       	movw	r30, r20
    5a72:	a1 93       	st	Z+, r26
    5a74:	b0 83       	st	Z, r27
    5a76:	08 95       	ret

00005a78 <strtok>:
    5a78:	40 ea       	ldi	r20, 0xA0	; 160
    5a7a:	51 e0       	ldi	r21, 0x01	; 1
    5a7c:	0e 94 92 2d 	call	0x5b24	; 0x5b24 <strtok_r>
    5a80:	08 95       	ret

00005a82 <memcpy>:
    5a82:	fb 01       	movw	r30, r22
    5a84:	dc 01       	movw	r26, r24
    5a86:	02 c0       	rjmp	.+4      	; 0x5a8c <memcpy+0xa>
    5a88:	01 90       	ld	r0, Z+
    5a8a:	0d 92       	st	X+, r0
    5a8c:	41 50       	subi	r20, 0x01	; 1
    5a8e:	50 40       	sbci	r21, 0x00	; 0
    5a90:	d8 f7       	brcc	.-10     	; 0x5a88 <memcpy+0x6>
    5a92:	08 95       	ret

00005a94 <memmove>:
    5a94:	68 17       	cp	r22, r24
    5a96:	79 07       	cpc	r23, r25
    5a98:	68 f4       	brcc	.+26     	; 0x5ab4 <memmove+0x20>
    5a9a:	fb 01       	movw	r30, r22
    5a9c:	dc 01       	movw	r26, r24
    5a9e:	e4 0f       	add	r30, r20
    5aa0:	f5 1f       	adc	r31, r21
    5aa2:	a4 0f       	add	r26, r20
    5aa4:	b5 1f       	adc	r27, r21
    5aa6:	02 c0       	rjmp	.+4      	; 0x5aac <memmove+0x18>
    5aa8:	02 90       	ld	r0, -Z
    5aaa:	0e 92       	st	-X, r0
    5aac:	41 50       	subi	r20, 0x01	; 1
    5aae:	50 40       	sbci	r21, 0x00	; 0
    5ab0:	d8 f7       	brcc	.-10     	; 0x5aa8 <memmove+0x14>
    5ab2:	08 95       	ret
    5ab4:	0c 94 41 2d 	jmp	0x5a82	; 0x5a82 <memcpy>

00005ab8 <memset>:
    5ab8:	dc 01       	movw	r26, r24
    5aba:	01 c0       	rjmp	.+2      	; 0x5abe <memset+0x6>
    5abc:	6d 93       	st	X+, r22
    5abe:	41 50       	subi	r20, 0x01	; 1
    5ac0:	50 40       	sbci	r21, 0x00	; 0
    5ac2:	e0 f7       	brcc	.-8      	; 0x5abc <memset+0x4>
    5ac4:	08 95       	ret

00005ac6 <strcpy>:
    5ac6:	fb 01       	movw	r30, r22
    5ac8:	dc 01       	movw	r26, r24
    5aca:	01 90       	ld	r0, Z+
    5acc:	0d 92       	st	X+, r0
    5ace:	00 20       	and	r0, r0
    5ad0:	e1 f7       	brne	.-8      	; 0x5aca <strcpy+0x4>
    5ad2:	08 95       	ret

00005ad4 <strncmp>:
    5ad4:	fb 01       	movw	r30, r22
    5ad6:	dc 01       	movw	r26, r24
    5ad8:	41 50       	subi	r20, 0x01	; 1
    5ada:	50 40       	sbci	r21, 0x00	; 0
    5adc:	30 f0       	brcs	.+12     	; 0x5aea <strncmp+0x16>
    5ade:	8d 91       	ld	r24, X+
    5ae0:	01 90       	ld	r0, Z+
    5ae2:	80 19       	sub	r24, r0
    5ae4:	19 f4       	brne	.+6      	; 0x5aec <strncmp+0x18>
    5ae6:	00 20       	and	r0, r0
    5ae8:	b9 f7       	brne	.-18     	; 0x5ad8 <strncmp+0x4>
    5aea:	88 1b       	sub	r24, r24
    5aec:	99 0b       	sbc	r25, r25
    5aee:	08 95       	ret

00005af0 <strstr>:
    5af0:	fb 01       	movw	r30, r22
    5af2:	51 91       	ld	r21, Z+
    5af4:	55 23       	and	r21, r21
    5af6:	a9 f0       	breq	.+42     	; 0x5b22 <strstr+0x32>
    5af8:	bf 01       	movw	r22, r30
    5afa:	dc 01       	movw	r26, r24
    5afc:	4d 91       	ld	r20, X+
    5afe:	45 17       	cp	r20, r21
    5b00:	41 11       	cpse	r20, r1
    5b02:	e1 f7       	brne	.-8      	; 0x5afc <strstr+0xc>
    5b04:	59 f4       	brne	.+22     	; 0x5b1c <strstr+0x2c>
    5b06:	cd 01       	movw	r24, r26
    5b08:	01 90       	ld	r0, Z+
    5b0a:	00 20       	and	r0, r0
    5b0c:	49 f0       	breq	.+18     	; 0x5b20 <strstr+0x30>
    5b0e:	4d 91       	ld	r20, X+
    5b10:	40 15       	cp	r20, r0
    5b12:	41 11       	cpse	r20, r1
    5b14:	c9 f3       	breq	.-14     	; 0x5b08 <strstr+0x18>
    5b16:	fb 01       	movw	r30, r22
    5b18:	41 11       	cpse	r20, r1
    5b1a:	ef cf       	rjmp	.-34     	; 0x5afa <strstr+0xa>
    5b1c:	81 e0       	ldi	r24, 0x01	; 1
    5b1e:	90 e0       	ldi	r25, 0x00	; 0
    5b20:	01 97       	sbiw	r24, 0x01	; 1
    5b22:	08 95       	ret

00005b24 <strtok_r>:
    5b24:	fa 01       	movw	r30, r20
    5b26:	a1 91       	ld	r26, Z+
    5b28:	b0 81       	ld	r27, Z
    5b2a:	00 97       	sbiw	r24, 0x00	; 0
    5b2c:	19 f4       	brne	.+6      	; 0x5b34 <strtok_r+0x10>
    5b2e:	10 97       	sbiw	r26, 0x00	; 0
    5b30:	e1 f0       	breq	.+56     	; 0x5b6a <strtok_r+0x46>
    5b32:	cd 01       	movw	r24, r26
    5b34:	dc 01       	movw	r26, r24
    5b36:	cd 01       	movw	r24, r26
    5b38:	0d 90       	ld	r0, X+
    5b3a:	00 20       	and	r0, r0
    5b3c:	11 f4       	brne	.+4      	; 0x5b42 <strtok_r+0x1e>
    5b3e:	c0 01       	movw	r24, r0
    5b40:	13 c0       	rjmp	.+38     	; 0x5b68 <strtok_r+0x44>
    5b42:	fb 01       	movw	r30, r22
    5b44:	21 91       	ld	r18, Z+
    5b46:	22 23       	and	r18, r18
    5b48:	19 f0       	breq	.+6      	; 0x5b50 <strtok_r+0x2c>
    5b4a:	20 15       	cp	r18, r0
    5b4c:	d9 f7       	brne	.-10     	; 0x5b44 <strtok_r+0x20>
    5b4e:	f3 cf       	rjmp	.-26     	; 0x5b36 <strtok_r+0x12>
    5b50:	fb 01       	movw	r30, r22
    5b52:	21 91       	ld	r18, Z+
    5b54:	20 15       	cp	r18, r0
    5b56:	19 f4       	brne	.+6      	; 0x5b5e <strtok_r+0x3a>
    5b58:	1e 92       	st	-X, r1
    5b5a:	11 96       	adiw	r26, 0x01	; 1
    5b5c:	06 c0       	rjmp	.+12     	; 0x5b6a <strtok_r+0x46>
    5b5e:	22 23       	and	r18, r18
    5b60:	c1 f7       	brne	.-16     	; 0x5b52 <strtok_r+0x2e>
    5b62:	0d 90       	ld	r0, X+
    5b64:	00 20       	and	r0, r0
    5b66:	a1 f7       	brne	.-24     	; 0x5b50 <strtok_r+0x2c>
    5b68:	d0 01       	movw	r26, r0
    5b6a:	fa 01       	movw	r30, r20
    5b6c:	a1 93       	st	Z+, r26
    5b6e:	b0 83       	st	Z, r27
    5b70:	08 95       	ret

00005b72 <__itoa_ncheck>:
    5b72:	bb 27       	eor	r27, r27
    5b74:	4a 30       	cpi	r20, 0x0A	; 10
    5b76:	31 f4       	brne	.+12     	; 0x5b84 <__itoa_ncheck+0x12>
    5b78:	99 23       	and	r25, r25
    5b7a:	22 f4       	brpl	.+8      	; 0x5b84 <__itoa_ncheck+0x12>
    5b7c:	bd e2       	ldi	r27, 0x2D	; 45
    5b7e:	90 95       	com	r25
    5b80:	81 95       	neg	r24
    5b82:	9f 4f       	sbci	r25, 0xFF	; 255
    5b84:	0c 94 cd 2d 	jmp	0x5b9a	; 0x5b9a <__utoa_common>

00005b88 <__mulhi_const_10>:
    5b88:	7a e0       	ldi	r23, 0x0A	; 10
    5b8a:	97 9f       	mul	r25, r23
    5b8c:	90 2d       	mov	r25, r0
    5b8e:	87 9f       	mul	r24, r23
    5b90:	80 2d       	mov	r24, r0
    5b92:	91 0d       	add	r25, r1
    5b94:	11 24       	eor	r1, r1
    5b96:	08 95       	ret

00005b98 <__utoa_ncheck>:
    5b98:	bb 27       	eor	r27, r27

00005b9a <__utoa_common>:
    5b9a:	fb 01       	movw	r30, r22
    5b9c:	55 27       	eor	r21, r21
    5b9e:	aa 27       	eor	r26, r26
    5ba0:	88 0f       	add	r24, r24
    5ba2:	99 1f       	adc	r25, r25
    5ba4:	aa 1f       	adc	r26, r26
    5ba6:	a4 17       	cp	r26, r20
    5ba8:	10 f0       	brcs	.+4      	; 0x5bae <__utoa_common+0x14>
    5baa:	a4 1b       	sub	r26, r20
    5bac:	83 95       	inc	r24
    5bae:	50 51       	subi	r21, 0x10	; 16
    5bb0:	b9 f7       	brne	.-18     	; 0x5ba0 <__utoa_common+0x6>
    5bb2:	a0 5d       	subi	r26, 0xD0	; 208
    5bb4:	aa 33       	cpi	r26, 0x3A	; 58
    5bb6:	08 f0       	brcs	.+2      	; 0x5bba <__utoa_common+0x20>
    5bb8:	a9 5d       	subi	r26, 0xD9	; 217
    5bba:	a1 93       	st	Z+, r26
    5bbc:	00 97       	sbiw	r24, 0x00	; 0
    5bbe:	79 f7       	brne	.-34     	; 0x5b9e <__utoa_common+0x4>
    5bc0:	b1 11       	cpse	r27, r1
    5bc2:	b1 93       	st	Z+, r27
    5bc4:	11 92       	st	Z+, r1
    5bc6:	cb 01       	movw	r24, r22
    5bc8:	0c 94 34 32 	jmp	0x6468	; 0x6468 <strrev>

00005bcc <sprintf_P>:
    5bcc:	ae e0       	ldi	r26, 0x0E	; 14
    5bce:	b0 e0       	ldi	r27, 0x00	; 0
    5bd0:	ec ee       	ldi	r30, 0xEC	; 236
    5bd2:	fd e2       	ldi	r31, 0x2D	; 45
    5bd4:	0c 94 3d 33 	jmp	0x667a	; 0x667a <__prologue_saves__+0x1c>
    5bd8:	0d 89       	ldd	r16, Y+21	; 0x15
    5bda:	1e 89       	ldd	r17, Y+22	; 0x16
    5bdc:	8e e0       	ldi	r24, 0x0E	; 14
    5bde:	8c 83       	std	Y+4, r24	; 0x04
    5be0:	1a 83       	std	Y+2, r17	; 0x02
    5be2:	09 83       	std	Y+1, r16	; 0x01
    5be4:	8f ef       	ldi	r24, 0xFF	; 255
    5be6:	9f e7       	ldi	r25, 0x7F	; 127
    5be8:	9e 83       	std	Y+6, r25	; 0x06
    5bea:	8d 83       	std	Y+5, r24	; 0x05
    5bec:	ae 01       	movw	r20, r28
    5bee:	47 5e       	subi	r20, 0xE7	; 231
    5bf0:	5f 4f       	sbci	r21, 0xFF	; 255
    5bf2:	6f 89       	ldd	r22, Y+23	; 0x17
    5bf4:	78 8d       	ldd	r23, Y+24	; 0x18
    5bf6:	ce 01       	movw	r24, r28
    5bf8:	01 96       	adiw	r24, 0x01	; 1
    5bfa:	0e 94 08 2e 	call	0x5c10	; 0x5c10 <vfprintf>
    5bfe:	ef 81       	ldd	r30, Y+7	; 0x07
    5c00:	f8 85       	ldd	r31, Y+8	; 0x08
    5c02:	e0 0f       	add	r30, r16
    5c04:	f1 1f       	adc	r31, r17
    5c06:	10 82       	st	Z, r1
    5c08:	2e 96       	adiw	r28, 0x0e	; 14
    5c0a:	e4 e0       	ldi	r30, 0x04	; 4
    5c0c:	0c 94 59 33 	jmp	0x66b2	; 0x66b2 <__epilogue_restores__+0x1c>

00005c10 <vfprintf>:
    5c10:	ab e0       	ldi	r26, 0x0B	; 11
    5c12:	b0 e0       	ldi	r27, 0x00	; 0
    5c14:	ee e0       	ldi	r30, 0x0E	; 14
    5c16:	fe e2       	ldi	r31, 0x2E	; 46
    5c18:	0c 94 2f 33 	jmp	0x665e	; 0x665e <__prologue_saves__>
    5c1c:	6c 01       	movw	r12, r24
    5c1e:	7b 01       	movw	r14, r22
    5c20:	8a 01       	movw	r16, r20
    5c22:	fc 01       	movw	r30, r24
    5c24:	17 82       	std	Z+7, r1	; 0x07
    5c26:	16 82       	std	Z+6, r1	; 0x06
    5c28:	83 81       	ldd	r24, Z+3	; 0x03
    5c2a:	81 ff       	sbrs	r24, 1
    5c2c:	cc c1       	rjmp	.+920    	; 0x5fc6 <vfprintf+0x3b6>
    5c2e:	ce 01       	movw	r24, r28
    5c30:	01 96       	adiw	r24, 0x01	; 1
    5c32:	3c 01       	movw	r6, r24
    5c34:	f6 01       	movw	r30, r12
    5c36:	93 81       	ldd	r25, Z+3	; 0x03
    5c38:	f7 01       	movw	r30, r14
    5c3a:	93 fd       	sbrc	r25, 3
    5c3c:	85 91       	lpm	r24, Z+
    5c3e:	93 ff       	sbrs	r25, 3
    5c40:	81 91       	ld	r24, Z+
    5c42:	7f 01       	movw	r14, r30
    5c44:	88 23       	and	r24, r24
    5c46:	09 f4       	brne	.+2      	; 0x5c4a <vfprintf+0x3a>
    5c48:	ba c1       	rjmp	.+884    	; 0x5fbe <vfprintf+0x3ae>
    5c4a:	85 32       	cpi	r24, 0x25	; 37
    5c4c:	39 f4       	brne	.+14     	; 0x5c5c <vfprintf+0x4c>
    5c4e:	93 fd       	sbrc	r25, 3
    5c50:	85 91       	lpm	r24, Z+
    5c52:	93 ff       	sbrs	r25, 3
    5c54:	81 91       	ld	r24, Z+
    5c56:	7f 01       	movw	r14, r30
    5c58:	85 32       	cpi	r24, 0x25	; 37
    5c5a:	29 f4       	brne	.+10     	; 0x5c66 <vfprintf+0x56>
    5c5c:	b6 01       	movw	r22, r12
    5c5e:	90 e0       	ldi	r25, 0x00	; 0
    5c60:	0e 94 44 32 	call	0x6488	; 0x6488 <fputc>
    5c64:	e7 cf       	rjmp	.-50     	; 0x5c34 <vfprintf+0x24>
    5c66:	91 2c       	mov	r9, r1
    5c68:	21 2c       	mov	r2, r1
    5c6a:	31 2c       	mov	r3, r1
    5c6c:	ff e1       	ldi	r31, 0x1F	; 31
    5c6e:	f3 15       	cp	r31, r3
    5c70:	d8 f0       	brcs	.+54     	; 0x5ca8 <vfprintf+0x98>
    5c72:	8b 32       	cpi	r24, 0x2B	; 43
    5c74:	79 f0       	breq	.+30     	; 0x5c94 <vfprintf+0x84>
    5c76:	38 f4       	brcc	.+14     	; 0x5c86 <vfprintf+0x76>
    5c78:	80 32       	cpi	r24, 0x20	; 32
    5c7a:	79 f0       	breq	.+30     	; 0x5c9a <vfprintf+0x8a>
    5c7c:	83 32       	cpi	r24, 0x23	; 35
    5c7e:	a1 f4       	brne	.+40     	; 0x5ca8 <vfprintf+0x98>
    5c80:	23 2d       	mov	r18, r3
    5c82:	20 61       	ori	r18, 0x10	; 16
    5c84:	1d c0       	rjmp	.+58     	; 0x5cc0 <vfprintf+0xb0>
    5c86:	8d 32       	cpi	r24, 0x2D	; 45
    5c88:	61 f0       	breq	.+24     	; 0x5ca2 <vfprintf+0x92>
    5c8a:	80 33       	cpi	r24, 0x30	; 48
    5c8c:	69 f4       	brne	.+26     	; 0x5ca8 <vfprintf+0x98>
    5c8e:	23 2d       	mov	r18, r3
    5c90:	21 60       	ori	r18, 0x01	; 1
    5c92:	16 c0       	rjmp	.+44     	; 0x5cc0 <vfprintf+0xb0>
    5c94:	83 2d       	mov	r24, r3
    5c96:	82 60       	ori	r24, 0x02	; 2
    5c98:	38 2e       	mov	r3, r24
    5c9a:	e3 2d       	mov	r30, r3
    5c9c:	e4 60       	ori	r30, 0x04	; 4
    5c9e:	3e 2e       	mov	r3, r30
    5ca0:	2a c0       	rjmp	.+84     	; 0x5cf6 <vfprintf+0xe6>
    5ca2:	f3 2d       	mov	r31, r3
    5ca4:	f8 60       	ori	r31, 0x08	; 8
    5ca6:	1d c0       	rjmp	.+58     	; 0x5ce2 <vfprintf+0xd2>
    5ca8:	37 fc       	sbrc	r3, 7
    5caa:	2d c0       	rjmp	.+90     	; 0x5d06 <vfprintf+0xf6>
    5cac:	20 ed       	ldi	r18, 0xD0	; 208
    5cae:	28 0f       	add	r18, r24
    5cb0:	2a 30       	cpi	r18, 0x0A	; 10
    5cb2:	40 f0       	brcs	.+16     	; 0x5cc4 <vfprintf+0xb4>
    5cb4:	8e 32       	cpi	r24, 0x2E	; 46
    5cb6:	b9 f4       	brne	.+46     	; 0x5ce6 <vfprintf+0xd6>
    5cb8:	36 fc       	sbrc	r3, 6
    5cba:	81 c1       	rjmp	.+770    	; 0x5fbe <vfprintf+0x3ae>
    5cbc:	23 2d       	mov	r18, r3
    5cbe:	20 64       	ori	r18, 0x40	; 64
    5cc0:	32 2e       	mov	r3, r18
    5cc2:	19 c0       	rjmp	.+50     	; 0x5cf6 <vfprintf+0xe6>
    5cc4:	36 fe       	sbrs	r3, 6
    5cc6:	06 c0       	rjmp	.+12     	; 0x5cd4 <vfprintf+0xc4>
    5cc8:	8a e0       	ldi	r24, 0x0A	; 10
    5cca:	98 9e       	mul	r9, r24
    5ccc:	20 0d       	add	r18, r0
    5cce:	11 24       	eor	r1, r1
    5cd0:	92 2e       	mov	r9, r18
    5cd2:	11 c0       	rjmp	.+34     	; 0x5cf6 <vfprintf+0xe6>
    5cd4:	ea e0       	ldi	r30, 0x0A	; 10
    5cd6:	2e 9e       	mul	r2, r30
    5cd8:	20 0d       	add	r18, r0
    5cda:	11 24       	eor	r1, r1
    5cdc:	22 2e       	mov	r2, r18
    5cde:	f3 2d       	mov	r31, r3
    5ce0:	f0 62       	ori	r31, 0x20	; 32
    5ce2:	3f 2e       	mov	r3, r31
    5ce4:	08 c0       	rjmp	.+16     	; 0x5cf6 <vfprintf+0xe6>
    5ce6:	8c 36       	cpi	r24, 0x6C	; 108
    5ce8:	21 f4       	brne	.+8      	; 0x5cf2 <vfprintf+0xe2>
    5cea:	83 2d       	mov	r24, r3
    5cec:	80 68       	ori	r24, 0x80	; 128
    5cee:	38 2e       	mov	r3, r24
    5cf0:	02 c0       	rjmp	.+4      	; 0x5cf6 <vfprintf+0xe6>
    5cf2:	88 36       	cpi	r24, 0x68	; 104
    5cf4:	41 f4       	brne	.+16     	; 0x5d06 <vfprintf+0xf6>
    5cf6:	f7 01       	movw	r30, r14
    5cf8:	93 fd       	sbrc	r25, 3
    5cfa:	85 91       	lpm	r24, Z+
    5cfc:	93 ff       	sbrs	r25, 3
    5cfe:	81 91       	ld	r24, Z+
    5d00:	7f 01       	movw	r14, r30
    5d02:	81 11       	cpse	r24, r1
    5d04:	b3 cf       	rjmp	.-154    	; 0x5c6c <vfprintf+0x5c>
    5d06:	98 2f       	mov	r25, r24
    5d08:	9f 7d       	andi	r25, 0xDF	; 223
    5d0a:	95 54       	subi	r25, 0x45	; 69
    5d0c:	93 30       	cpi	r25, 0x03	; 3
    5d0e:	28 f4       	brcc	.+10     	; 0x5d1a <vfprintf+0x10a>
    5d10:	0c 5f       	subi	r16, 0xFC	; 252
    5d12:	1f 4f       	sbci	r17, 0xFF	; 255
    5d14:	9f e3       	ldi	r25, 0x3F	; 63
    5d16:	99 83       	std	Y+1, r25	; 0x01
    5d18:	0d c0       	rjmp	.+26     	; 0x5d34 <vfprintf+0x124>
    5d1a:	83 36       	cpi	r24, 0x63	; 99
    5d1c:	31 f0       	breq	.+12     	; 0x5d2a <vfprintf+0x11a>
    5d1e:	83 37       	cpi	r24, 0x73	; 115
    5d20:	71 f0       	breq	.+28     	; 0x5d3e <vfprintf+0x12e>
    5d22:	83 35       	cpi	r24, 0x53	; 83
    5d24:	09 f0       	breq	.+2      	; 0x5d28 <vfprintf+0x118>
    5d26:	59 c0       	rjmp	.+178    	; 0x5dda <vfprintf+0x1ca>
    5d28:	21 c0       	rjmp	.+66     	; 0x5d6c <vfprintf+0x15c>
    5d2a:	f8 01       	movw	r30, r16
    5d2c:	80 81       	ld	r24, Z
    5d2e:	89 83       	std	Y+1, r24	; 0x01
    5d30:	0e 5f       	subi	r16, 0xFE	; 254
    5d32:	1f 4f       	sbci	r17, 0xFF	; 255
    5d34:	88 24       	eor	r8, r8
    5d36:	83 94       	inc	r8
    5d38:	91 2c       	mov	r9, r1
    5d3a:	53 01       	movw	r10, r6
    5d3c:	13 c0       	rjmp	.+38     	; 0x5d64 <vfprintf+0x154>
    5d3e:	28 01       	movw	r4, r16
    5d40:	f2 e0       	ldi	r31, 0x02	; 2
    5d42:	4f 0e       	add	r4, r31
    5d44:	51 1c       	adc	r5, r1
    5d46:	f8 01       	movw	r30, r16
    5d48:	a0 80       	ld	r10, Z
    5d4a:	b1 80       	ldd	r11, Z+1	; 0x01
    5d4c:	36 fe       	sbrs	r3, 6
    5d4e:	03 c0       	rjmp	.+6      	; 0x5d56 <vfprintf+0x146>
    5d50:	69 2d       	mov	r22, r9
    5d52:	70 e0       	ldi	r23, 0x00	; 0
    5d54:	02 c0       	rjmp	.+4      	; 0x5d5a <vfprintf+0x14a>
    5d56:	6f ef       	ldi	r22, 0xFF	; 255
    5d58:	7f ef       	ldi	r23, 0xFF	; 255
    5d5a:	c5 01       	movw	r24, r10
    5d5c:	0e 94 29 32 	call	0x6452	; 0x6452 <strnlen>
    5d60:	4c 01       	movw	r8, r24
    5d62:	82 01       	movw	r16, r4
    5d64:	f3 2d       	mov	r31, r3
    5d66:	ff 77       	andi	r31, 0x7F	; 127
    5d68:	3f 2e       	mov	r3, r31
    5d6a:	16 c0       	rjmp	.+44     	; 0x5d98 <vfprintf+0x188>
    5d6c:	28 01       	movw	r4, r16
    5d6e:	22 e0       	ldi	r18, 0x02	; 2
    5d70:	42 0e       	add	r4, r18
    5d72:	51 1c       	adc	r5, r1
    5d74:	f8 01       	movw	r30, r16
    5d76:	a0 80       	ld	r10, Z
    5d78:	b1 80       	ldd	r11, Z+1	; 0x01
    5d7a:	36 fe       	sbrs	r3, 6
    5d7c:	03 c0       	rjmp	.+6      	; 0x5d84 <vfprintf+0x174>
    5d7e:	69 2d       	mov	r22, r9
    5d80:	70 e0       	ldi	r23, 0x00	; 0
    5d82:	02 c0       	rjmp	.+4      	; 0x5d88 <vfprintf+0x178>
    5d84:	6f ef       	ldi	r22, 0xFF	; 255
    5d86:	7f ef       	ldi	r23, 0xFF	; 255
    5d88:	c5 01       	movw	r24, r10
    5d8a:	0e 94 1e 32 	call	0x643c	; 0x643c <strnlen_P>
    5d8e:	4c 01       	movw	r8, r24
    5d90:	f3 2d       	mov	r31, r3
    5d92:	f0 68       	ori	r31, 0x80	; 128
    5d94:	3f 2e       	mov	r3, r31
    5d96:	82 01       	movw	r16, r4
    5d98:	33 fc       	sbrc	r3, 3
    5d9a:	1b c0       	rjmp	.+54     	; 0x5dd2 <vfprintf+0x1c2>
    5d9c:	82 2d       	mov	r24, r2
    5d9e:	90 e0       	ldi	r25, 0x00	; 0
    5da0:	88 16       	cp	r8, r24
    5da2:	99 06       	cpc	r9, r25
    5da4:	b0 f4       	brcc	.+44     	; 0x5dd2 <vfprintf+0x1c2>
    5da6:	b6 01       	movw	r22, r12
    5da8:	80 e2       	ldi	r24, 0x20	; 32
    5daa:	90 e0       	ldi	r25, 0x00	; 0
    5dac:	0e 94 44 32 	call	0x6488	; 0x6488 <fputc>
    5db0:	2a 94       	dec	r2
    5db2:	f4 cf       	rjmp	.-24     	; 0x5d9c <vfprintf+0x18c>
    5db4:	f5 01       	movw	r30, r10
    5db6:	37 fc       	sbrc	r3, 7
    5db8:	85 91       	lpm	r24, Z+
    5dba:	37 fe       	sbrs	r3, 7
    5dbc:	81 91       	ld	r24, Z+
    5dbe:	5f 01       	movw	r10, r30
    5dc0:	b6 01       	movw	r22, r12
    5dc2:	90 e0       	ldi	r25, 0x00	; 0
    5dc4:	0e 94 44 32 	call	0x6488	; 0x6488 <fputc>
    5dc8:	21 10       	cpse	r2, r1
    5dca:	2a 94       	dec	r2
    5dcc:	21 e0       	ldi	r18, 0x01	; 1
    5dce:	82 1a       	sub	r8, r18
    5dd0:	91 08       	sbc	r9, r1
    5dd2:	81 14       	cp	r8, r1
    5dd4:	91 04       	cpc	r9, r1
    5dd6:	71 f7       	brne	.-36     	; 0x5db4 <vfprintf+0x1a4>
    5dd8:	e8 c0       	rjmp	.+464    	; 0x5faa <vfprintf+0x39a>
    5dda:	84 36       	cpi	r24, 0x64	; 100
    5ddc:	11 f0       	breq	.+4      	; 0x5de2 <vfprintf+0x1d2>
    5dde:	89 36       	cpi	r24, 0x69	; 105
    5de0:	41 f5       	brne	.+80     	; 0x5e32 <vfprintf+0x222>
    5de2:	f8 01       	movw	r30, r16
    5de4:	37 fe       	sbrs	r3, 7
    5de6:	07 c0       	rjmp	.+14     	; 0x5df6 <vfprintf+0x1e6>
    5de8:	60 81       	ld	r22, Z
    5dea:	71 81       	ldd	r23, Z+1	; 0x01
    5dec:	82 81       	ldd	r24, Z+2	; 0x02
    5dee:	93 81       	ldd	r25, Z+3	; 0x03
    5df0:	0c 5f       	subi	r16, 0xFC	; 252
    5df2:	1f 4f       	sbci	r17, 0xFF	; 255
    5df4:	08 c0       	rjmp	.+16     	; 0x5e06 <vfprintf+0x1f6>
    5df6:	60 81       	ld	r22, Z
    5df8:	71 81       	ldd	r23, Z+1	; 0x01
    5dfa:	07 2e       	mov	r0, r23
    5dfc:	00 0c       	add	r0, r0
    5dfe:	88 0b       	sbc	r24, r24
    5e00:	99 0b       	sbc	r25, r25
    5e02:	0e 5f       	subi	r16, 0xFE	; 254
    5e04:	1f 4f       	sbci	r17, 0xFF	; 255
    5e06:	f3 2d       	mov	r31, r3
    5e08:	ff 76       	andi	r31, 0x6F	; 111
    5e0a:	3f 2e       	mov	r3, r31
    5e0c:	97 ff       	sbrs	r25, 7
    5e0e:	09 c0       	rjmp	.+18     	; 0x5e22 <vfprintf+0x212>
    5e10:	90 95       	com	r25
    5e12:	80 95       	com	r24
    5e14:	70 95       	com	r23
    5e16:	61 95       	neg	r22
    5e18:	7f 4f       	sbci	r23, 0xFF	; 255
    5e1a:	8f 4f       	sbci	r24, 0xFF	; 255
    5e1c:	9f 4f       	sbci	r25, 0xFF	; 255
    5e1e:	f0 68       	ori	r31, 0x80	; 128
    5e20:	3f 2e       	mov	r3, r31
    5e22:	2a e0       	ldi	r18, 0x0A	; 10
    5e24:	30 e0       	ldi	r19, 0x00	; 0
    5e26:	a3 01       	movw	r20, r6
    5e28:	0e 94 80 32 	call	0x6500	; 0x6500 <__ultoa_invert>
    5e2c:	88 2e       	mov	r8, r24
    5e2e:	86 18       	sub	r8, r6
    5e30:	45 c0       	rjmp	.+138    	; 0x5ebc <vfprintf+0x2ac>
    5e32:	85 37       	cpi	r24, 0x75	; 117
    5e34:	31 f4       	brne	.+12     	; 0x5e42 <vfprintf+0x232>
    5e36:	23 2d       	mov	r18, r3
    5e38:	2f 7e       	andi	r18, 0xEF	; 239
    5e3a:	b2 2e       	mov	r11, r18
    5e3c:	2a e0       	ldi	r18, 0x0A	; 10
    5e3e:	30 e0       	ldi	r19, 0x00	; 0
    5e40:	25 c0       	rjmp	.+74     	; 0x5e8c <vfprintf+0x27c>
    5e42:	93 2d       	mov	r25, r3
    5e44:	99 7f       	andi	r25, 0xF9	; 249
    5e46:	b9 2e       	mov	r11, r25
    5e48:	8f 36       	cpi	r24, 0x6F	; 111
    5e4a:	c1 f0       	breq	.+48     	; 0x5e7c <vfprintf+0x26c>
    5e4c:	18 f4       	brcc	.+6      	; 0x5e54 <vfprintf+0x244>
    5e4e:	88 35       	cpi	r24, 0x58	; 88
    5e50:	79 f0       	breq	.+30     	; 0x5e70 <vfprintf+0x260>
    5e52:	b5 c0       	rjmp	.+362    	; 0x5fbe <vfprintf+0x3ae>
    5e54:	80 37       	cpi	r24, 0x70	; 112
    5e56:	19 f0       	breq	.+6      	; 0x5e5e <vfprintf+0x24e>
    5e58:	88 37       	cpi	r24, 0x78	; 120
    5e5a:	21 f0       	breq	.+8      	; 0x5e64 <vfprintf+0x254>
    5e5c:	b0 c0       	rjmp	.+352    	; 0x5fbe <vfprintf+0x3ae>
    5e5e:	e9 2f       	mov	r30, r25
    5e60:	e0 61       	ori	r30, 0x10	; 16
    5e62:	be 2e       	mov	r11, r30
    5e64:	b4 fe       	sbrs	r11, 4
    5e66:	0d c0       	rjmp	.+26     	; 0x5e82 <vfprintf+0x272>
    5e68:	fb 2d       	mov	r31, r11
    5e6a:	f4 60       	ori	r31, 0x04	; 4
    5e6c:	bf 2e       	mov	r11, r31
    5e6e:	09 c0       	rjmp	.+18     	; 0x5e82 <vfprintf+0x272>
    5e70:	34 fe       	sbrs	r3, 4
    5e72:	0a c0       	rjmp	.+20     	; 0x5e88 <vfprintf+0x278>
    5e74:	29 2f       	mov	r18, r25
    5e76:	26 60       	ori	r18, 0x06	; 6
    5e78:	b2 2e       	mov	r11, r18
    5e7a:	06 c0       	rjmp	.+12     	; 0x5e88 <vfprintf+0x278>
    5e7c:	28 e0       	ldi	r18, 0x08	; 8
    5e7e:	30 e0       	ldi	r19, 0x00	; 0
    5e80:	05 c0       	rjmp	.+10     	; 0x5e8c <vfprintf+0x27c>
    5e82:	20 e1       	ldi	r18, 0x10	; 16
    5e84:	30 e0       	ldi	r19, 0x00	; 0
    5e86:	02 c0       	rjmp	.+4      	; 0x5e8c <vfprintf+0x27c>
    5e88:	20 e1       	ldi	r18, 0x10	; 16
    5e8a:	32 e0       	ldi	r19, 0x02	; 2
    5e8c:	f8 01       	movw	r30, r16
    5e8e:	b7 fe       	sbrs	r11, 7
    5e90:	07 c0       	rjmp	.+14     	; 0x5ea0 <vfprintf+0x290>
    5e92:	60 81       	ld	r22, Z
    5e94:	71 81       	ldd	r23, Z+1	; 0x01
    5e96:	82 81       	ldd	r24, Z+2	; 0x02
    5e98:	93 81       	ldd	r25, Z+3	; 0x03
    5e9a:	0c 5f       	subi	r16, 0xFC	; 252
    5e9c:	1f 4f       	sbci	r17, 0xFF	; 255
    5e9e:	06 c0       	rjmp	.+12     	; 0x5eac <vfprintf+0x29c>
    5ea0:	60 81       	ld	r22, Z
    5ea2:	71 81       	ldd	r23, Z+1	; 0x01
    5ea4:	80 e0       	ldi	r24, 0x00	; 0
    5ea6:	90 e0       	ldi	r25, 0x00	; 0
    5ea8:	0e 5f       	subi	r16, 0xFE	; 254
    5eaa:	1f 4f       	sbci	r17, 0xFF	; 255
    5eac:	a3 01       	movw	r20, r6
    5eae:	0e 94 80 32 	call	0x6500	; 0x6500 <__ultoa_invert>
    5eb2:	88 2e       	mov	r8, r24
    5eb4:	86 18       	sub	r8, r6
    5eb6:	fb 2d       	mov	r31, r11
    5eb8:	ff 77       	andi	r31, 0x7F	; 127
    5eba:	3f 2e       	mov	r3, r31
    5ebc:	36 fe       	sbrs	r3, 6
    5ebe:	0d c0       	rjmp	.+26     	; 0x5eda <vfprintf+0x2ca>
    5ec0:	23 2d       	mov	r18, r3
    5ec2:	2e 7f       	andi	r18, 0xFE	; 254
    5ec4:	a2 2e       	mov	r10, r18
    5ec6:	89 14       	cp	r8, r9
    5ec8:	58 f4       	brcc	.+22     	; 0x5ee0 <vfprintf+0x2d0>
    5eca:	34 fe       	sbrs	r3, 4
    5ecc:	0b c0       	rjmp	.+22     	; 0x5ee4 <vfprintf+0x2d4>
    5ece:	32 fc       	sbrc	r3, 2
    5ed0:	09 c0       	rjmp	.+18     	; 0x5ee4 <vfprintf+0x2d4>
    5ed2:	83 2d       	mov	r24, r3
    5ed4:	8e 7e       	andi	r24, 0xEE	; 238
    5ed6:	a8 2e       	mov	r10, r24
    5ed8:	05 c0       	rjmp	.+10     	; 0x5ee4 <vfprintf+0x2d4>
    5eda:	b8 2c       	mov	r11, r8
    5edc:	a3 2c       	mov	r10, r3
    5ede:	03 c0       	rjmp	.+6      	; 0x5ee6 <vfprintf+0x2d6>
    5ee0:	b8 2c       	mov	r11, r8
    5ee2:	01 c0       	rjmp	.+2      	; 0x5ee6 <vfprintf+0x2d6>
    5ee4:	b9 2c       	mov	r11, r9
    5ee6:	a4 fe       	sbrs	r10, 4
    5ee8:	0f c0       	rjmp	.+30     	; 0x5f08 <vfprintf+0x2f8>
    5eea:	fe 01       	movw	r30, r28
    5eec:	e8 0d       	add	r30, r8
    5eee:	f1 1d       	adc	r31, r1
    5ef0:	80 81       	ld	r24, Z
    5ef2:	80 33       	cpi	r24, 0x30	; 48
    5ef4:	21 f4       	brne	.+8      	; 0x5efe <vfprintf+0x2ee>
    5ef6:	9a 2d       	mov	r25, r10
    5ef8:	99 7e       	andi	r25, 0xE9	; 233
    5efa:	a9 2e       	mov	r10, r25
    5efc:	09 c0       	rjmp	.+18     	; 0x5f10 <vfprintf+0x300>
    5efe:	a2 fe       	sbrs	r10, 2
    5f00:	06 c0       	rjmp	.+12     	; 0x5f0e <vfprintf+0x2fe>
    5f02:	b3 94       	inc	r11
    5f04:	b3 94       	inc	r11
    5f06:	04 c0       	rjmp	.+8      	; 0x5f10 <vfprintf+0x300>
    5f08:	8a 2d       	mov	r24, r10
    5f0a:	86 78       	andi	r24, 0x86	; 134
    5f0c:	09 f0       	breq	.+2      	; 0x5f10 <vfprintf+0x300>
    5f0e:	b3 94       	inc	r11
    5f10:	a3 fc       	sbrc	r10, 3
    5f12:	11 c0       	rjmp	.+34     	; 0x5f36 <vfprintf+0x326>
    5f14:	a0 fe       	sbrs	r10, 0
    5f16:	06 c0       	rjmp	.+12     	; 0x5f24 <vfprintf+0x314>
    5f18:	b2 14       	cp	r11, r2
    5f1a:	88 f4       	brcc	.+34     	; 0x5f3e <vfprintf+0x32e>
    5f1c:	28 0c       	add	r2, r8
    5f1e:	92 2c       	mov	r9, r2
    5f20:	9b 18       	sub	r9, r11
    5f22:	0e c0       	rjmp	.+28     	; 0x5f40 <vfprintf+0x330>
    5f24:	b2 14       	cp	r11, r2
    5f26:	60 f4       	brcc	.+24     	; 0x5f40 <vfprintf+0x330>
    5f28:	b6 01       	movw	r22, r12
    5f2a:	80 e2       	ldi	r24, 0x20	; 32
    5f2c:	90 e0       	ldi	r25, 0x00	; 0
    5f2e:	0e 94 44 32 	call	0x6488	; 0x6488 <fputc>
    5f32:	b3 94       	inc	r11
    5f34:	f7 cf       	rjmp	.-18     	; 0x5f24 <vfprintf+0x314>
    5f36:	b2 14       	cp	r11, r2
    5f38:	18 f4       	brcc	.+6      	; 0x5f40 <vfprintf+0x330>
    5f3a:	2b 18       	sub	r2, r11
    5f3c:	02 c0       	rjmp	.+4      	; 0x5f42 <vfprintf+0x332>
    5f3e:	98 2c       	mov	r9, r8
    5f40:	21 2c       	mov	r2, r1
    5f42:	a4 fe       	sbrs	r10, 4
    5f44:	10 c0       	rjmp	.+32     	; 0x5f66 <vfprintf+0x356>
    5f46:	b6 01       	movw	r22, r12
    5f48:	80 e3       	ldi	r24, 0x30	; 48
    5f4a:	90 e0       	ldi	r25, 0x00	; 0
    5f4c:	0e 94 44 32 	call	0x6488	; 0x6488 <fputc>
    5f50:	a2 fe       	sbrs	r10, 2
    5f52:	17 c0       	rjmp	.+46     	; 0x5f82 <vfprintf+0x372>
    5f54:	a1 fc       	sbrc	r10, 1
    5f56:	03 c0       	rjmp	.+6      	; 0x5f5e <vfprintf+0x34e>
    5f58:	88 e7       	ldi	r24, 0x78	; 120
    5f5a:	90 e0       	ldi	r25, 0x00	; 0
    5f5c:	02 c0       	rjmp	.+4      	; 0x5f62 <vfprintf+0x352>
    5f5e:	88 e5       	ldi	r24, 0x58	; 88
    5f60:	90 e0       	ldi	r25, 0x00	; 0
    5f62:	b6 01       	movw	r22, r12
    5f64:	0c c0       	rjmp	.+24     	; 0x5f7e <vfprintf+0x36e>
    5f66:	8a 2d       	mov	r24, r10
    5f68:	86 78       	andi	r24, 0x86	; 134
    5f6a:	59 f0       	breq	.+22     	; 0x5f82 <vfprintf+0x372>
    5f6c:	a1 fe       	sbrs	r10, 1
    5f6e:	02 c0       	rjmp	.+4      	; 0x5f74 <vfprintf+0x364>
    5f70:	8b e2       	ldi	r24, 0x2B	; 43
    5f72:	01 c0       	rjmp	.+2      	; 0x5f76 <vfprintf+0x366>
    5f74:	80 e2       	ldi	r24, 0x20	; 32
    5f76:	a7 fc       	sbrc	r10, 7
    5f78:	8d e2       	ldi	r24, 0x2D	; 45
    5f7a:	b6 01       	movw	r22, r12
    5f7c:	90 e0       	ldi	r25, 0x00	; 0
    5f7e:	0e 94 44 32 	call	0x6488	; 0x6488 <fputc>
    5f82:	89 14       	cp	r8, r9
    5f84:	38 f4       	brcc	.+14     	; 0x5f94 <vfprintf+0x384>
    5f86:	b6 01       	movw	r22, r12
    5f88:	80 e3       	ldi	r24, 0x30	; 48
    5f8a:	90 e0       	ldi	r25, 0x00	; 0
    5f8c:	0e 94 44 32 	call	0x6488	; 0x6488 <fputc>
    5f90:	9a 94       	dec	r9
    5f92:	f7 cf       	rjmp	.-18     	; 0x5f82 <vfprintf+0x372>
    5f94:	8a 94       	dec	r8
    5f96:	f3 01       	movw	r30, r6
    5f98:	e8 0d       	add	r30, r8
    5f9a:	f1 1d       	adc	r31, r1
    5f9c:	80 81       	ld	r24, Z
    5f9e:	b6 01       	movw	r22, r12
    5fa0:	90 e0       	ldi	r25, 0x00	; 0
    5fa2:	0e 94 44 32 	call	0x6488	; 0x6488 <fputc>
    5fa6:	81 10       	cpse	r8, r1
    5fa8:	f5 cf       	rjmp	.-22     	; 0x5f94 <vfprintf+0x384>
    5faa:	22 20       	and	r2, r2
    5fac:	09 f4       	brne	.+2      	; 0x5fb0 <vfprintf+0x3a0>
    5fae:	42 ce       	rjmp	.-892    	; 0x5c34 <vfprintf+0x24>
    5fb0:	b6 01       	movw	r22, r12
    5fb2:	80 e2       	ldi	r24, 0x20	; 32
    5fb4:	90 e0       	ldi	r25, 0x00	; 0
    5fb6:	0e 94 44 32 	call	0x6488	; 0x6488 <fputc>
    5fba:	2a 94       	dec	r2
    5fbc:	f6 cf       	rjmp	.-20     	; 0x5faa <vfprintf+0x39a>
    5fbe:	f6 01       	movw	r30, r12
    5fc0:	86 81       	ldd	r24, Z+6	; 0x06
    5fc2:	97 81       	ldd	r25, Z+7	; 0x07
    5fc4:	02 c0       	rjmp	.+4      	; 0x5fca <vfprintf+0x3ba>
    5fc6:	8f ef       	ldi	r24, 0xFF	; 255
    5fc8:	9f ef       	ldi	r25, 0xFF	; 255
    5fca:	2b 96       	adiw	r28, 0x0b	; 11
    5fcc:	e2 e1       	ldi	r30, 0x12	; 18
    5fce:	0c 94 4b 33 	jmp	0x6696	; 0x6696 <__epilogue_restores__>

00005fd2 <dtoa_prf>:
    5fd2:	a9 e0       	ldi	r26, 0x09	; 9
    5fd4:	b0 e0       	ldi	r27, 0x00	; 0
    5fd6:	ef ee       	ldi	r30, 0xEF	; 239
    5fd8:	ff e2       	ldi	r31, 0x2F	; 47
    5fda:	0c 94 35 33 	jmp	0x666a	; 0x666a <__prologue_saves__+0xc>
    5fde:	6a 01       	movw	r12, r20
    5fe0:	12 2f       	mov	r17, r18
    5fe2:	b0 2e       	mov	r11, r16
    5fe4:	2b e3       	ldi	r18, 0x3B	; 59
    5fe6:	20 17       	cp	r18, r16
    5fe8:	20 f0       	brcs	.+8      	; 0x5ff2 <dtoa_prf+0x20>
    5fea:	ff 24       	eor	r15, r15
    5fec:	f3 94       	inc	r15
    5fee:	f0 0e       	add	r15, r16
    5ff0:	02 c0       	rjmp	.+4      	; 0x5ff6 <dtoa_prf+0x24>
    5ff2:	2c e3       	ldi	r18, 0x3C	; 60
    5ff4:	f2 2e       	mov	r15, r18
    5ff6:	0f 2d       	mov	r16, r15
    5ff8:	27 e0       	ldi	r18, 0x07	; 7
    5ffa:	ae 01       	movw	r20, r28
    5ffc:	4f 5f       	subi	r20, 0xFF	; 255
    5ffe:	5f 4f       	sbci	r21, 0xFF	; 255
    6000:	0e 94 43 31 	call	0x6286	; 0x6286 <__ftoa_engine>
    6004:	bc 01       	movw	r22, r24
    6006:	49 81       	ldd	r20, Y+1	; 0x01
    6008:	84 2f       	mov	r24, r20
    600a:	89 70       	andi	r24, 0x09	; 9
    600c:	81 30       	cpi	r24, 0x01	; 1
    600e:	31 f0       	breq	.+12     	; 0x601c <dtoa_prf+0x4a>
    6010:	e1 fc       	sbrc	r14, 1
    6012:	06 c0       	rjmp	.+12     	; 0x6020 <dtoa_prf+0x4e>
    6014:	e0 fe       	sbrs	r14, 0
    6016:	06 c0       	rjmp	.+12     	; 0x6024 <dtoa_prf+0x52>
    6018:	90 e2       	ldi	r25, 0x20	; 32
    601a:	05 c0       	rjmp	.+10     	; 0x6026 <dtoa_prf+0x54>
    601c:	9d e2       	ldi	r25, 0x2D	; 45
    601e:	03 c0       	rjmp	.+6      	; 0x6026 <dtoa_prf+0x54>
    6020:	9b e2       	ldi	r25, 0x2B	; 43
    6022:	01 c0       	rjmp	.+2      	; 0x6026 <dtoa_prf+0x54>
    6024:	90 e0       	ldi	r25, 0x00	; 0
    6026:	5e 2d       	mov	r21, r14
    6028:	50 71       	andi	r21, 0x10	; 16
    602a:	43 ff       	sbrs	r20, 3
    602c:	3c c0       	rjmp	.+120    	; 0x60a6 <dtoa_prf+0xd4>
    602e:	91 11       	cpse	r25, r1
    6030:	02 c0       	rjmp	.+4      	; 0x6036 <dtoa_prf+0x64>
    6032:	83 e0       	ldi	r24, 0x03	; 3
    6034:	01 c0       	rjmp	.+2      	; 0x6038 <dtoa_prf+0x66>
    6036:	84 e0       	ldi	r24, 0x04	; 4
    6038:	81 17       	cp	r24, r17
    603a:	18 f4       	brcc	.+6      	; 0x6042 <dtoa_prf+0x70>
    603c:	21 2f       	mov	r18, r17
    603e:	28 1b       	sub	r18, r24
    6040:	01 c0       	rjmp	.+2      	; 0x6044 <dtoa_prf+0x72>
    6042:	20 e0       	ldi	r18, 0x00	; 0
    6044:	51 11       	cpse	r21, r1
    6046:	0b c0       	rjmp	.+22     	; 0x605e <dtoa_prf+0x8c>
    6048:	f6 01       	movw	r30, r12
    604a:	82 2f       	mov	r24, r18
    604c:	30 e2       	ldi	r19, 0x20	; 32
    604e:	88 23       	and	r24, r24
    6050:	19 f0       	breq	.+6      	; 0x6058 <dtoa_prf+0x86>
    6052:	31 93       	st	Z+, r19
    6054:	81 50       	subi	r24, 0x01	; 1
    6056:	fb cf       	rjmp	.-10     	; 0x604e <dtoa_prf+0x7c>
    6058:	c2 0e       	add	r12, r18
    605a:	d1 1c       	adc	r13, r1
    605c:	20 e0       	ldi	r18, 0x00	; 0
    605e:	99 23       	and	r25, r25
    6060:	29 f0       	breq	.+10     	; 0x606c <dtoa_prf+0x9a>
    6062:	d6 01       	movw	r26, r12
    6064:	9c 93       	st	X, r25
    6066:	f6 01       	movw	r30, r12
    6068:	31 96       	adiw	r30, 0x01	; 1
    606a:	6f 01       	movw	r12, r30
    606c:	c6 01       	movw	r24, r12
    606e:	03 96       	adiw	r24, 0x03	; 3
    6070:	e2 fe       	sbrs	r14, 2
    6072:	0a c0       	rjmp	.+20     	; 0x6088 <dtoa_prf+0xb6>
    6074:	3e e4       	ldi	r19, 0x4E	; 78
    6076:	d6 01       	movw	r26, r12
    6078:	3c 93       	st	X, r19
    607a:	41 e4       	ldi	r20, 0x41	; 65
    607c:	11 96       	adiw	r26, 0x01	; 1
    607e:	4c 93       	st	X, r20
    6080:	11 97       	sbiw	r26, 0x01	; 1
    6082:	12 96       	adiw	r26, 0x02	; 2
    6084:	3c 93       	st	X, r19
    6086:	06 c0       	rjmp	.+12     	; 0x6094 <dtoa_prf+0xc2>
    6088:	3e e6       	ldi	r19, 0x6E	; 110
    608a:	f6 01       	movw	r30, r12
    608c:	30 83       	st	Z, r19
    608e:	41 e6       	ldi	r20, 0x61	; 97
    6090:	41 83       	std	Z+1, r20	; 0x01
    6092:	32 83       	std	Z+2, r19	; 0x02
    6094:	fc 01       	movw	r30, r24
    6096:	32 2f       	mov	r19, r18
    6098:	40 e2       	ldi	r20, 0x20	; 32
    609a:	33 23       	and	r19, r19
    609c:	09 f4       	brne	.+2      	; 0x60a0 <dtoa_prf+0xce>
    609e:	42 c0       	rjmp	.+132    	; 0x6124 <dtoa_prf+0x152>
    60a0:	41 93       	st	Z+, r20
    60a2:	31 50       	subi	r19, 0x01	; 1
    60a4:	fa cf       	rjmp	.-12     	; 0x609a <dtoa_prf+0xc8>
    60a6:	42 ff       	sbrs	r20, 2
    60a8:	44 c0       	rjmp	.+136    	; 0x6132 <dtoa_prf+0x160>
    60aa:	91 11       	cpse	r25, r1
    60ac:	02 c0       	rjmp	.+4      	; 0x60b2 <dtoa_prf+0xe0>
    60ae:	83 e0       	ldi	r24, 0x03	; 3
    60b0:	01 c0       	rjmp	.+2      	; 0x60b4 <dtoa_prf+0xe2>
    60b2:	84 e0       	ldi	r24, 0x04	; 4
    60b4:	81 17       	cp	r24, r17
    60b6:	18 f4       	brcc	.+6      	; 0x60be <dtoa_prf+0xec>
    60b8:	21 2f       	mov	r18, r17
    60ba:	28 1b       	sub	r18, r24
    60bc:	01 c0       	rjmp	.+2      	; 0x60c0 <dtoa_prf+0xee>
    60be:	20 e0       	ldi	r18, 0x00	; 0
    60c0:	51 11       	cpse	r21, r1
    60c2:	0b c0       	rjmp	.+22     	; 0x60da <dtoa_prf+0x108>
    60c4:	f6 01       	movw	r30, r12
    60c6:	82 2f       	mov	r24, r18
    60c8:	30 e2       	ldi	r19, 0x20	; 32
    60ca:	88 23       	and	r24, r24
    60cc:	19 f0       	breq	.+6      	; 0x60d4 <dtoa_prf+0x102>
    60ce:	31 93       	st	Z+, r19
    60d0:	81 50       	subi	r24, 0x01	; 1
    60d2:	fb cf       	rjmp	.-10     	; 0x60ca <dtoa_prf+0xf8>
    60d4:	c2 0e       	add	r12, r18
    60d6:	d1 1c       	adc	r13, r1
    60d8:	20 e0       	ldi	r18, 0x00	; 0
    60da:	99 23       	and	r25, r25
    60dc:	29 f0       	breq	.+10     	; 0x60e8 <dtoa_prf+0x116>
    60de:	d6 01       	movw	r26, r12
    60e0:	9c 93       	st	X, r25
    60e2:	f6 01       	movw	r30, r12
    60e4:	31 96       	adiw	r30, 0x01	; 1
    60e6:	6f 01       	movw	r12, r30
    60e8:	c6 01       	movw	r24, r12
    60ea:	03 96       	adiw	r24, 0x03	; 3
    60ec:	e2 fe       	sbrs	r14, 2
    60ee:	0b c0       	rjmp	.+22     	; 0x6106 <dtoa_prf+0x134>
    60f0:	39 e4       	ldi	r19, 0x49	; 73
    60f2:	d6 01       	movw	r26, r12
    60f4:	3c 93       	st	X, r19
    60f6:	3e e4       	ldi	r19, 0x4E	; 78
    60f8:	11 96       	adiw	r26, 0x01	; 1
    60fa:	3c 93       	st	X, r19
    60fc:	11 97       	sbiw	r26, 0x01	; 1
    60fe:	36 e4       	ldi	r19, 0x46	; 70
    6100:	12 96       	adiw	r26, 0x02	; 2
    6102:	3c 93       	st	X, r19
    6104:	07 c0       	rjmp	.+14     	; 0x6114 <dtoa_prf+0x142>
    6106:	39 e6       	ldi	r19, 0x69	; 105
    6108:	f6 01       	movw	r30, r12
    610a:	30 83       	st	Z, r19
    610c:	3e e6       	ldi	r19, 0x6E	; 110
    610e:	31 83       	std	Z+1, r19	; 0x01
    6110:	36 e6       	ldi	r19, 0x66	; 102
    6112:	32 83       	std	Z+2, r19	; 0x02
    6114:	fc 01       	movw	r30, r24
    6116:	32 2f       	mov	r19, r18
    6118:	40 e2       	ldi	r20, 0x20	; 32
    611a:	33 23       	and	r19, r19
    611c:	19 f0       	breq	.+6      	; 0x6124 <dtoa_prf+0x152>
    611e:	41 93       	st	Z+, r20
    6120:	31 50       	subi	r19, 0x01	; 1
    6122:	fb cf       	rjmp	.-10     	; 0x611a <dtoa_prf+0x148>
    6124:	fc 01       	movw	r30, r24
    6126:	e2 0f       	add	r30, r18
    6128:	f1 1d       	adc	r31, r1
    612a:	10 82       	st	Z, r1
    612c:	8e ef       	ldi	r24, 0xFE	; 254
    612e:	9f ef       	ldi	r25, 0xFF	; 255
    6130:	a6 c0       	rjmp	.+332    	; 0x627e <dtoa_prf+0x2ac>
    6132:	21 e0       	ldi	r18, 0x01	; 1
    6134:	30 e0       	ldi	r19, 0x00	; 0
    6136:	91 11       	cpse	r25, r1
    6138:	02 c0       	rjmp	.+4      	; 0x613e <dtoa_prf+0x16c>
    613a:	20 e0       	ldi	r18, 0x00	; 0
    613c:	30 e0       	ldi	r19, 0x00	; 0
    613e:	16 16       	cp	r1, r22
    6140:	17 06       	cpc	r1, r23
    6142:	1c f4       	brge	.+6      	; 0x614a <dtoa_prf+0x178>
    6144:	fb 01       	movw	r30, r22
    6146:	31 96       	adiw	r30, 0x01	; 1
    6148:	02 c0       	rjmp	.+4      	; 0x614e <dtoa_prf+0x17c>
    614a:	e1 e0       	ldi	r30, 0x01	; 1
    614c:	f0 e0       	ldi	r31, 0x00	; 0
    614e:	2e 0f       	add	r18, r30
    6150:	3f 1f       	adc	r19, r31
    6152:	bb 20       	and	r11, r11
    6154:	21 f0       	breq	.+8      	; 0x615e <dtoa_prf+0x18c>
    6156:	eb 2d       	mov	r30, r11
    6158:	f0 e0       	ldi	r31, 0x00	; 0
    615a:	31 96       	adiw	r30, 0x01	; 1
    615c:	02 c0       	rjmp	.+4      	; 0x6162 <dtoa_prf+0x190>
    615e:	e0 e0       	ldi	r30, 0x00	; 0
    6160:	f0 e0       	ldi	r31, 0x00	; 0
    6162:	2e 0f       	add	r18, r30
    6164:	3f 1f       	adc	r19, r31
    6166:	e1 2f       	mov	r30, r17
    6168:	f0 e0       	ldi	r31, 0x00	; 0
    616a:	2e 17       	cp	r18, r30
    616c:	3f 07       	cpc	r19, r31
    616e:	1c f4       	brge	.+6      	; 0x6176 <dtoa_prf+0x1a4>
    6170:	12 1b       	sub	r17, r18
    6172:	21 2f       	mov	r18, r17
    6174:	01 c0       	rjmp	.+2      	; 0x6178 <dtoa_prf+0x1a6>
    6176:	20 e0       	ldi	r18, 0x00	; 0
    6178:	8e 2d       	mov	r24, r14
    617a:	88 71       	andi	r24, 0x18	; 24
    617c:	59 f4       	brne	.+22     	; 0x6194 <dtoa_prf+0x1c2>
    617e:	f6 01       	movw	r30, r12
    6180:	82 2f       	mov	r24, r18
    6182:	30 e2       	ldi	r19, 0x20	; 32
    6184:	88 23       	and	r24, r24
    6186:	19 f0       	breq	.+6      	; 0x618e <dtoa_prf+0x1bc>
    6188:	31 93       	st	Z+, r19
    618a:	81 50       	subi	r24, 0x01	; 1
    618c:	fb cf       	rjmp	.-10     	; 0x6184 <dtoa_prf+0x1b2>
    618e:	c2 0e       	add	r12, r18
    6190:	d1 1c       	adc	r13, r1
    6192:	20 e0       	ldi	r18, 0x00	; 0
    6194:	99 23       	and	r25, r25
    6196:	29 f0       	breq	.+10     	; 0x61a2 <dtoa_prf+0x1d0>
    6198:	d6 01       	movw	r26, r12
    619a:	9c 93       	st	X, r25
    619c:	f6 01       	movw	r30, r12
    619e:	31 96       	adiw	r30, 0x01	; 1
    61a0:	6f 01       	movw	r12, r30
    61a2:	51 11       	cpse	r21, r1
    61a4:	0b c0       	rjmp	.+22     	; 0x61bc <dtoa_prf+0x1ea>
    61a6:	f6 01       	movw	r30, r12
    61a8:	82 2f       	mov	r24, r18
    61aa:	90 e3       	ldi	r25, 0x30	; 48
    61ac:	88 23       	and	r24, r24
    61ae:	19 f0       	breq	.+6      	; 0x61b6 <dtoa_prf+0x1e4>
    61b0:	91 93       	st	Z+, r25
    61b2:	81 50       	subi	r24, 0x01	; 1
    61b4:	fb cf       	rjmp	.-10     	; 0x61ac <dtoa_prf+0x1da>
    61b6:	c2 0e       	add	r12, r18
    61b8:	d1 1c       	adc	r13, r1
    61ba:	20 e0       	ldi	r18, 0x00	; 0
    61bc:	0f 2d       	mov	r16, r15
    61be:	06 0f       	add	r16, r22
    61c0:	9a 81       	ldd	r25, Y+2	; 0x02
    61c2:	34 2f       	mov	r19, r20
    61c4:	30 71       	andi	r19, 0x10	; 16
    61c6:	44 ff       	sbrs	r20, 4
    61c8:	03 c0       	rjmp	.+6      	; 0x61d0 <dtoa_prf+0x1fe>
    61ca:	91 33       	cpi	r25, 0x31	; 49
    61cc:	09 f4       	brne	.+2      	; 0x61d0 <dtoa_prf+0x1fe>
    61ce:	01 50       	subi	r16, 0x01	; 1
    61d0:	10 16       	cp	r1, r16
    61d2:	24 f4       	brge	.+8      	; 0x61dc <dtoa_prf+0x20a>
    61d4:	09 30       	cpi	r16, 0x09	; 9
    61d6:	18 f0       	brcs	.+6      	; 0x61de <dtoa_prf+0x20c>
    61d8:	08 e0       	ldi	r16, 0x08	; 8
    61da:	01 c0       	rjmp	.+2      	; 0x61de <dtoa_prf+0x20c>
    61dc:	01 e0       	ldi	r16, 0x01	; 1
    61de:	ab 01       	movw	r20, r22
    61e0:	77 ff       	sbrs	r23, 7
    61e2:	02 c0       	rjmp	.+4      	; 0x61e8 <dtoa_prf+0x216>
    61e4:	40 e0       	ldi	r20, 0x00	; 0
    61e6:	50 e0       	ldi	r21, 0x00	; 0
    61e8:	fb 01       	movw	r30, r22
    61ea:	e4 1b       	sub	r30, r20
    61ec:	f5 0b       	sbc	r31, r21
    61ee:	a1 e0       	ldi	r26, 0x01	; 1
    61f0:	b0 e0       	ldi	r27, 0x00	; 0
    61f2:	ac 0f       	add	r26, r28
    61f4:	bd 1f       	adc	r27, r29
    61f6:	ea 0f       	add	r30, r26
    61f8:	fb 1f       	adc	r31, r27
    61fa:	8e e2       	ldi	r24, 0x2E	; 46
    61fc:	a8 2e       	mov	r10, r24
    61fe:	4b 01       	movw	r8, r22
    6200:	80 1a       	sub	r8, r16
    6202:	91 08       	sbc	r9, r1
    6204:	0b 2d       	mov	r16, r11
    6206:	10 e0       	ldi	r17, 0x00	; 0
    6208:	11 95       	neg	r17
    620a:	01 95       	neg	r16
    620c:	11 09       	sbc	r17, r1
    620e:	4f 3f       	cpi	r20, 0xFF	; 255
    6210:	bf ef       	ldi	r27, 0xFF	; 255
    6212:	5b 07       	cpc	r21, r27
    6214:	21 f4       	brne	.+8      	; 0x621e <dtoa_prf+0x24c>
    6216:	d6 01       	movw	r26, r12
    6218:	ac 92       	st	X, r10
    621a:	11 96       	adiw	r26, 0x01	; 1
    621c:	6d 01       	movw	r12, r26
    621e:	64 17       	cp	r22, r20
    6220:	75 07       	cpc	r23, r21
    6222:	2c f0       	brlt	.+10     	; 0x622e <dtoa_prf+0x25c>
    6224:	84 16       	cp	r8, r20
    6226:	95 06       	cpc	r9, r21
    6228:	14 f4       	brge	.+4      	; 0x622e <dtoa_prf+0x25c>
    622a:	81 81       	ldd	r24, Z+1	; 0x01
    622c:	01 c0       	rjmp	.+2      	; 0x6230 <dtoa_prf+0x25e>
    622e:	80 e3       	ldi	r24, 0x30	; 48
    6230:	41 50       	subi	r20, 0x01	; 1
    6232:	51 09       	sbc	r21, r1
    6234:	31 96       	adiw	r30, 0x01	; 1
    6236:	d6 01       	movw	r26, r12
    6238:	11 96       	adiw	r26, 0x01	; 1
    623a:	7d 01       	movw	r14, r26
    623c:	40 17       	cp	r20, r16
    623e:	51 07       	cpc	r21, r17
    6240:	24 f0       	brlt	.+8      	; 0x624a <dtoa_prf+0x278>
    6242:	d6 01       	movw	r26, r12
    6244:	8c 93       	st	X, r24
    6246:	67 01       	movw	r12, r14
    6248:	e2 cf       	rjmp	.-60     	; 0x620e <dtoa_prf+0x23c>
    624a:	64 17       	cp	r22, r20
    624c:	75 07       	cpc	r23, r21
    624e:	39 f4       	brne	.+14     	; 0x625e <dtoa_prf+0x28c>
    6250:	96 33       	cpi	r25, 0x36	; 54
    6252:	20 f4       	brcc	.+8      	; 0x625c <dtoa_prf+0x28a>
    6254:	95 33       	cpi	r25, 0x35	; 53
    6256:	19 f4       	brne	.+6      	; 0x625e <dtoa_prf+0x28c>
    6258:	31 11       	cpse	r19, r1
    625a:	01 c0       	rjmp	.+2      	; 0x625e <dtoa_prf+0x28c>
    625c:	81 e3       	ldi	r24, 0x31	; 49
    625e:	f6 01       	movw	r30, r12
    6260:	80 83       	st	Z, r24
    6262:	f7 01       	movw	r30, r14
    6264:	82 2f       	mov	r24, r18
    6266:	90 e2       	ldi	r25, 0x20	; 32
    6268:	88 23       	and	r24, r24
    626a:	19 f0       	breq	.+6      	; 0x6272 <dtoa_prf+0x2a0>
    626c:	91 93       	st	Z+, r25
    626e:	81 50       	subi	r24, 0x01	; 1
    6270:	fb cf       	rjmp	.-10     	; 0x6268 <dtoa_prf+0x296>
    6272:	f7 01       	movw	r30, r14
    6274:	e2 0f       	add	r30, r18
    6276:	f1 1d       	adc	r31, r1
    6278:	10 82       	st	Z, r1
    627a:	80 e0       	ldi	r24, 0x00	; 0
    627c:	90 e0       	ldi	r25, 0x00	; 0
    627e:	29 96       	adiw	r28, 0x09	; 9
    6280:	ec e0       	ldi	r30, 0x0C	; 12
    6282:	0c 94 51 33 	jmp	0x66a2	; 0x66a2 <__epilogue_restores__+0xc>

00006286 <__ftoa_engine>:
    6286:	28 30       	cpi	r18, 0x08	; 8
    6288:	08 f0       	brcs	.+2      	; 0x628c <__ftoa_engine+0x6>
    628a:	27 e0       	ldi	r18, 0x07	; 7
    628c:	33 27       	eor	r19, r19
    628e:	da 01       	movw	r26, r20
    6290:	99 0f       	add	r25, r25
    6292:	31 1d       	adc	r19, r1
    6294:	87 fd       	sbrc	r24, 7
    6296:	91 60       	ori	r25, 0x01	; 1
    6298:	00 96       	adiw	r24, 0x00	; 0
    629a:	61 05       	cpc	r22, r1
    629c:	71 05       	cpc	r23, r1
    629e:	39 f4       	brne	.+14     	; 0x62ae <__ftoa_engine+0x28>
    62a0:	32 60       	ori	r19, 0x02	; 2
    62a2:	2e 5f       	subi	r18, 0xFE	; 254
    62a4:	3d 93       	st	X+, r19
    62a6:	30 e3       	ldi	r19, 0x30	; 48
    62a8:	2a 95       	dec	r18
    62aa:	e1 f7       	brne	.-8      	; 0x62a4 <__ftoa_engine+0x1e>
    62ac:	08 95       	ret
    62ae:	9f 3f       	cpi	r25, 0xFF	; 255
    62b0:	30 f0       	brcs	.+12     	; 0x62be <__ftoa_engine+0x38>
    62b2:	80 38       	cpi	r24, 0x80	; 128
    62b4:	71 05       	cpc	r23, r1
    62b6:	61 05       	cpc	r22, r1
    62b8:	09 f0       	breq	.+2      	; 0x62bc <__ftoa_engine+0x36>
    62ba:	3c 5f       	subi	r19, 0xFC	; 252
    62bc:	3c 5f       	subi	r19, 0xFC	; 252
    62be:	3d 93       	st	X+, r19
    62c0:	91 30       	cpi	r25, 0x01	; 1
    62c2:	08 f0       	brcs	.+2      	; 0x62c6 <__ftoa_engine+0x40>
    62c4:	80 68       	ori	r24, 0x80	; 128
    62c6:	91 1d       	adc	r25, r1
    62c8:	df 93       	push	r29
    62ca:	cf 93       	push	r28
    62cc:	1f 93       	push	r17
    62ce:	0f 93       	push	r16
    62d0:	ff 92       	push	r15
    62d2:	ef 92       	push	r14
    62d4:	19 2f       	mov	r17, r25
    62d6:	98 7f       	andi	r25, 0xF8	; 248
    62d8:	96 95       	lsr	r25
    62da:	e9 2f       	mov	r30, r25
    62dc:	96 95       	lsr	r25
    62de:	96 95       	lsr	r25
    62e0:	e9 0f       	add	r30, r25
    62e2:	ff 27       	eor	r31, r31
    62e4:	e7 51       	subi	r30, 0x17	; 23
    62e6:	fe 4f       	sbci	r31, 0xFE	; 254
    62e8:	99 27       	eor	r25, r25
    62ea:	33 27       	eor	r19, r19
    62ec:	ee 24       	eor	r14, r14
    62ee:	ff 24       	eor	r15, r15
    62f0:	a7 01       	movw	r20, r14
    62f2:	e7 01       	movw	r28, r14
    62f4:	05 90       	lpm	r0, Z+
    62f6:	08 94       	sec
    62f8:	07 94       	ror	r0
    62fa:	28 f4       	brcc	.+10     	; 0x6306 <__ftoa_engine+0x80>
    62fc:	36 0f       	add	r19, r22
    62fe:	e7 1e       	adc	r14, r23
    6300:	f8 1e       	adc	r15, r24
    6302:	49 1f       	adc	r20, r25
    6304:	51 1d       	adc	r21, r1
    6306:	66 0f       	add	r22, r22
    6308:	77 1f       	adc	r23, r23
    630a:	88 1f       	adc	r24, r24
    630c:	99 1f       	adc	r25, r25
    630e:	06 94       	lsr	r0
    6310:	a1 f7       	brne	.-24     	; 0x62fa <__ftoa_engine+0x74>
    6312:	05 90       	lpm	r0, Z+
    6314:	07 94       	ror	r0
    6316:	28 f4       	brcc	.+10     	; 0x6322 <__ftoa_engine+0x9c>
    6318:	e7 0e       	add	r14, r23
    631a:	f8 1e       	adc	r15, r24
    631c:	49 1f       	adc	r20, r25
    631e:	56 1f       	adc	r21, r22
    6320:	c1 1d       	adc	r28, r1
    6322:	77 0f       	add	r23, r23
    6324:	88 1f       	adc	r24, r24
    6326:	99 1f       	adc	r25, r25
    6328:	66 1f       	adc	r22, r22
    632a:	06 94       	lsr	r0
    632c:	a1 f7       	brne	.-24     	; 0x6316 <__ftoa_engine+0x90>
    632e:	05 90       	lpm	r0, Z+
    6330:	07 94       	ror	r0
    6332:	28 f4       	brcc	.+10     	; 0x633e <__ftoa_engine+0xb8>
    6334:	f8 0e       	add	r15, r24
    6336:	49 1f       	adc	r20, r25
    6338:	56 1f       	adc	r21, r22
    633a:	c7 1f       	adc	r28, r23
    633c:	d1 1d       	adc	r29, r1
    633e:	88 0f       	add	r24, r24
    6340:	99 1f       	adc	r25, r25
    6342:	66 1f       	adc	r22, r22
    6344:	77 1f       	adc	r23, r23
    6346:	06 94       	lsr	r0
    6348:	a1 f7       	brne	.-24     	; 0x6332 <__ftoa_engine+0xac>
    634a:	05 90       	lpm	r0, Z+
    634c:	07 94       	ror	r0
    634e:	20 f4       	brcc	.+8      	; 0x6358 <__ftoa_engine+0xd2>
    6350:	49 0f       	add	r20, r25
    6352:	56 1f       	adc	r21, r22
    6354:	c7 1f       	adc	r28, r23
    6356:	d8 1f       	adc	r29, r24
    6358:	99 0f       	add	r25, r25
    635a:	66 1f       	adc	r22, r22
    635c:	77 1f       	adc	r23, r23
    635e:	88 1f       	adc	r24, r24
    6360:	06 94       	lsr	r0
    6362:	a9 f7       	brne	.-22     	; 0x634e <__ftoa_engine+0xc8>
    6364:	84 91       	lpm	r24, Z
    6366:	10 95       	com	r17
    6368:	17 70       	andi	r17, 0x07	; 7
    636a:	41 f0       	breq	.+16     	; 0x637c <__ftoa_engine+0xf6>
    636c:	d6 95       	lsr	r29
    636e:	c7 95       	ror	r28
    6370:	57 95       	ror	r21
    6372:	47 95       	ror	r20
    6374:	f7 94       	ror	r15
    6376:	e7 94       	ror	r14
    6378:	1a 95       	dec	r17
    637a:	c1 f7       	brne	.-16     	; 0x636c <__ftoa_engine+0xe6>
    637c:	ef e8       	ldi	r30, 0x8F	; 143
    637e:	f1 e0       	ldi	r31, 0x01	; 1
    6380:	68 94       	set
    6382:	15 90       	lpm	r1, Z+
    6384:	15 91       	lpm	r17, Z+
    6386:	35 91       	lpm	r19, Z+
    6388:	65 91       	lpm	r22, Z+
    638a:	95 91       	lpm	r25, Z+
    638c:	05 90       	lpm	r0, Z+
    638e:	7f e2       	ldi	r23, 0x2F	; 47
    6390:	73 95       	inc	r23
    6392:	e1 18       	sub	r14, r1
    6394:	f1 0a       	sbc	r15, r17
    6396:	43 0b       	sbc	r20, r19
    6398:	56 0b       	sbc	r21, r22
    639a:	c9 0b       	sbc	r28, r25
    639c:	d0 09       	sbc	r29, r0
    639e:	c0 f7       	brcc	.-16     	; 0x6390 <__ftoa_engine+0x10a>
    63a0:	e1 0c       	add	r14, r1
    63a2:	f1 1e       	adc	r15, r17
    63a4:	43 1f       	adc	r20, r19
    63a6:	56 1f       	adc	r21, r22
    63a8:	c9 1f       	adc	r28, r25
    63aa:	d0 1d       	adc	r29, r0
    63ac:	7e f4       	brtc	.+30     	; 0x63cc <__ftoa_engine+0x146>
    63ae:	70 33       	cpi	r23, 0x30	; 48
    63b0:	11 f4       	brne	.+4      	; 0x63b6 <__ftoa_engine+0x130>
    63b2:	8a 95       	dec	r24
    63b4:	e6 cf       	rjmp	.-52     	; 0x6382 <__ftoa_engine+0xfc>
    63b6:	e8 94       	clt
    63b8:	01 50       	subi	r16, 0x01	; 1
    63ba:	30 f0       	brcs	.+12     	; 0x63c8 <__ftoa_engine+0x142>
    63bc:	08 0f       	add	r16, r24
    63be:	0a f4       	brpl	.+2      	; 0x63c2 <__ftoa_engine+0x13c>
    63c0:	00 27       	eor	r16, r16
    63c2:	02 17       	cp	r16, r18
    63c4:	08 f4       	brcc	.+2      	; 0x63c8 <__ftoa_engine+0x142>
    63c6:	20 2f       	mov	r18, r16
    63c8:	23 95       	inc	r18
    63ca:	02 2f       	mov	r16, r18
    63cc:	7a 33       	cpi	r23, 0x3A	; 58
    63ce:	28 f0       	brcs	.+10     	; 0x63da <__ftoa_engine+0x154>
    63d0:	79 e3       	ldi	r23, 0x39	; 57
    63d2:	7d 93       	st	X+, r23
    63d4:	2a 95       	dec	r18
    63d6:	e9 f7       	brne	.-6      	; 0x63d2 <__ftoa_engine+0x14c>
    63d8:	10 c0       	rjmp	.+32     	; 0x63fa <__ftoa_engine+0x174>
    63da:	7d 93       	st	X+, r23
    63dc:	2a 95       	dec	r18
    63de:	89 f6       	brne	.-94     	; 0x6382 <__ftoa_engine+0xfc>
    63e0:	06 94       	lsr	r0
    63e2:	97 95       	ror	r25
    63e4:	67 95       	ror	r22
    63e6:	37 95       	ror	r19
    63e8:	17 95       	ror	r17
    63ea:	17 94       	ror	r1
    63ec:	e1 18       	sub	r14, r1
    63ee:	f1 0a       	sbc	r15, r17
    63f0:	43 0b       	sbc	r20, r19
    63f2:	56 0b       	sbc	r21, r22
    63f4:	c9 0b       	sbc	r28, r25
    63f6:	d0 09       	sbc	r29, r0
    63f8:	98 f0       	brcs	.+38     	; 0x6420 <__ftoa_engine+0x19a>
    63fa:	23 95       	inc	r18
    63fc:	7e 91       	ld	r23, -X
    63fe:	73 95       	inc	r23
    6400:	7a 33       	cpi	r23, 0x3A	; 58
    6402:	08 f0       	brcs	.+2      	; 0x6406 <__ftoa_engine+0x180>
    6404:	70 e3       	ldi	r23, 0x30	; 48
    6406:	7c 93       	st	X, r23
    6408:	20 13       	cpse	r18, r16
    640a:	b8 f7       	brcc	.-18     	; 0x63fa <__ftoa_engine+0x174>
    640c:	7e 91       	ld	r23, -X
    640e:	70 61       	ori	r23, 0x10	; 16
    6410:	7d 93       	st	X+, r23
    6412:	30 f0       	brcs	.+12     	; 0x6420 <__ftoa_engine+0x19a>
    6414:	83 95       	inc	r24
    6416:	71 e3       	ldi	r23, 0x31	; 49
    6418:	7d 93       	st	X+, r23
    641a:	70 e3       	ldi	r23, 0x30	; 48
    641c:	2a 95       	dec	r18
    641e:	e1 f7       	brne	.-8      	; 0x6418 <__ftoa_engine+0x192>
    6420:	11 24       	eor	r1, r1
    6422:	ef 90       	pop	r14
    6424:	ff 90       	pop	r15
    6426:	0f 91       	pop	r16
    6428:	1f 91       	pop	r17
    642a:	cf 91       	pop	r28
    642c:	df 91       	pop	r29
    642e:	99 27       	eor	r25, r25
    6430:	87 fd       	sbrc	r24, 7
    6432:	90 95       	com	r25
    6434:	08 95       	ret

00006436 <__ctype_isfalse>:
    6436:	99 27       	eor	r25, r25
    6438:	88 27       	eor	r24, r24

0000643a <__ctype_istrue>:
    643a:	08 95       	ret

0000643c <strnlen_P>:
    643c:	fc 01       	movw	r30, r24
    643e:	05 90       	lpm	r0, Z+
    6440:	61 50       	subi	r22, 0x01	; 1
    6442:	70 40       	sbci	r23, 0x00	; 0
    6444:	01 10       	cpse	r0, r1
    6446:	d8 f7       	brcc	.-10     	; 0x643e <strnlen_P+0x2>
    6448:	80 95       	com	r24
    644a:	90 95       	com	r25
    644c:	8e 0f       	add	r24, r30
    644e:	9f 1f       	adc	r25, r31
    6450:	08 95       	ret

00006452 <strnlen>:
    6452:	fc 01       	movw	r30, r24
    6454:	61 50       	subi	r22, 0x01	; 1
    6456:	70 40       	sbci	r23, 0x00	; 0
    6458:	01 90       	ld	r0, Z+
    645a:	01 10       	cpse	r0, r1
    645c:	d8 f7       	brcc	.-10     	; 0x6454 <strnlen+0x2>
    645e:	80 95       	com	r24
    6460:	90 95       	com	r25
    6462:	8e 0f       	add	r24, r30
    6464:	9f 1f       	adc	r25, r31
    6466:	08 95       	ret

00006468 <strrev>:
    6468:	dc 01       	movw	r26, r24
    646a:	fc 01       	movw	r30, r24
    646c:	67 2f       	mov	r22, r23
    646e:	71 91       	ld	r23, Z+
    6470:	77 23       	and	r23, r23
    6472:	e1 f7       	brne	.-8      	; 0x646c <strrev+0x4>
    6474:	32 97       	sbiw	r30, 0x02	; 2
    6476:	04 c0       	rjmp	.+8      	; 0x6480 <strrev+0x18>
    6478:	7c 91       	ld	r23, X
    647a:	6d 93       	st	X+, r22
    647c:	70 83       	st	Z, r23
    647e:	62 91       	ld	r22, -Z
    6480:	ae 17       	cp	r26, r30
    6482:	bf 07       	cpc	r27, r31
    6484:	c8 f3       	brcs	.-14     	; 0x6478 <strrev+0x10>
    6486:	08 95       	ret

00006488 <fputc>:
    6488:	0f 93       	push	r16
    648a:	1f 93       	push	r17
    648c:	cf 93       	push	r28
    648e:	df 93       	push	r29
    6490:	fb 01       	movw	r30, r22
    6492:	23 81       	ldd	r18, Z+3	; 0x03
    6494:	21 fd       	sbrc	r18, 1
    6496:	03 c0       	rjmp	.+6      	; 0x649e <fputc+0x16>
    6498:	8f ef       	ldi	r24, 0xFF	; 255
    649a:	9f ef       	ldi	r25, 0xFF	; 255
    649c:	2c c0       	rjmp	.+88     	; 0x64f6 <fputc+0x6e>
    649e:	22 ff       	sbrs	r18, 2
    64a0:	16 c0       	rjmp	.+44     	; 0x64ce <fputc+0x46>
    64a2:	46 81       	ldd	r20, Z+6	; 0x06
    64a4:	57 81       	ldd	r21, Z+7	; 0x07
    64a6:	24 81       	ldd	r18, Z+4	; 0x04
    64a8:	35 81       	ldd	r19, Z+5	; 0x05
    64aa:	42 17       	cp	r20, r18
    64ac:	53 07       	cpc	r21, r19
    64ae:	44 f4       	brge	.+16     	; 0x64c0 <fputc+0x38>
    64b0:	a0 81       	ld	r26, Z
    64b2:	b1 81       	ldd	r27, Z+1	; 0x01
    64b4:	9d 01       	movw	r18, r26
    64b6:	2f 5f       	subi	r18, 0xFF	; 255
    64b8:	3f 4f       	sbci	r19, 0xFF	; 255
    64ba:	31 83       	std	Z+1, r19	; 0x01
    64bc:	20 83       	st	Z, r18
    64be:	8c 93       	st	X, r24
    64c0:	26 81       	ldd	r18, Z+6	; 0x06
    64c2:	37 81       	ldd	r19, Z+7	; 0x07
    64c4:	2f 5f       	subi	r18, 0xFF	; 255
    64c6:	3f 4f       	sbci	r19, 0xFF	; 255
    64c8:	37 83       	std	Z+7, r19	; 0x07
    64ca:	26 83       	std	Z+6, r18	; 0x06
    64cc:	14 c0       	rjmp	.+40     	; 0x64f6 <fputc+0x6e>
    64ce:	8b 01       	movw	r16, r22
    64d0:	ec 01       	movw	r28, r24
    64d2:	fb 01       	movw	r30, r22
    64d4:	00 84       	ldd	r0, Z+8	; 0x08
    64d6:	f1 85       	ldd	r31, Z+9	; 0x09
    64d8:	e0 2d       	mov	r30, r0
    64da:	09 95       	icall
    64dc:	89 2b       	or	r24, r25
    64de:	e1 f6       	brne	.-72     	; 0x6498 <fputc+0x10>
    64e0:	d8 01       	movw	r26, r16
    64e2:	16 96       	adiw	r26, 0x06	; 6
    64e4:	8d 91       	ld	r24, X+
    64e6:	9c 91       	ld	r25, X
    64e8:	17 97       	sbiw	r26, 0x07	; 7
    64ea:	01 96       	adiw	r24, 0x01	; 1
    64ec:	17 96       	adiw	r26, 0x07	; 7
    64ee:	9c 93       	st	X, r25
    64f0:	8e 93       	st	-X, r24
    64f2:	16 97       	sbiw	r26, 0x06	; 6
    64f4:	ce 01       	movw	r24, r28
    64f6:	df 91       	pop	r29
    64f8:	cf 91       	pop	r28
    64fa:	1f 91       	pop	r17
    64fc:	0f 91       	pop	r16
    64fe:	08 95       	ret

00006500 <__ultoa_invert>:
    6500:	fa 01       	movw	r30, r20
    6502:	aa 27       	eor	r26, r26
    6504:	28 30       	cpi	r18, 0x08	; 8
    6506:	51 f1       	breq	.+84     	; 0x655c <__ultoa_invert+0x5c>
    6508:	20 31       	cpi	r18, 0x10	; 16
    650a:	81 f1       	breq	.+96     	; 0x656c <__ultoa_invert+0x6c>
    650c:	e8 94       	clt
    650e:	6f 93       	push	r22
    6510:	6e 7f       	andi	r22, 0xFE	; 254
    6512:	6e 5f       	subi	r22, 0xFE	; 254
    6514:	7f 4f       	sbci	r23, 0xFF	; 255
    6516:	8f 4f       	sbci	r24, 0xFF	; 255
    6518:	9f 4f       	sbci	r25, 0xFF	; 255
    651a:	af 4f       	sbci	r26, 0xFF	; 255
    651c:	b1 e0       	ldi	r27, 0x01	; 1
    651e:	3e d0       	rcall	.+124    	; 0x659c <__ultoa_invert+0x9c>
    6520:	b4 e0       	ldi	r27, 0x04	; 4
    6522:	3c d0       	rcall	.+120    	; 0x659c <__ultoa_invert+0x9c>
    6524:	67 0f       	add	r22, r23
    6526:	78 1f       	adc	r23, r24
    6528:	89 1f       	adc	r24, r25
    652a:	9a 1f       	adc	r25, r26
    652c:	a1 1d       	adc	r26, r1
    652e:	68 0f       	add	r22, r24
    6530:	79 1f       	adc	r23, r25
    6532:	8a 1f       	adc	r24, r26
    6534:	91 1d       	adc	r25, r1
    6536:	a1 1d       	adc	r26, r1
    6538:	6a 0f       	add	r22, r26
    653a:	71 1d       	adc	r23, r1
    653c:	81 1d       	adc	r24, r1
    653e:	91 1d       	adc	r25, r1
    6540:	a1 1d       	adc	r26, r1
    6542:	20 d0       	rcall	.+64     	; 0x6584 <__ultoa_invert+0x84>
    6544:	09 f4       	brne	.+2      	; 0x6548 <__ultoa_invert+0x48>
    6546:	68 94       	set
    6548:	3f 91       	pop	r19
    654a:	2a e0       	ldi	r18, 0x0A	; 10
    654c:	26 9f       	mul	r18, r22
    654e:	11 24       	eor	r1, r1
    6550:	30 19       	sub	r19, r0
    6552:	30 5d       	subi	r19, 0xD0	; 208
    6554:	31 93       	st	Z+, r19
    6556:	de f6       	brtc	.-74     	; 0x650e <__ultoa_invert+0xe>
    6558:	cf 01       	movw	r24, r30
    655a:	08 95       	ret
    655c:	46 2f       	mov	r20, r22
    655e:	47 70       	andi	r20, 0x07	; 7
    6560:	40 5d       	subi	r20, 0xD0	; 208
    6562:	41 93       	st	Z+, r20
    6564:	b3 e0       	ldi	r27, 0x03	; 3
    6566:	0f d0       	rcall	.+30     	; 0x6586 <__ultoa_invert+0x86>
    6568:	c9 f7       	brne	.-14     	; 0x655c <__ultoa_invert+0x5c>
    656a:	f6 cf       	rjmp	.-20     	; 0x6558 <__ultoa_invert+0x58>
    656c:	46 2f       	mov	r20, r22
    656e:	4f 70       	andi	r20, 0x0F	; 15
    6570:	40 5d       	subi	r20, 0xD0	; 208
    6572:	4a 33       	cpi	r20, 0x3A	; 58
    6574:	18 f0       	brcs	.+6      	; 0x657c <__ultoa_invert+0x7c>
    6576:	49 5d       	subi	r20, 0xD9	; 217
    6578:	31 fd       	sbrc	r19, 1
    657a:	40 52       	subi	r20, 0x20	; 32
    657c:	41 93       	st	Z+, r20
    657e:	02 d0       	rcall	.+4      	; 0x6584 <__ultoa_invert+0x84>
    6580:	a9 f7       	brne	.-22     	; 0x656c <__ultoa_invert+0x6c>
    6582:	ea cf       	rjmp	.-44     	; 0x6558 <__ultoa_invert+0x58>
    6584:	b4 e0       	ldi	r27, 0x04	; 4
    6586:	a6 95       	lsr	r26
    6588:	97 95       	ror	r25
    658a:	87 95       	ror	r24
    658c:	77 95       	ror	r23
    658e:	67 95       	ror	r22
    6590:	ba 95       	dec	r27
    6592:	c9 f7       	brne	.-14     	; 0x6586 <__ultoa_invert+0x86>
    6594:	00 97       	sbiw	r24, 0x00	; 0
    6596:	61 05       	cpc	r22, r1
    6598:	71 05       	cpc	r23, r1
    659a:	08 95       	ret
    659c:	9b 01       	movw	r18, r22
    659e:	ac 01       	movw	r20, r24
    65a0:	0a 2e       	mov	r0, r26
    65a2:	06 94       	lsr	r0
    65a4:	57 95       	ror	r21
    65a6:	47 95       	ror	r20
    65a8:	37 95       	ror	r19
    65aa:	27 95       	ror	r18
    65ac:	ba 95       	dec	r27
    65ae:	c9 f7       	brne	.-14     	; 0x65a2 <__ultoa_invert+0xa2>
    65b0:	62 0f       	add	r22, r18
    65b2:	73 1f       	adc	r23, r19
    65b4:	84 1f       	adc	r24, r20
    65b6:	95 1f       	adc	r25, r21
    65b8:	a0 1d       	adc	r26, r0
    65ba:	08 95       	ret

000065bc <eeprom_read_block>:
    65bc:	dc 01       	movw	r26, r24
    65be:	cb 01       	movw	r24, r22

000065c0 <eeprom_read_blraw>:
    65c0:	fc 01       	movw	r30, r24
    65c2:	f9 99       	sbic	0x1f, 1	; 31
    65c4:	fe cf       	rjmp	.-4      	; 0x65c2 <eeprom_read_blraw+0x2>
    65c6:	06 c0       	rjmp	.+12     	; 0x65d4 <eeprom_read_blraw+0x14>
    65c8:	f2 bd       	out	0x22, r31	; 34
    65ca:	e1 bd       	out	0x21, r30	; 33
    65cc:	f8 9a       	sbi	0x1f, 0	; 31
    65ce:	31 96       	adiw	r30, 0x01	; 1
    65d0:	00 b4       	in	r0, 0x20	; 32
    65d2:	0d 92       	st	X+, r0
    65d4:	41 50       	subi	r20, 0x01	; 1
    65d6:	50 40       	sbci	r21, 0x00	; 0
    65d8:	b8 f7       	brcc	.-18     	; 0x65c8 <eeprom_read_blraw+0x8>
    65da:	08 95       	ret

000065dc <eeprom_read_byte>:
    65dc:	f9 99       	sbic	0x1f, 1	; 31
    65de:	fe cf       	rjmp	.-4      	; 0x65dc <eeprom_read_byte>
    65e0:	92 bd       	out	0x22, r25	; 34
    65e2:	81 bd       	out	0x21, r24	; 33
    65e4:	f8 9a       	sbi	0x1f, 0	; 31
    65e6:	99 27       	eor	r25, r25
    65e8:	80 b5       	in	r24, 0x20	; 32
    65ea:	08 95       	ret

000065ec <eeprom_read_word>:
    65ec:	a8 e1       	ldi	r26, 0x18	; 24
    65ee:	b0 e0       	ldi	r27, 0x00	; 0
    65f0:	42 e0       	ldi	r20, 0x02	; 2
    65f2:	50 e0       	ldi	r21, 0x00	; 0
    65f4:	0c 94 e0 32 	jmp	0x65c0	; 0x65c0 <eeprom_read_blraw>

000065f8 <eeprom_update_block>:
    65f8:	dc 01       	movw	r26, r24
    65fa:	a4 0f       	add	r26, r20
    65fc:	b5 1f       	adc	r27, r21
    65fe:	41 50       	subi	r20, 0x01	; 1
    6600:	50 40       	sbci	r21, 0x00	; 0
    6602:	48 f0       	brcs	.+18     	; 0x6616 <eeprom_update_block+0x1e>
    6604:	cb 01       	movw	r24, r22
    6606:	84 0f       	add	r24, r20
    6608:	95 1f       	adc	r25, r21
    660a:	2e 91       	ld	r18, -X
    660c:	0e 94 0d 33 	call	0x661a	; 0x661a <eeprom_update_r18>
    6610:	41 50       	subi	r20, 0x01	; 1
    6612:	50 40       	sbci	r21, 0x00	; 0
    6614:	d0 f7       	brcc	.-12     	; 0x660a <eeprom_update_block+0x12>
    6616:	08 95       	ret

00006618 <eeprom_update_byte>:
    6618:	26 2f       	mov	r18, r22

0000661a <eeprom_update_r18>:
    661a:	f9 99       	sbic	0x1f, 1	; 31
    661c:	fe cf       	rjmp	.-4      	; 0x661a <eeprom_update_r18>
    661e:	92 bd       	out	0x22, r25	; 34
    6620:	81 bd       	out	0x21, r24	; 33
    6622:	f8 9a       	sbi	0x1f, 0	; 31
    6624:	01 97       	sbiw	r24, 0x01	; 1
    6626:	00 b4       	in	r0, 0x20	; 32
    6628:	02 16       	cp	r0, r18
    662a:	39 f0       	breq	.+14     	; 0x663a <eeprom_update_r18+0x20>
    662c:	1f ba       	out	0x1f, r1	; 31
    662e:	20 bd       	out	0x20, r18	; 32
    6630:	0f b6       	in	r0, 0x3f	; 63
    6632:	f8 94       	cli
    6634:	fa 9a       	sbi	0x1f, 2	; 31
    6636:	f9 9a       	sbi	0x1f, 1	; 31
    6638:	0f be       	out	0x3f, r0	; 63
    663a:	08 95       	ret

0000663c <eeprom_update_word>:
    663c:	01 96       	adiw	r24, 0x01	; 1
    663e:	27 2f       	mov	r18, r23
    6640:	0e 94 0d 33 	call	0x661a	; 0x661a <eeprom_update_r18>
    6644:	0c 94 0c 33 	jmp	0x6618	; 0x6618 <eeprom_update_byte>

00006648 <__muluhisi3>:
    6648:	0e 94 66 33 	call	0x66cc	; 0x66cc <__umulhisi3>
    664c:	a5 9f       	mul	r26, r21
    664e:	90 0d       	add	r25, r0
    6650:	b4 9f       	mul	r27, r20
    6652:	90 0d       	add	r25, r0
    6654:	a4 9f       	mul	r26, r20
    6656:	80 0d       	add	r24, r0
    6658:	91 1d       	adc	r25, r1
    665a:	11 24       	eor	r1, r1
    665c:	08 95       	ret

0000665e <__prologue_saves__>:
    665e:	2f 92       	push	r2
    6660:	3f 92       	push	r3
    6662:	4f 92       	push	r4
    6664:	5f 92       	push	r5
    6666:	6f 92       	push	r6
    6668:	7f 92       	push	r7
    666a:	8f 92       	push	r8
    666c:	9f 92       	push	r9
    666e:	af 92       	push	r10
    6670:	bf 92       	push	r11
    6672:	cf 92       	push	r12
    6674:	df 92       	push	r13
    6676:	ef 92       	push	r14
    6678:	ff 92       	push	r15
    667a:	0f 93       	push	r16
    667c:	1f 93       	push	r17
    667e:	cf 93       	push	r28
    6680:	df 93       	push	r29
    6682:	cd b7       	in	r28, 0x3d	; 61
    6684:	de b7       	in	r29, 0x3e	; 62
    6686:	ca 1b       	sub	r28, r26
    6688:	db 0b       	sbc	r29, r27
    668a:	0f b6       	in	r0, 0x3f	; 63
    668c:	f8 94       	cli
    668e:	de bf       	out	0x3e, r29	; 62
    6690:	0f be       	out	0x3f, r0	; 63
    6692:	cd bf       	out	0x3d, r28	; 61
    6694:	09 94       	ijmp

00006696 <__epilogue_restores__>:
    6696:	2a 88       	ldd	r2, Y+18	; 0x12
    6698:	39 88       	ldd	r3, Y+17	; 0x11
    669a:	48 88       	ldd	r4, Y+16	; 0x10
    669c:	5f 84       	ldd	r5, Y+15	; 0x0f
    669e:	6e 84       	ldd	r6, Y+14	; 0x0e
    66a0:	7d 84       	ldd	r7, Y+13	; 0x0d
    66a2:	8c 84       	ldd	r8, Y+12	; 0x0c
    66a4:	9b 84       	ldd	r9, Y+11	; 0x0b
    66a6:	aa 84       	ldd	r10, Y+10	; 0x0a
    66a8:	b9 84       	ldd	r11, Y+9	; 0x09
    66aa:	c8 84       	ldd	r12, Y+8	; 0x08
    66ac:	df 80       	ldd	r13, Y+7	; 0x07
    66ae:	ee 80       	ldd	r14, Y+6	; 0x06
    66b0:	fd 80       	ldd	r15, Y+5	; 0x05
    66b2:	0c 81       	ldd	r16, Y+4	; 0x04
    66b4:	1b 81       	ldd	r17, Y+3	; 0x03
    66b6:	aa 81       	ldd	r26, Y+2	; 0x02
    66b8:	b9 81       	ldd	r27, Y+1	; 0x01
    66ba:	ce 0f       	add	r28, r30
    66bc:	d1 1d       	adc	r29, r1
    66be:	0f b6       	in	r0, 0x3f	; 63
    66c0:	f8 94       	cli
    66c2:	de bf       	out	0x3e, r29	; 62
    66c4:	0f be       	out	0x3f, r0	; 63
    66c6:	cd bf       	out	0x3d, r28	; 61
    66c8:	ed 01       	movw	r28, r26
    66ca:	08 95       	ret

000066cc <__umulhisi3>:
    66cc:	a2 9f       	mul	r26, r18
    66ce:	b0 01       	movw	r22, r0
    66d0:	b3 9f       	mul	r27, r19
    66d2:	c0 01       	movw	r24, r0
    66d4:	a3 9f       	mul	r26, r19
    66d6:	70 0d       	add	r23, r0
    66d8:	81 1d       	adc	r24, r1
    66da:	11 24       	eor	r1, r1
    66dc:	91 1d       	adc	r25, r1
    66de:	b2 9f       	mul	r27, r18
    66e0:	70 0d       	add	r23, r0
    66e2:	81 1d       	adc	r24, r1
    66e4:	11 24       	eor	r1, r1
    66e6:	91 1d       	adc	r25, r1
    66e8:	08 95       	ret

000066ea <_exit>:
    66ea:	f8 94       	cli

000066ec <__stop_program>:
    66ec:	ff cf       	rjmp	.-2      	; 0x66ec <__stop_program>
